 nms_GL

 Timestamp is 4cac45c5 (Wed Oct 06 11:47:49 2010)

 Preferred load address is 60800000

 Start         Length     Name                   Class
 0001:00000000 000358beH .text                   CODE
 0001:000358c0 0000436bH .text$x                 CODE
 0001:00039c30 00000049H .text$yc                CODE
 0001:00039c80 0000003cH .text$yd                CODE
 0002:00000000 00000318H .idata$5                DATA
 0002:00000318 00000004H .CRT$XCA                DATA
 0002:0000031c 00000004H .CRT$XCU                DATA
 0002:00000320 00000004H .CRT$XCZ                DATA
 0002:00000324 00000004H .CRT$XIA                DATA
 0002:00000328 00000004H .CRT$XIAA               DATA
 0002:0000032c 00000004H .CRT$XIC                DATA
 0002:00000330 00000004H .CRT$XIZ                DATA
 0002:00000340 00003dc8H .rdata                  DATA
 0002:00004108 00000063H .rdata$debug            DATA
 0002:0000416c 00000b7cH .rdata$r                DATA
 0002:00004cf0 0000047cH .rdata$sxdata           DATA
 0002:0000516c 00000004H .rtc$IAA                DATA
 0002:00005170 0000000cH .rtc$IMZ                DATA
 0002:0000517c 00000004H .rtc$IZZ                DATA
 0002:00005180 00000004H .rtc$TAA                DATA
 0002:00005184 0000000cH .rtc$TMZ                DATA
 0002:00005190 00000004H .rtc$TZZ                DATA
 0002:00005198 0000457cH .xdata$x                DATA
 0002:00009714 000000b4H .idata$2                DATA
 0002:000097c8 00000014H .idata$3                DATA
 0002:000097dc 00000318H .idata$4                DATA
 0002:00009af4 00001374H .idata$6                DATA
 0002:0000ae70 000035cfH .edata                  DATA
 0003:00000000 00000f83H .data                   DATA
 0003:00000f88 0000049cH .bss                    DATA

  Address         Publics by Value              Rva+Base       Lib:Object

 0000:00000000       __except_list              00000000     <absolute>
 0000:0000011f       ___safe_se_handler_count   0000011f     <absolute>
 0000:00009876       __ldused                   00009876     <absolute>
 0000:00009876       __fltused                  00009876     <absolute>
 0000:00000000       ___ImageBase               60800000     <linker-defined>
 0001:00000000       ??1IFileReadCallBack@io@irr@@UAE@XZ 60801000 f i irrXML:irrXML.obj
 0001:00000010       ??_GIFileReadCallBack@io@irr@@UAEPAXI@Z 60801010 f i irrXML:irrXML.obj
 0001:00000010       ??_EIFileReadCallBack@io@irr@@UAEPAXI@Z 60801010 f i  CIL library: CIL module
 0001:00000030       _powf                      60801030 f i irrXML:irrXML.obj
 0001:00000050       ?fast_atof_move_const@core@irr@@YAPBDPBDAAM@Z 60801050 f i irrXML:irrXML.obj
 0001:00000130       ?fast_atof@core@irr@@YAMPBD@Z 60801130 f i irrXML:irrXML.obj
 0001:00000150       ??0CFileReadCallBack@io@irr@@QAE@PBD@Z 60801150 f i irrXML:irrXML.obj
 0001:000001b0       ??0CFileReadCallBack@io@irr@@QAE@PAU_iobuf@@@Z 608011b0 f i irrXML:irrXML.obj
 0001:00000200       ??1CFileReadCallBack@io@irr@@UAE@XZ 60801200 f i irrXML:irrXML.obj
 0001:00000230       ?read@CFileReadCallBack@io@irr@@UAEHPAXH@Z 60801230 f i irrXML:irrXML.obj
 0001:00000260       ?getSize@CFileReadCallBack@io@irr@@UAEHXZ 60801260 f i irrXML:irrXML.obj
 0001:00000270       ?getFileSize@CFileReadCallBack@io@irr@@AAEXXZ 60801270 f i irrXML:irrXML.obj
 0001:000002a0       ??_ECFileReadCallBack@io@irr@@UAEPAXI@Z 608012a0 f i  CIL library: CIL module
 0001:000002a0       ??_GCFileReadCallBack@io@irr@@UAEPAXI@Z 608012a0 f i irrXML:irrXML.obj
 0001:000002e0       ??0IFileReadCallBack@io@irr@@QAE@XZ 608012e0 f i irrXML:irrXML.obj
 0001:000002f0       ?createIrrXMLReader@io@irr@@YAPAV?$IIrrXMLReader@DVIXMLBase@io@irr@@@12@PBD@Z 608012f0 f   irrXML:irrXML.obj
 0001:000003a0       ?createIrrXMLReader@io@irr@@YAPAV?$IIrrXMLReader@DVIXMLBase@io@irr@@@12@PAU_iobuf@@@Z 608013a0 f   irrXML:irrXML.obj
 0001:00000490       ?createIrrXMLReader@io@irr@@YAPAV?$IIrrXMLReader@DVIXMLBase@io@irr@@@12@PAVIFileReadCallBack@12@@Z 60801490 f   irrXML:irrXML.obj
 0001:00000500       ?createIrrXMLReaderUTF16@io@irr@@YAPAV?$IIrrXMLReader@GVIXMLBase@io@irr@@@12@PBD@Z 60801500 f   irrXML:irrXML.obj
 0001:000005b0       ?createIrrXMLReaderUTF16@io@irr@@YAPAV?$IIrrXMLReader@GVIXMLBase@io@irr@@@12@PAU_iobuf@@@Z 608015b0 f   irrXML:irrXML.obj
 0001:000006a0       ?createIrrXMLReaderUTF16@io@irr@@YAPAV?$IIrrXMLReader@GVIXMLBase@io@irr@@@12@PAVIFileReadCallBack@12@@Z 608016a0 f   irrXML:irrXML.obj
 0001:00000710       ?createIrrXMLReaderUTF32@io@irr@@YAPAV?$IIrrXMLReader@KVIXMLBase@io@irr@@@12@PBD@Z 60801710 f   irrXML:irrXML.obj
 0001:000007c0       ?createIrrXMLReaderUTF32@io@irr@@YAPAV?$IIrrXMLReader@KVIXMLBase@io@irr@@@12@PAU_iobuf@@@Z 608017c0 f   irrXML:irrXML.obj
 0001:000008b0       ?createIrrXMLReaderUTF32@io@irr@@YAPAV?$IIrrXMLReader@KVIXMLBase@io@irr@@@12@PAVIFileReadCallBack@12@@Z 608018b0 f   irrXML:irrXML.obj
 0001:00000920       ??0?$CXMLReaderImpl@DVIXMLBase@io@irr@@@io@irr@@QAE@PAVIFileReadCallBack@12@_N@Z 60801920 f i irrXML:irrXML.obj
 0001:00000a10       ??1?$CXMLReaderImpl@DVIXMLBase@io@irr@@@io@irr@@UAE@XZ 60801a10 f i irrXML:irrXML.obj
 0001:00000af0       ?read@?$CXMLReaderImpl@DVIXMLBase@io@irr@@@io@irr@@UAE_NXZ 60801af0 f i irrXML:irrXML.obj
 0001:00000b20       ?getNodeType@?$CXMLReaderImpl@DVIXMLBase@io@irr@@@io@irr@@UBE?AW4EXML_NODE@23@XZ 60801b20 f i irrXML:irrXML.obj
 0001:00000b30       ?getAttributeCount@?$CXMLReaderImpl@DVIXMLBase@io@irr@@@io@irr@@UBEHXZ 60801b30 f i irrXML:irrXML.obj
 0001:00000b40       ?getAttributeName@?$CXMLReaderImpl@DVIXMLBase@io@irr@@@io@irr@@UBEPBDH@Z 60801b40 f i irrXML:irrXML.obj
 0001:00000b60       ?getAttributeValue@?$CXMLReaderImpl@DVIXMLBase@io@irr@@@io@irr@@UBEPBDH@Z 60801b60 f i irrXML:irrXML.obj
 0001:00000b80       ?getAttributeValue@?$CXMLReaderImpl@DVIXMLBase@io@irr@@@io@irr@@UBEPBDPBD@Z 60801b80 f i irrXML:irrXML.obj
 0001:00000ba0       ?getAttributeValueSafe@?$CXMLReaderImpl@DVIXMLBase@io@irr@@@io@irr@@UBEPBDPBD@Z 60801ba0 f i irrXML:irrXML.obj
 0001:00000bc0       ?getAttributeValueAsInt@?$CXMLReaderImpl@DVIXMLBase@io@irr@@@io@irr@@UBEHPBD@Z 60801bc0 f i irrXML:irrXML.obj
 0001:00000be0       ?getAttributeValueAsInt@?$CXMLReaderImpl@DVIXMLBase@io@irr@@@io@irr@@UBEHH@Z 60801be0 f i irrXML:irrXML.obj
 0001:00000c00       ?getAttributeValueAsFloat@?$CXMLReaderImpl@DVIXMLBase@io@irr@@@io@irr@@UBEMPBD@Z 60801c00 f i irrXML:irrXML.obj
 0001:00000c60       ?getAttributeValueAsFloat@?$CXMLReaderImpl@DVIXMLBase@io@irr@@@io@irr@@UBEMH@Z 60801c60 f i irrXML:irrXML.obj
 0001:00000cc0       ?getNodeName@?$CXMLReaderImpl@DVIXMLBase@io@irr@@@io@irr@@UBEPBDXZ 60801cc0 f i irrXML:irrXML.obj
 0001:00000cd0       ?getNodeData@?$CXMLReaderImpl@DVIXMLBase@io@irr@@@io@irr@@UBEPBDXZ 60801cd0 f i irrXML:irrXML.obj
 0001:00000ce0       ?isEmptyElement@?$CXMLReaderImpl@DVIXMLBase@io@irr@@@io@irr@@UBE_NXZ 60801ce0 f i irrXML:irrXML.obj
 0001:00000cf0       ?getSourceFormat@?$CXMLReaderImpl@DVIXMLBase@io@irr@@@io@irr@@UBE?AW4ETEXT_FORMAT@23@XZ 60801cf0 f i irrXML:irrXML.obj
 0001:00000d00       ?getParserFormat@?$CXMLReaderImpl@DVIXMLBase@io@irr@@@io@irr@@UBE?AW4ETEXT_FORMAT@23@XZ 60801d00 f i irrXML:irrXML.obj
 0001:00000d10       ??1?$IIrrXMLReader@DVIXMLBase@io@irr@@@io@irr@@UAE@XZ 60801d10 f i irrXML:irrXML.obj
 0001:00000d20       ??0?$CXMLReaderImpl@GVIXMLBase@io@irr@@@io@irr@@QAE@PAVIFileReadCallBack@12@_N@Z 60801d20 f i irrXML:irrXML.obj
 0001:00000e20       ??1?$CXMLReaderImpl@GVIXMLBase@io@irr@@@io@irr@@UAE@XZ 60801e20 f i irrXML:irrXML.obj
 0001:00000f00       ?read@?$CXMLReaderImpl@GVIXMLBase@io@irr@@@io@irr@@UAE_NXZ 60801f00 f i irrXML:irrXML.obj
 0001:00000f30       ?getNodeType@?$CXMLReaderImpl@GVIXMLBase@io@irr@@@io@irr@@UBE?AW4EXML_NODE@23@XZ 60801f30 f i irrXML:irrXML.obj
 0001:00000f40       ?getAttributeCount@?$CXMLReaderImpl@GVIXMLBase@io@irr@@@io@irr@@UBEHXZ 60801f40 f i irrXML:irrXML.obj
 0001:00000f50       ?getAttributeName@?$CXMLReaderImpl@GVIXMLBase@io@irr@@@io@irr@@UBEPBGH@Z 60801f50 f i irrXML:irrXML.obj
 0001:00000f70       ?getAttributeValue@?$CXMLReaderImpl@GVIXMLBase@io@irr@@@io@irr@@UBEPBGH@Z 60801f70 f i irrXML:irrXML.obj
 0001:00000f90       ?getAttributeValue@?$CXMLReaderImpl@GVIXMLBase@io@irr@@@io@irr@@UBEPBGPBG@Z 60801f90 f i irrXML:irrXML.obj
 0001:00000fb0       ?getAttributeValueSafe@?$CXMLReaderImpl@GVIXMLBase@io@irr@@@io@irr@@UBEPBGPBG@Z 60801fb0 f i irrXML:irrXML.obj
 0001:00000fd0       ?getAttributeValueAsInt@?$CXMLReaderImpl@GVIXMLBase@io@irr@@@io@irr@@UBEHPBG@Z 60801fd0 f i irrXML:irrXML.obj
 0001:00000ff0       ?getAttributeValueAsInt@?$CXMLReaderImpl@GVIXMLBase@io@irr@@@io@irr@@UBEHH@Z 60801ff0 f i irrXML:irrXML.obj
 0001:00001010       ?getAttributeValueAsFloat@?$CXMLReaderImpl@GVIXMLBase@io@irr@@@io@irr@@UBEMPBG@Z 60802010 f i irrXML:irrXML.obj
 0001:00001070       ?getAttributeValueAsFloat@?$CXMLReaderImpl@GVIXMLBase@io@irr@@@io@irr@@UBEMH@Z 60802070 f i irrXML:irrXML.obj
 0001:000010d0       ?getNodeName@?$CXMLReaderImpl@GVIXMLBase@io@irr@@@io@irr@@UBEPBGXZ 608020d0 f i irrXML:irrXML.obj
 0001:000010e0       ?getNodeData@?$CXMLReaderImpl@GVIXMLBase@io@irr@@@io@irr@@UBEPBGXZ 608020e0 f i irrXML:irrXML.obj
 0001:000010f0       ?isEmptyElement@?$CXMLReaderImpl@GVIXMLBase@io@irr@@@io@irr@@UBE_NXZ 608020f0 f i irrXML:irrXML.obj
 0001:00001100       ?getSourceFormat@?$CXMLReaderImpl@GVIXMLBase@io@irr@@@io@irr@@UBE?AW4ETEXT_FORMAT@23@XZ 60802100 f i irrXML:irrXML.obj
 0001:00001110       ?getParserFormat@?$CXMLReaderImpl@GVIXMLBase@io@irr@@@io@irr@@UBE?AW4ETEXT_FORMAT@23@XZ 60802110 f i irrXML:irrXML.obj
 0001:00001120       ??1?$IIrrXMLReader@GVIXMLBase@io@irr@@@io@irr@@UAE@XZ 60802120 f i irrXML:irrXML.obj
 0001:00001130       ??0?$CXMLReaderImpl@KVIXMLBase@io@irr@@@io@irr@@QAE@PAVIFileReadCallBack@12@_N@Z 60802130 f i irrXML:irrXML.obj
 0001:00001220       ??1?$CXMLReaderImpl@KVIXMLBase@io@irr@@@io@irr@@UAE@XZ 60802220 f i irrXML:irrXML.obj
 0001:00001300       ?read@?$CXMLReaderImpl@KVIXMLBase@io@irr@@@io@irr@@UAE_NXZ 60802300 f i irrXML:irrXML.obj
 0001:00001330       ?getNodeType@?$CXMLReaderImpl@KVIXMLBase@io@irr@@@io@irr@@UBE?AW4EXML_NODE@23@XZ 60802330 f i irrXML:irrXML.obj
 0001:00001340       ?getAttributeCount@?$CXMLReaderImpl@KVIXMLBase@io@irr@@@io@irr@@UBEHXZ 60802340 f i irrXML:irrXML.obj
 0001:00001350       ?getAttributeName@?$CXMLReaderImpl@KVIXMLBase@io@irr@@@io@irr@@UBEPBKH@Z 60802350 f i irrXML:irrXML.obj
 0001:00001370       ?getAttributeValue@?$CXMLReaderImpl@KVIXMLBase@io@irr@@@io@irr@@UBEPBKH@Z 60802370 f i irrXML:irrXML.obj
 0001:00001390       ?getAttributeValue@?$CXMLReaderImpl@KVIXMLBase@io@irr@@@io@irr@@UBEPBKPBK@Z 60802390 f i irrXML:irrXML.obj
 0001:000013b0       ?getAttributeValueSafe@?$CXMLReaderImpl@KVIXMLBase@io@irr@@@io@irr@@UBEPBKPBK@Z 608023b0 f i irrXML:irrXML.obj
 0001:000013d0       ?getAttributeValueAsInt@?$CXMLReaderImpl@KVIXMLBase@io@irr@@@io@irr@@UBEHPBK@Z 608023d0 f i irrXML:irrXML.obj
 0001:000013f0       ?getAttributeValueAsInt@?$CXMLReaderImpl@KVIXMLBase@io@irr@@@io@irr@@UBEHH@Z 608023f0 f i irrXML:irrXML.obj
 0001:00001410       ?getAttributeValueAsFloat@?$CXMLReaderImpl@KVIXMLBase@io@irr@@@io@irr@@UBEMPBK@Z 60802410 f i irrXML:irrXML.obj
 0001:00001470       ?getAttributeValueAsFloat@?$CXMLReaderImpl@KVIXMLBase@io@irr@@@io@irr@@UBEMH@Z 60802470 f i irrXML:irrXML.obj
 0001:000014d0       ?getNodeName@?$CXMLReaderImpl@KVIXMLBase@io@irr@@@io@irr@@UBEPBKXZ 608024d0 f i irrXML:irrXML.obj
 0001:000014e0       ?getNodeData@?$CXMLReaderImpl@KVIXMLBase@io@irr@@@io@irr@@UBEPBKXZ 608024e0 f i irrXML:irrXML.obj
 0001:000014f0       ?isEmptyElement@?$CXMLReaderImpl@KVIXMLBase@io@irr@@@io@irr@@UBE_NXZ 608024f0 f i irrXML:irrXML.obj
 0001:00001500       ?getSourceFormat@?$CXMLReaderImpl@KVIXMLBase@io@irr@@@io@irr@@UBE?AW4ETEXT_FORMAT@23@XZ 60802500 f i irrXML:irrXML.obj
 0001:00001510       ?getParserFormat@?$CXMLReaderImpl@KVIXMLBase@io@irr@@@io@irr@@UBE?AW4ETEXT_FORMAT@23@XZ 60802510 f i irrXML:irrXML.obj
 0001:00001520       ??1?$IIrrXMLReader@KVIXMLBase@io@irr@@@io@irr@@UAE@XZ 60802520 f i irrXML:irrXML.obj
 0001:00001530       ??_E?$CXMLReaderImpl@DVIXMLBase@io@irr@@@io@irr@@UAEPAXI@Z 60802530 f i  CIL library: CIL module
 0001:00001530       ??_G?$CXMLReaderImpl@DVIXMLBase@io@irr@@@io@irr@@UAEPAXI@Z 60802530 f i irrXML:irrXML.obj
 0001:00001550       ??0?$IIrrXMLReader@DVIXMLBase@io@irr@@@io@irr@@QAE@XZ 60802550 f i irrXML:irrXML.obj
 0001:00001560       ??_G?$IIrrXMLReader@DVIXMLBase@io@irr@@@io@irr@@UAEPAXI@Z 60802560 f i irrXML:irrXML.obj
 0001:00001560       ??_E?$IIrrXMLReader@DVIXMLBase@io@irr@@@io@irr@@UAEPAXI@Z 60802560 f i  CIL library: CIL module
 0001:00001580       ??_E?$CXMLReaderImpl@GVIXMLBase@io@irr@@@io@irr@@UAEPAXI@Z 60802580 f i  CIL library: CIL module
 0001:00001580       ??_G?$CXMLReaderImpl@GVIXMLBase@io@irr@@@io@irr@@UAEPAXI@Z 60802580 f i irrXML:irrXML.obj
 0001:000015a0       ??0?$IIrrXMLReader@GVIXMLBase@io@irr@@@io@irr@@QAE@XZ 608025a0 f i irrXML:irrXML.obj
 0001:000015b0       ??_G?$IIrrXMLReader@GVIXMLBase@io@irr@@@io@irr@@UAEPAXI@Z 608025b0 f i irrXML:irrXML.obj
 0001:000015b0       ??_E?$IIrrXMLReader@GVIXMLBase@io@irr@@@io@irr@@UAEPAXI@Z 608025b0 f i  CIL library: CIL module
 0001:000015d0       ??_E?$CXMLReaderImpl@KVIXMLBase@io@irr@@@io@irr@@UAEPAXI@Z 608025d0 f i  CIL library: CIL module
 0001:000015d0       ??_G?$CXMLReaderImpl@KVIXMLBase@io@irr@@@io@irr@@UAEPAXI@Z 608025d0 f i irrXML:irrXML.obj
 0001:000015f0       ??0?$IIrrXMLReader@KVIXMLBase@io@irr@@@io@irr@@QAE@XZ 608025f0 f i irrXML:irrXML.obj
 0001:00001600       ??_G?$IIrrXMLReader@KVIXMLBase@io@irr@@@io@irr@@UAEPAXI@Z 60802600 f i irrXML:irrXML.obj
 0001:00001600       ??_E?$IIrrXMLReader@KVIXMLBase@io@irr@@@io@irr@@UAEPAXI@Z 60802600 f i  CIL library: CIL module
 0001:00001620       ?parseCurrentNode@?$CXMLReaderImpl@DVIXMLBase@io@irr@@@io@irr@@AAEXXZ 60802620 f i irrXML:irrXML.obj
 0001:000016a0       ?getAttributeByName@?$CXMLReaderImpl@DVIXMLBase@io@irr@@@io@irr@@ABEPBUSAttribute@123@PBD@Z 608026a0 f i irrXML:irrXML.obj
 0001:000017b0       ?readFile@?$CXMLReaderImpl@DVIXMLBase@io@irr@@@io@irr@@AAE_NPAVIFileReadCallBack@23@@Z 608027b0 f i irrXML:irrXML.obj
 0001:00001900       ?createSpecialCharacterList@?$CXMLReaderImpl@DVIXMLBase@io@irr@@@io@irr@@AAEXXZ 60802900 f i irrXML:irrXML.obj
 0001:00001a80       ?storeTargetFormat@?$CXMLReaderImpl@DVIXMLBase@io@irr@@@io@irr@@AAEXXZ 60802a80 f i irrXML:irrXML.obj
 0001:00001a90       ??0?$string@D@core@irr@@QAE@XZ 60802a90 f i irrXML:irrXML.obj
 0001:00001ac0       ??1?$string@D@core@irr@@QAE@XZ 60802ac0 f i irrXML:irrXML.obj
 0001:00001ad0       ?c_str@?$string@D@core@irr@@QBEPBDXZ 60802ad0 f i irrXML:irrXML.obj
 0001:00001ae0       ??0?$array@V?$string@D@core@irr@@@core@irr@@QAE@XZ 60802ae0 f i irrXML:irrXML.obj
 0001:00001b00       ??1?$array@V?$string@D@core@irr@@@core@irr@@QAE@XZ 60802b00 f i irrXML:irrXML.obj
 0001:00001b30       ??0?$array@USAttribute@?$CXMLReaderImpl@DVIXMLBase@io@irr@@@io@irr@@@core@irr@@QAE@XZ 60802b30 f i irrXML:irrXML.obj
 0001:00001b50       ??1?$array@USAttribute@?$CXMLReaderImpl@DVIXMLBase@io@irr@@@io@irr@@@core@irr@@QAE@XZ 60802b50 f i irrXML:irrXML.obj
 0001:00001b80       ??A?$array@USAttribute@?$CXMLReaderImpl@DVIXMLBase@io@irr@@@io@irr@@@core@irr@@QBEABUSAttribute@?$CXMLReaderImpl@DVIXMLBase@io@irr@@@io@2@I@Z 60802b80 f i irrXML:irrXML.obj
 0001:00001b90       ?size@?$array@USAttribute@?$CXMLReaderImpl@DVIXMLBase@io@irr@@@io@irr@@@core@irr@@QBEIXZ 60802b90 f i irrXML:irrXML.obj
 0001:00001ba0       ?parseCurrentNode@?$CXMLReaderImpl@GVIXMLBase@io@irr@@@io@irr@@AAEXXZ 60802ba0 f i irrXML:irrXML.obj
 0001:00001c30       ?getAttributeByName@?$CXMLReaderImpl@GVIXMLBase@io@irr@@@io@irr@@ABEPBUSAttribute@123@PBG@Z 60802c30 f i irrXML:irrXML.obj
 0001:00001d50       ?readFile@?$CXMLReaderImpl@GVIXMLBase@io@irr@@@io@irr@@AAE_NPAVIFileReadCallBack@23@@Z 60802d50 f i irrXML:irrXML.obj
 0001:00001ec0       ?createSpecialCharacterList@?$CXMLReaderImpl@GVIXMLBase@io@irr@@@io@irr@@AAEXXZ 60802ec0 f i irrXML:irrXML.obj
 0001:00002040       ?storeTargetFormat@?$CXMLReaderImpl@GVIXMLBase@io@irr@@@io@irr@@AAEXXZ 60803040 f i irrXML:irrXML.obj
 0001:00002050       ??0?$string@G@core@irr@@QAE@XZ 60803050 f i irrXML:irrXML.obj
 0001:00002080       ??1?$string@G@core@irr@@QAE@XZ 60803080 f i irrXML:irrXML.obj
 0001:00002090       ?c_str@?$string@G@core@irr@@QBEPBGXZ 60803090 f i irrXML:irrXML.obj
 0001:000020a0       ??0?$array@V?$string@G@core@irr@@@core@irr@@QAE@XZ 608030a0 f i irrXML:irrXML.obj
 0001:000020c0       ??1?$array@V?$string@G@core@irr@@@core@irr@@QAE@XZ 608030c0 f i irrXML:irrXML.obj
 0001:000020f0       ??0?$array@USAttribute@?$CXMLReaderImpl@GVIXMLBase@io@irr@@@io@irr@@@core@irr@@QAE@XZ 608030f0 f i irrXML:irrXML.obj
 0001:00002110       ??1?$array@USAttribute@?$CXMLReaderImpl@GVIXMLBase@io@irr@@@io@irr@@@core@irr@@QAE@XZ 60803110 f i irrXML:irrXML.obj
 0001:00002140       ??A?$array@USAttribute@?$CXMLReaderImpl@GVIXMLBase@io@irr@@@io@irr@@@core@irr@@QBEABUSAttribute@?$CXMLReaderImpl@GVIXMLBase@io@irr@@@io@2@I@Z 60803140 f i irrXML:irrXML.obj
 0001:00002150       ?size@?$array@USAttribute@?$CXMLReaderImpl@GVIXMLBase@io@irr@@@io@irr@@@core@irr@@QBEIXZ 60803150 f i irrXML:irrXML.obj
 0001:00002160       ?parseCurrentNode@?$CXMLReaderImpl@KVIXMLBase@io@irr@@@io@irr@@AAEXXZ 60803160 f i irrXML:irrXML.obj
 0001:000021e0       ?getAttributeByName@?$CXMLReaderImpl@KVIXMLBase@io@irr@@@io@irr@@ABEPBUSAttribute@123@PBK@Z 608031e0 f i irrXML:irrXML.obj
 0001:00002300       ?readFile@?$CXMLReaderImpl@KVIXMLBase@io@irr@@@io@irr@@AAE_NPAVIFileReadCallBack@23@@Z 60803300 f i irrXML:irrXML.obj
 0001:00002450       ?createSpecialCharacterList@?$CXMLReaderImpl@KVIXMLBase@io@irr@@@io@irr@@AAEXXZ 60803450 f i irrXML:irrXML.obj
 0001:000025c0       ?storeTargetFormat@?$CXMLReaderImpl@KVIXMLBase@io@irr@@@io@irr@@AAEXXZ 608035c0 f i irrXML:irrXML.obj
 0001:000025d0       ??0?$string@K@core@irr@@QAE@XZ 608035d0 f i irrXML:irrXML.obj
 0001:00002600       ??1?$string@K@core@irr@@QAE@XZ 60803600 f i irrXML:irrXML.obj
 0001:00002610       ?c_str@?$string@K@core@irr@@QBEPBKXZ 60803610 f i irrXML:irrXML.obj
 0001:00002620       ??0?$array@V?$string@K@core@irr@@@core@irr@@QAE@XZ 60803620 f i irrXML:irrXML.obj
 0001:00002640       ??1?$array@V?$string@K@core@irr@@@core@irr@@QAE@XZ 60803640 f i irrXML:irrXML.obj
 0001:00002670       ??0?$array@USAttribute@?$CXMLReaderImpl@KVIXMLBase@io@irr@@@io@irr@@@core@irr@@QAE@XZ 60803670 f i irrXML:irrXML.obj
 0001:00002690       ??1?$array@USAttribute@?$CXMLReaderImpl@KVIXMLBase@io@irr@@@io@irr@@@core@irr@@QAE@XZ 60803690 f i irrXML:irrXML.obj
 0001:000026c0       ??A?$array@USAttribute@?$CXMLReaderImpl@KVIXMLBase@io@irr@@@io@irr@@@core@irr@@QBEABUSAttribute@?$CXMLReaderImpl@KVIXMLBase@io@irr@@@io@2@I@Z 608036c0 f i irrXML:irrXML.obj
 0001:000026d0       ?size@?$array@USAttribute@?$CXMLReaderImpl@KVIXMLBase@io@irr@@@io@irr@@@core@irr@@QBEIXZ 608036d0 f i irrXML:irrXML.obj
 0001:000026e0       ??_E?$string@D@core@irr@@QAEPAXI@Z 608036e0 f i irrXML:irrXML.obj
 0001:00002710       ??_ESAttribute@?$CXMLReaderImpl@DVIXMLBase@io@irr@@@io@irr@@QAEPAXI@Z 60803710 f i irrXML:irrXML.obj
 0001:00002740       ??_E?$string@G@core@irr@@QAEPAXI@Z 60803740 f i irrXML:irrXML.obj
 0001:00002770       ??_ESAttribute@?$CXMLReaderImpl@GVIXMLBase@io@irr@@@io@irr@@QAEPAXI@Z 60803770 f i irrXML:irrXML.obj
 0001:000027a0       ??_E?$string@K@core@irr@@QAEPAXI@Z 608037a0 f i irrXML:irrXML.obj
 0001:000027d0       ??_ESAttribute@?$CXMLReaderImpl@KVIXMLBase@io@irr@@@io@irr@@QAEPAXI@Z 608037d0 f i irrXML:irrXML.obj
 0001:00002800       ??1SAttribute@?$CXMLReaderImpl@DVIXMLBase@io@irr@@@io@irr@@QAE@XZ 60803800 f i irrXML:irrXML.obj
 0001:00002860       ??1SAttribute@?$CXMLReaderImpl@GVIXMLBase@io@irr@@@io@irr@@QAE@XZ 60803860 f i irrXML:irrXML.obj
 0001:000028c0       ??1SAttribute@?$CXMLReaderImpl@KVIXMLBase@io@irr@@@io@irr@@QAE@XZ 608038c0 f i irrXML:irrXML.obj
 0001:00002920       ?setText@?$CXMLReaderImpl@DVIXMLBase@io@irr@@@io@irr@@AAE_NPAD0@Z 60803920 f i irrXML:irrXML.obj
 0001:00002a70       ?ignoreDefinition@?$CXMLReaderImpl@DVIXMLBase@io@irr@@@io@irr@@AAEXXZ 60803a70 f i irrXML:irrXML.obj
 0001:00002aa0       ?parseComment@?$CXMLReaderImpl@DVIXMLBase@io@irr@@@io@irr@@AAEXXZ 60803aa0 f i irrXML:irrXML.obj
 0001:00002bd0       ?parseOpeningXMLElement@?$CXMLReaderImpl@DVIXMLBase@io@irr@@@io@irr@@AAEXXZ 60803bd0 f i irrXML:irrXML.obj
 0001:00002fb0       ?parseClosingXMLElement@?$CXMLReaderImpl@DVIXMLBase@io@irr@@@io@irr@@AAEXXZ 60803fb0 f i irrXML:irrXML.obj
 0001:000030f0       ?parseCDATA@?$CXMLReaderImpl@DVIXMLBase@io@irr@@@io@irr@@AAE_NXZ 608040f0 f i irrXML:irrXML.obj
 0001:000031f0       ??8?$string@D@core@irr@@QBE_NABV012@@Z 608041f0 f i irrXML:irrXML.obj
 0001:00003230       ?push_back@?$array@V?$string@D@core@irr@@@core@irr@@QAEXABV?$string@D@23@@Z 60804230 f i irrXML:irrXML.obj
 0001:00003310       ?setText@?$CXMLReaderImpl@GVIXMLBase@io@irr@@@io@irr@@AAE_NPAG0@Z 60804310 f i irrXML:irrXML.obj
 0001:00003460       ?ignoreDefinition@?$CXMLReaderImpl@GVIXMLBase@io@irr@@@io@irr@@AAEXXZ 60804460 f i irrXML:irrXML.obj
 0001:00003490       ?parseComment@?$CXMLReaderImpl@GVIXMLBase@io@irr@@@io@irr@@AAEXXZ 60804490 f i irrXML:irrXML.obj
 0001:00003550       ?parseOpeningXMLElement@?$CXMLReaderImpl@GVIXMLBase@io@irr@@@io@irr@@AAEXXZ 60804550 f i irrXML:irrXML.obj
 0001:00003920       ?parseClosingXMLElement@?$CXMLReaderImpl@GVIXMLBase@io@irr@@@io@irr@@AAEXXZ 60804920 f i irrXML:irrXML.obj
 0001:000039f0       ?parseCDATA@?$CXMLReaderImpl@GVIXMLBase@io@irr@@@io@irr@@AAE_NXZ 608049f0 f i irrXML:irrXML.obj
 0001:00003b10       ??8?$string@G@core@irr@@QBE_NABV012@@Z 60804b10 f i irrXML:irrXML.obj
 0001:00003b60       ?push_back@?$array@V?$string@G@core@irr@@@core@irr@@QAEXABV?$string@G@23@@Z 60804b60 f i irrXML:irrXML.obj
 0001:00003c50       ?setText@?$CXMLReaderImpl@KVIXMLBase@io@irr@@@io@irr@@AAE_NPAK0@Z 60804c50 f i irrXML:irrXML.obj
 0001:00003da0       ?ignoreDefinition@?$CXMLReaderImpl@KVIXMLBase@io@irr@@@io@irr@@AAEXXZ 60804da0 f i irrXML:irrXML.obj
 0001:00003dd0       ?parseComment@?$CXMLReaderImpl@KVIXMLBase@io@irr@@@io@irr@@AAEXXZ 60804dd0 f i irrXML:irrXML.obj
 0001:00003e80       ?parseOpeningXMLElement@?$CXMLReaderImpl@KVIXMLBase@io@irr@@@io@irr@@AAEXXZ 60804e80 f i irrXML:irrXML.obj
 0001:000042a0       ?parseClosingXMLElement@?$CXMLReaderImpl@KVIXMLBase@io@irr@@@io@irr@@AAEXXZ 608052a0 f i irrXML:irrXML.obj
 0001:00004370       ?parseCDATA@?$CXMLReaderImpl@KVIXMLBase@io@irr@@@io@irr@@AAE_NXZ 60805370 f i irrXML:irrXML.obj
 0001:00004480       ??8?$string@K@core@irr@@QBE_NABV012@@Z 60805480 f i irrXML:irrXML.obj
 0001:000044d0       ?push_back@?$array@V?$string@K@core@irr@@@core@irr@@QAEXABV?$string@K@23@@Z 608054d0 f i irrXML:irrXML.obj
 0001:000045c0       ??0SAttribute@?$CXMLReaderImpl@DVIXMLBase@io@irr@@@io@irr@@QAE@XZ 608055c0 f i irrXML:irrXML.obj
 0001:00004640       ??0SAttribute@?$CXMLReaderImpl@GVIXMLBase@io@irr@@@io@irr@@QAE@XZ 60805640 f i irrXML:irrXML.obj
 0001:000046c0       ??0SAttribute@?$CXMLReaderImpl@KVIXMLBase@io@irr@@@io@irr@@QAE@XZ 608056c0 f i irrXML:irrXML.obj
 0001:00004750       ?replaceSpecialCharacters@?$CXMLReaderImpl@DVIXMLBase@io@irr@@@io@irr@@AAE?AV?$string@D@core@3@AAV453@@Z 60805750 f i irrXML:irrXML.obj
 0001:00004c10       ?isWhiteSpace@?$CXMLReaderImpl@DVIXMLBase@io@irr@@@io@irr@@AAE_ND@Z 60805c10 f i irrXML:irrXML.obj
 0001:00004c30       ??4?$string@D@core@irr@@QAEAAV012@ABV012@@Z 60805c30 f i irrXML:irrXML.obj
 0001:00004c80       ?reallocate@?$array@V?$string@D@core@irr@@@core@irr@@QAEXI@Z 60805c80 f i irrXML:irrXML.obj
 0001:00004dc0       ?push_back@?$array@USAttribute@?$CXMLReaderImpl@DVIXMLBase@io@irr@@@io@irr@@@core@irr@@QAEXABUSAttribute@?$CXMLReaderImpl@DVIXMLBase@io@irr@@@io@3@@Z 60805dc0 f i irrXML:irrXML.obj
 0001:00004e90       ?clear@?$array@USAttribute@?$CXMLReaderImpl@DVIXMLBase@io@irr@@@io@irr@@@core@irr@@QAEXXZ 60805e90 f i irrXML:irrXML.obj
 0001:00004ed0       ?replaceSpecialCharacters@?$CXMLReaderImpl@GVIXMLBase@io@irr@@@io@irr@@AAE?AV?$string@G@core@3@AAV453@@Z 60805ed0 f i irrXML:irrXML.obj
 0001:00005410       ?isWhiteSpace@?$CXMLReaderImpl@GVIXMLBase@io@irr@@@io@irr@@AAE_NG@Z 60806410 f i irrXML:irrXML.obj
 0001:00005430       ??4?$string@G@core@irr@@QAEAAV012@ABV012@@Z 60806430 f i irrXML:irrXML.obj
 0001:00005490       ?reallocate@?$array@V?$string@G@core@irr@@@core@irr@@QAEXI@Z 60806490 f i irrXML:irrXML.obj
 0001:000055e0       ?push_back@?$array@USAttribute@?$CXMLReaderImpl@GVIXMLBase@io@irr@@@io@irr@@@core@irr@@QAEXABUSAttribute@?$CXMLReaderImpl@GVIXMLBase@io@irr@@@io@3@@Z 608065e0 f i irrXML:irrXML.obj
 0001:000056d0       ?clear@?$array@USAttribute@?$CXMLReaderImpl@GVIXMLBase@io@irr@@@io@irr@@@core@irr@@QAEXXZ 608066d0 f i irrXML:irrXML.obj
 0001:00005710       ?replaceSpecialCharacters@?$CXMLReaderImpl@KVIXMLBase@io@irr@@@io@irr@@AAE?AV?$string@K@core@3@AAV453@@Z 60806710 f i irrXML:irrXML.obj
 0001:00005c30       ?isWhiteSpace@?$CXMLReaderImpl@KVIXMLBase@io@irr@@@io@irr@@AAE_NK@Z 60806c30 f i irrXML:irrXML.obj
 0001:00005c50       ??4?$string@K@core@irr@@QAEAAV012@ABV012@@Z 60806c50 f i irrXML:irrXML.obj
 0001:00005cb0       ?reallocate@?$array@V?$string@K@core@irr@@@core@irr@@QAEXI@Z 60806cb0 f i irrXML:irrXML.obj
 0001:00005e00       ?push_back@?$array@USAttribute@?$CXMLReaderImpl@KVIXMLBase@io@irr@@@io@irr@@@core@irr@@QAEXABUSAttribute@?$CXMLReaderImpl@KVIXMLBase@io@irr@@@io@3@@Z 60806e00 f i irrXML:irrXML.obj
 0001:00005ef0       ?clear@?$array@USAttribute@?$CXMLReaderImpl@KVIXMLBase@io@irr@@@io@irr@@@core@irr@@QAEXXZ 60806ef0 f i irrXML:irrXML.obj
 0001:00005f30       ??4SAttribute@?$CXMLReaderImpl@DVIXMLBase@io@irr@@@io@irr@@QAEAAU0123@ABU0123@@Z 60806f30 f i irrXML:irrXML.obj
 0001:00005fc0       ??4SAttribute@?$CXMLReaderImpl@GVIXMLBase@io@irr@@@io@irr@@QAEAAU0123@ABU0123@@Z 60806fc0 f i irrXML:irrXML.obj
 0001:00005fe0       ??4SAttribute@?$CXMLReaderImpl@KVIXMLBase@io@irr@@@io@irr@@QAEAAU0123@ABU0123@@Z 60806fe0 f i irrXML:irrXML.obj
 0001:00006000       ?equalsn@?$CXMLReaderImpl@DVIXMLBase@io@irr@@@io@irr@@AAE_NPBD0H@Z 60807000 f i irrXML:irrXML.obj
 0001:00006050       ??0?$string@D@core@irr@@QAE@ABV012@@Z 60807050 f i irrXML:irrXML.obj
 0001:000060b0       ??A?$string@D@core@irr@@QBEAADH@Z 608070b0 f i irrXML:irrXML.obj
 0001:000060c0       ?size@?$string@D@core@irr@@QBEHXZ 608070c0 f i irrXML:irrXML.obj
 0001:000060d0       ?append@?$string@D@core@irr@@QAEXD@Z 608070d0 f i irrXML:irrXML.obj
 0001:00006100       ?append@?$string@D@core@irr@@QAEXABV123@@Z 60807100 f i irrXML:irrXML.obj
 0001:00006160       ?findFirst@?$string@D@core@irr@@QBEHD@Z 60807160 f i irrXML:irrXML.obj
 0001:00006180       ?findNext@?$string@D@core@irr@@QBEHDH@Z 60807180 f i irrXML:irrXML.obj
 0001:000061a0       ?subString@?$string@D@core@irr@@QAE?AV123@HH@Z 608071a0 f i irrXML:irrXML.obj
 0001:000062d0       ??A?$array@V?$string@D@core@irr@@@core@irr@@QAEAAV?$string@D@12@I@Z 608072d0 f i irrXML:irrXML.obj
 0001:000062e0       ?size@?$array@V?$string@D@core@irr@@@core@irr@@QBEIXZ 608072e0 f i irrXML:irrXML.obj
 0001:000062f0       ?reallocate@?$array@USAttribute@?$CXMLReaderImpl@DVIXMLBase@io@irr@@@io@irr@@@core@irr@@QAEXI@Z 608072f0 f i irrXML:irrXML.obj
 0001:000063f0       ?equalsn@?$CXMLReaderImpl@GVIXMLBase@io@irr@@@io@irr@@AAE_NPBG0H@Z 608073f0 f i irrXML:irrXML.obj
 0001:00006440       ??0?$string@G@core@irr@@QAE@ABV012@@Z 60807440 f i irrXML:irrXML.obj
 0001:00006460       ??A?$string@G@core@irr@@QBEAAGH@Z 60807460 f i irrXML:irrXML.obj
 0001:00006470       ?size@?$string@G@core@irr@@QBEHXZ 60807470 f i irrXML:irrXML.obj
 0001:00006480       ?append@?$string@G@core@irr@@QAEXG@Z 60807480 f i irrXML:irrXML.obj
 0001:000064c0       ?append@?$string@G@core@irr@@QAEXABV123@@Z 608074c0 f i irrXML:irrXML.obj
 0001:00006520       ?findFirst@?$string@G@core@irr@@QBEHG@Z 60807520 f i irrXML:irrXML.obj
 0001:00006550       ?findNext@?$string@G@core@irr@@QBEHGH@Z 60807550 f i irrXML:irrXML.obj
 0001:00006580       ?subString@?$string@G@core@irr@@QAE?AV123@HH@Z 60807580 f i irrXML:irrXML.obj
 0001:000066d0       ??A?$array@V?$string@G@core@irr@@@core@irr@@QAEAAV?$string@G@12@I@Z 608076d0 f i irrXML:irrXML.obj
 0001:000066e0       ?size@?$array@V?$string@G@core@irr@@@core@irr@@QBEIXZ 608076e0 f i irrXML:irrXML.obj
 0001:000066f0       ?reallocate@?$array@USAttribute@?$CXMLReaderImpl@GVIXMLBase@io@irr@@@io@irr@@@core@irr@@QAEXI@Z 608076f0 f i irrXML:irrXML.obj
 0001:000068a0       ?equalsn@?$CXMLReaderImpl@KVIXMLBase@io@irr@@@io@irr@@AAE_NPBK0H@Z 608078a0 f i irrXML:irrXML.obj
 0001:000068f0       ??0?$string@K@core@irr@@QAE@ABV012@@Z 608078f0 f i irrXML:irrXML.obj
 0001:00006910       ??A?$string@K@core@irr@@QBEAAKH@Z 60807910 f i irrXML:irrXML.obj
 0001:00006920       ?size@?$string@K@core@irr@@QBEHXZ 60807920 f i irrXML:irrXML.obj
 0001:00006930       ?append@?$string@K@core@irr@@QAEXK@Z 60807930 f i irrXML:irrXML.obj
 0001:00006970       ?append@?$string@K@core@irr@@QAEXABV123@@Z 60807970 f i irrXML:irrXML.obj
 0001:000069d0       ?findFirst@?$string@K@core@irr@@QBEHK@Z 608079d0 f i irrXML:irrXML.obj
 0001:00006a00       ?findNext@?$string@K@core@irr@@QBEHKH@Z 60807a00 f i irrXML:irrXML.obj
 0001:00006a30       ?subString@?$string@K@core@irr@@QAE?AV123@HH@Z 60807a30 f i irrXML:irrXML.obj
 0001:00006b70       ??A?$array@V?$string@K@core@irr@@@core@irr@@QAEAAV?$string@K@12@I@Z 60807b70 f i irrXML:irrXML.obj
 0001:00006b80       ?size@?$array@V?$string@K@core@irr@@@core@irr@@QBEIXZ 60807b80 f i irrXML:irrXML.obj
 0001:00006b90       ?reallocate@?$array@USAttribute@?$CXMLReaderImpl@KVIXMLBase@io@irr@@@io@irr@@@core@irr@@QAEXI@Z 60807b90 f i irrXML:irrXML.obj
 0001:00006d40       ?reserve@?$string@D@core@irr@@QAEXH@Z 60807d40 f i irrXML:irrXML.obj
 0001:00006d60       ?reallocate@?$string@D@core@irr@@AAEXH@Z 60807d60 f i irrXML:irrXML.obj
 0001:00006dc0       ?reserve@?$string@G@core@irr@@QAEXH@Z 60807dc0 f i irrXML:irrXML.obj
 0001:00006dd0       ?reallocate@?$string@G@core@irr@@AAEXH@Z 60807dd0 f i irrXML:irrXML.obj
 0001:00006e30       ?reserve@?$string@K@core@irr@@QAEXH@Z 60807e30 f i irrXML:irrXML.obj
 0001:00006e40       ?reallocate@?$string@K@core@irr@@AAEXH@Z 60807e40 f i irrXML:irrXML.obj
 0001:00006ea0       ??$?0D@?$string@D@core@irr@@QAE@PBD@Z 60807ea0 f i irrXML:irrXML.obj
 0001:00006ec0       ??$?0G@?$string@D@core@irr@@QAE@PBG@Z 60807ec0 f i irrXML:irrXML.obj
 0001:00006ee0       ??$?0K@?$string@D@core@irr@@QAE@PBK@Z 60807ee0 f i irrXML:irrXML.obj
 0001:00006f00       ??$convertTextData@K@?$CXMLReaderImpl@DVIXMLBase@io@irr@@@io@irr@@AAEXPAKPADH@Z 60807f00 f i irrXML:irrXML.obj
 0001:00006f90       ??$convertTextData@G@?$CXMLReaderImpl@DVIXMLBase@io@irr@@@io@irr@@AAEXPAGPADH@Z 60807f90 f i irrXML:irrXML.obj
 0001:00007030       ??$convertTextData@D@?$CXMLReaderImpl@DVIXMLBase@io@irr@@@io@irr@@AAEXPAD0H@Z 60808030 f i irrXML:irrXML.obj
 0001:00007040       ??$?0G@?$string@G@core@irr@@QAE@PBG@Z 60808040 f i irrXML:irrXML.obj
 0001:00007060       ??$convertTextData@K@?$CXMLReaderImpl@GVIXMLBase@io@irr@@@io@irr@@AAEXPAKPADH@Z 60808060 f i irrXML:irrXML.obj
 0001:00007100       ??$convertTextData@G@?$CXMLReaderImpl@GVIXMLBase@io@irr@@@io@irr@@AAEXPAGPADH@Z 60808100 f i irrXML:irrXML.obj
 0001:00007180       ??$convertTextData@D@?$CXMLReaderImpl@GVIXMLBase@io@irr@@@io@irr@@AAEXPAD0H@Z 60808180 f i irrXML:irrXML.obj
 0001:000071e0       ??$?0D@?$string@G@core@irr@@QAE@PBD@Z 608081e0 f i irrXML:irrXML.obj
 0001:00007200       ??$?0K@?$string@K@core@irr@@QAE@PBK@Z 60808200 f i irrXML:irrXML.obj
 0001:00007220       ??$convertTextData@K@?$CXMLReaderImpl@KVIXMLBase@io@irr@@@io@irr@@AAEXPAKPADH@Z 60808220 f i irrXML:irrXML.obj
 0001:00007280       ??$convertTextData@G@?$CXMLReaderImpl@KVIXMLBase@io@irr@@@io@irr@@AAEXPAGPADH@Z 60808280 f i irrXML:irrXML.obj
 0001:00007340       ??$convertTextData@D@?$CXMLReaderImpl@KVIXMLBase@io@irr@@@io@irr@@AAEXPAD0H@Z 60808340 f i irrXML:irrXML.obj
 0001:000073a0       ??$?0D@?$string@K@core@irr@@QAE@PBD@Z 608083a0 f i irrXML:irrXML.obj
 0001:000073c0       ??$?0D@?$string@D@core@irr@@QAE@PBDH@Z 608083c0 f i irrXML:irrXML.obj
 0001:00007410       ??$?4D@?$string@D@core@irr@@QAEAAV012@PBD@Z 60808410 f i irrXML:irrXML.obj
 0001:000074a0       ??$?0G@?$string@G@core@irr@@QAE@PBGH@Z 608084a0 f i irrXML:irrXML.obj
 0001:00007510       ??$?4D@?$string@G@core@irr@@QAEAAV012@PBD@Z 60808510 f i irrXML:irrXML.obj
 0001:000075b0       ??$?0K@?$string@K@core@irr@@QAE@PBKH@Z 608085b0 f i irrXML:irrXML.obj
 0001:00007620       ??$?4D@?$string@K@core@irr@@QAEAAV012@PBD@Z 60808620 f i irrXML:irrXML.obj
 0001:000076c0       ?isLittleEndian@?$CXMLReaderImpl@DVIXMLBase@io@irr@@@io@irr@@AAE_NW4ETEXT_FORMAT@23@@Z 608086c0 f i irrXML:irrXML.obj
 0001:000076e0       ?isLittleEndian@?$CXMLReaderImpl@GVIXMLBase@io@irr@@@io@irr@@AAE_NW4ETEXT_FORMAT@23@@Z 608086e0 f i irrXML:irrXML.obj
 0001:00007700       ?isLittleEndian@?$CXMLReaderImpl@KVIXMLBase@io@irr@@@io@irr@@AAE_NW4ETEXT_FORMAT@23@@Z 60808700 f i irrXML:irrXML.obj
 0001:00007720       ??$?4G@?$string@D@core@irr@@QAEAAV012@PBG@Z 60808720 f i irrXML:irrXML.obj
 0001:000077a0       ??$?4K@?$string@D@core@irr@@QAEAAV012@PBK@Z 608087a0 f i irrXML:irrXML.obj
 0001:00007820       ??$convertToLittleEndian@K@?$CXMLReaderImpl@DVIXMLBase@io@irr@@@io@irr@@AAEXPAK@Z 60808820 f i irrXML:irrXML.obj
 0001:00007860       ??$convertToLittleEndian@G@?$CXMLReaderImpl@DVIXMLBase@io@irr@@@io@irr@@AAEXPAG@Z 60808860 f i irrXML:irrXML.obj
 0001:00007880       ??$convertToLittleEndian@D@?$CXMLReaderImpl@DVIXMLBase@io@irr@@@io@irr@@AAEXPAD@Z 60808880 f i irrXML:irrXML.obj
 0001:00007890       ??$?4G@?$string@G@core@irr@@QAEAAV012@PBG@Z 60808890 f i irrXML:irrXML.obj
 0001:00007940       ??$convertToLittleEndian@K@?$CXMLReaderImpl@GVIXMLBase@io@irr@@@io@irr@@AAEXPAK@Z 60808940 f i irrXML:irrXML.obj
 0001:00007980       ??$convertToLittleEndian@G@?$CXMLReaderImpl@GVIXMLBase@io@irr@@@io@irr@@AAEXPAG@Z 60808980 f i irrXML:irrXML.obj
 0001:000079a0       ??$convertToLittleEndian@D@?$CXMLReaderImpl@GVIXMLBase@io@irr@@@io@irr@@AAEXPAD@Z 608089a0 f i irrXML:irrXML.obj
 0001:000079b0       ??$?4K@?$string@K@core@irr@@QAEAAV012@PBK@Z 608089b0 f i irrXML:irrXML.obj
 0001:00007a50       ??$convertToLittleEndian@K@?$CXMLReaderImpl@KVIXMLBase@io@irr@@@io@irr@@AAEXPAK@Z 60808a50 f i irrXML:irrXML.obj
 0001:00007a90       ??$convertToLittleEndian@G@?$CXMLReaderImpl@KVIXMLBase@io@irr@@@io@irr@@AAEXPAG@Z 60808a90 f i irrXML:irrXML.obj
 0001:00007ab0       ??$convertToLittleEndian@D@?$CXMLReaderImpl@KVIXMLBase@io@irr@@@io@irr@@AAEXPAD@Z 60808ab0 f i irrXML:irrXML.obj
 0001:00007ac0       ??0NMS_TextureManager@@QAE@ABV0@@Z 60808ac0 f i ColladaModel.obj
 0001:00007b20       ??4NMS_TextureManager@@QAEAAV0@ABV0@@Z 60808b20 f i ColladaModel.obj
 0001:00007ba0       ??0?$map@PADUtextStruct@@U?$less@PAD@std@@V?$allocator@U?$pair@QADUtextStruct@@@std@@@3@@std@@QAE@ABV01@@Z 60808ba0 f i ColladaModel.obj
 0001:00007bf0       ??4?$map@PADUtextStruct@@U?$less@PAD@std@@V?$allocator@U?$pair@QADUtextStruct@@@std@@@3@@std@@QAEAAV01@ABV01@@Z 60808bf0 f i ColladaModel.obj
 0001:00007c40       ??4NMS_AssetManager@@QAEAAV0@ABV0@@Z 60808c40 f i ColladaModel.obj
 0001:00007c80       ??0NMS_Mesh@@QAE@XZ        60808c80 f i ColladaModel.obj
 0001:00007cc0       ??1NMS_Mesh@@QAE@XZ        60808cc0 f i ColladaModel.obj
 0001:00007d00       ??0NMS_Mesh@@QAE@ABV0@@Z   60808d00 f i ColladaModel.obj
 0001:00007d40       ??4NMS_Mesh@@QAEAAV0@ABV0@@Z 60808d40 f i ColladaModel.obj
 0001:00007d70       ??0Source@@QAE@XZ          60808d70 f i ColladaModel.obj
 0001:00007e00       ??1Source@@QAE@XZ          60808e00 f i ColladaModel.obj
 0001:00007e90       ??0Source@@QAE@ABV0@@Z     60808e90 f i ColladaModel.obj
 0001:00007f60       ??4Source@@QAEAAV0@ABV0@@Z 60808f60 f i ColladaModel.obj
 0001:00008000       ??1Triangle@@QAE@XZ        60809000 f i ColladaModel.obj
 0001:000080a0       ??0Triangle@@QAE@ABV0@@Z   608090a0 f i ColladaModel.obj
 0001:000081e0       ??4Triangle@@QAEAAV0@ABV0@@Z 608091e0 f i ColladaModel.obj
 0001:000082e0       ??1ColMesh@@QAE@XZ         608092e0 f i ColladaModel.obj
 0001:00008380       ??0ColMesh@@QAE@ABV0@@Z    60809380 f i ColladaModel.obj
 0001:00008430       ??4ColMesh@@QAEAAV0@ABV0@@Z 60809430 f i ColladaModel.obj
 0001:000084a0       ??0ColladaModel@@QAE@ABV0@@Z 608094a0 f i ColladaModel.obj
 0001:00008580       ??4ColladaModel@@QAEAAV0@ABV0@@Z 60809580 f i ColladaModel.obj
 0001:00008610       ??0ColladaModel@@QAE@XZ    60809610 f   ColladaModel.obj
 0001:000086e0       ??1ColladaModel@@QAE@XZ    608096e0 f   ColladaModel.obj
 0001:00008790       ??0Triangle@@QAE@XZ        60809790 f   ColladaModel.obj
 0001:00008960       ??0ColMesh@@QAE@XZ         60809960 f   ColladaModel.obj
 0001:00008a30       ?render@ColladaModel@@UAEXM@Z 60809a30 f   ColladaModel.obj
 0001:00008af0       ?LoadSkin@ColladaModel@@QAEHPAD@Z 60809af0 f   ColladaModel.obj
 0001:00008b50       ?RenderFrame@ColladaModel@@AAEXXZ 60809b50 f   ColladaModel.obj
 0001:00009280       ?LoadModel@ColladaModel@@QAEHPBD@Z 6080a280 f   ColladaModel.obj
 0001:000093e0       ?readLibraryImages@ColladaModel@@AAEXPAV?$IIrrXMLReader@DVIXMLBase@io@irr@@@io@irr@@@Z 6080a3e0 f   ColladaModel.obj
 0001:00009550       ?readLibraryGeometries@ColladaModel@@AAEXPAV?$IIrrXMLReader@DVIXMLBase@io@irr@@@io@irr@@@Z 6080a550 f   ColladaModel.obj
 0001:0000a130       ?readMainSection@ColladaModel@@AAEXPAV?$IIrrXMLReader@DVIXMLBase@io@irr@@@io@irr@@@Z 6080b130 f   ColladaModel.obj
 0001:0000a250       ?removeWhitespaces@ColladaModel@@AAEXPAPAD@Z 6080b250 f   ColladaModel.obj
 0001:0000a2d0       ??0_Has_debug_it@?$basic_string@DU?$char_traits@D@std@@V?$allocator@D@2@@std@@QAE@_N@Z 6080b2d0 f i ColladaModel.obj
 0001:0000a310       ??0?$_Tree@V?$_Tmap_traits@PADUtextStruct@@U?$less@PAD@std@@V?$allocator@U?$pair@QADUtextStruct@@@std@@@3@$0A@@std@@@std@@QAE@ABV01@@Z 6080b310 f i ColladaModel.obj
 0001:0000a400       ??4?$_Tree@V?$_Tmap_traits@PADUtextStruct@@U?$less@PAD@std@@V?$allocator@U?$pair@QADUtextStruct@@@std@@@3@$0A@@std@@@std@@QAEAAV01@ABV01@@Z 6080b400 f i ColladaModel.obj
 0001:0000a560       ??0?$string@D@core@irr@@QAE@H@Z 6080b560 f i ColladaModel.obj
 0001:0000a6a0       ?replace@?$string@D@core@irr@@QAEXDD@Z 6080b6a0 f i ColladaModel.obj
 0001:0000a710       ?trim@?$string@D@core@irr@@QAEXXZ 6080b710 f i ColladaModel.obj
 0001:0000a840       ??0?$vector@VSource@@V?$allocator@VSource@@@std@@@std@@QAE@XZ 6080b840 f i ColladaModel.obj
 0001:0000a8e0       ??0?$vector@VSource@@V?$allocator@VSource@@@std@@@std@@QAE@ABV01@@Z 6080b8e0 f i ColladaModel.obj
 0001:0000aa30       ??1?$vector@VSource@@V?$allocator@VSource@@@std@@@std@@QAE@XZ 6080ba30 f i ColladaModel.obj
 0001:0000aab0       ??4?$vector@VSource@@V?$allocator@VSource@@@std@@@std@@QAEAAV01@ABV01@@Z 6080bab0 f i ColladaModel.obj
 0001:0000ac80       ?size@?$vector@VSource@@V?$allocator@VSource@@@std@@@std@@QBEIXZ 6080bc80 f i ColladaModel.obj
 0001:0000acc0       ??A?$vector@VSource@@V?$allocator@VSource@@@std@@@std@@QAEAAVSource@@I@Z 6080bcc0 f i ColladaModel.obj
 0001:0000adf0       ?back@?$vector@VSource@@V?$allocator@VSource@@@std@@@std@@QAEAAVSource@@XZ 6080bdf0 f i ColladaModel.obj
 0001:0000aee0       ?push_back@?$vector@VSource@@V?$allocator@VSource@@@std@@@std@@QAEXABVSource@@@Z 6080bee0 f i ColladaModel.obj
 0001:0000b010       ??0?$vector@VTriangle@@V?$allocator@VTriangle@@@std@@@std@@QAE@XZ 6080c010 f i ColladaModel.obj
 0001:0000b0b0       ??0?$vector@VTriangle@@V?$allocator@VTriangle@@@std@@@std@@QAE@ABV01@@Z 6080c0b0 f i ColladaModel.obj
 0001:0000b200       ??1?$vector@VTriangle@@V?$allocator@VTriangle@@@std@@@std@@QAE@XZ 6080c200 f i ColladaModel.obj
 0001:0000b280       ??4?$vector@VTriangle@@V?$allocator@VTriangle@@@std@@@std@@QAEAAV01@ABV01@@Z 6080c280 f i ColladaModel.obj
 0001:0000b450       ?size@?$vector@VTriangle@@V?$allocator@VTriangle@@@std@@@std@@QBEIXZ 6080c450 f i ColladaModel.obj
 0001:0000b490       ??A?$vector@VTriangle@@V?$allocator@VTriangle@@@std@@@std@@QAEAAVTriangle@@I@Z 6080c490 f i ColladaModel.obj
 0001:0000b5c0       ?push_back@?$vector@VTriangle@@V?$allocator@VTriangle@@@std@@@std@@QAEXABVTriangle@@@Z 6080c5c0 f i ColladaModel.obj
 0001:0000b6f0       ??0?$vector@VColMesh@@V?$allocator@VColMesh@@@std@@@std@@QAE@XZ 6080c6f0 f i ColladaModel.obj
 0001:0000b790       ??0?$vector@VColMesh@@V?$allocator@VColMesh@@@std@@@std@@QAE@ABV01@@Z 6080c790 f i ColladaModel.obj
 0001:0000b8e0       ??1?$vector@VColMesh@@V?$allocator@VColMesh@@@std@@@std@@QAE@XZ 6080c8e0 f i ColladaModel.obj
 0001:0000b960       ??4?$vector@VColMesh@@V?$allocator@VColMesh@@@std@@@std@@QAEAAV01@ABV01@@Z 6080c960 f i ColladaModel.obj
 0001:0000bb30       ?size@?$vector@VColMesh@@V?$allocator@VColMesh@@@std@@@std@@QBEIXZ 6080cb30 f i ColladaModel.obj
 0001:0000bb70       ??A?$vector@VColMesh@@V?$allocator@VColMesh@@@std@@@std@@QAEAAVColMesh@@I@Z 6080cb70 f i ColladaModel.obj
 0001:0000bca0       ?back@?$vector@VColMesh@@V?$allocator@VColMesh@@@std@@@std@@QAEAAVColMesh@@XZ 6080cca0 f i ColladaModel.obj
 0001:0000bd90       ?push_back@?$vector@VColMesh@@V?$allocator@VColMesh@@@std@@@std@@QAEXABVColMesh@@@Z 6080cd90 f i ColladaModel.obj
 0001:0000bec0       ??1?$_Tree_val@V?$_Tmap_traits@PADUtextStruct@@U?$less@PAD@std@@V?$allocator@U?$pair@QADUtextStruct@@@std@@@3@$0A@@std@@@std@@QAE@XZ 6080cec0 f i ColladaModel.obj
 0001:0000bf00       ??1iterator@?$_Tree@V?$_Tmap_traits@PADUtextStruct@@U?$less@PAD@std@@V?$allocator@U?$pair@QADUtextStruct@@@std@@@3@$0A@@std@@@std@@QAE@XZ 6080cf00 f i ColladaModel.obj
 0001:0000bf40       ??0const_iterator@?$_Tree@V?$_Tmap_traits@PADUtextStruct@@U?$less@PAD@std@@V?$allocator@U?$pair@QADUtextStruct@@@std@@@3@$0A@@std@@@std@@QAE@ABV012@@Z 6080cf40 f i ColladaModel.obj
 0001:0000bfa0       ??1const_iterator@?$_Tree@V?$_Tmap_traits@PADUtextStruct@@U?$less@PAD@std@@V?$allocator@U?$pair@QADUtextStruct@@@std@@@3@$0A@@std@@@std@@QAE@XZ 6080cfa0 f i ColladaModel.obj
 0001:0000bfe0       ??1?$_Vector_val@VSource@@V?$allocator@VSource@@@std@@@std@@QAE@XZ 6080cfe0 f i ColladaModel.obj
 0001:0000c020       ??1?$_Vector_const_iterator@VSource@@V?$allocator@VSource@@@std@@@std@@QAE@XZ 6080d020 f i ColladaModel.obj
 0001:0000c060       ??1?$_Vector_iterator@VSource@@V?$allocator@VSource@@@std@@@std@@QAE@XZ 6080d060 f i ColladaModel.obj
 0001:0000c0a0       ??0?$_Vector_const_iterator@VSource@@V?$allocator@VSource@@@std@@@std@@QAE@ABV01@@Z 6080d0a0 f i ColladaModel.obj
 0001:0000c100       ??1?$_Vector_val@VTriangle@@V?$allocator@VTriangle@@@std@@@std@@QAE@XZ 6080d100 f i ColladaModel.obj
 0001:0000c140       ??1?$_Vector_const_iterator@VTriangle@@V?$allocator@VTriangle@@@std@@@std@@QAE@XZ 6080d140 f i ColladaModel.obj
 0001:0000c180       ??1?$_Vector_iterator@VTriangle@@V?$allocator@VTriangle@@@std@@@std@@QAE@XZ 6080d180 f i ColladaModel.obj
 0001:0000c1c0       ??0?$_Vector_const_iterator@VTriangle@@V?$allocator@VTriangle@@@std@@@std@@QAE@ABV01@@Z 6080d1c0 f i ColladaModel.obj
 0001:0000c220       ??1?$_Vector_val@VColMesh@@V?$allocator@VColMesh@@@std@@@std@@QAE@XZ 6080d220 f i ColladaModel.obj
 0001:0000c260       ??1?$_Vector_const_iterator@VColMesh@@V?$allocator@VColMesh@@@std@@@std@@QAE@XZ 6080d260 f i ColladaModel.obj
 0001:0000c2a0       ??1?$_Vector_iterator@VColMesh@@V?$allocator@VColMesh@@@std@@@std@@QAE@XZ 6080d2a0 f i ColladaModel.obj
 0001:0000c2e0       ??0?$_Vector_const_iterator@VColMesh@@V?$allocator@VColMesh@@@std@@@std@@QAE@ABV01@@Z 6080d2e0 f i ColladaModel.obj
 0001:0000c340       ??1?$_Tree_ptr@V?$_Tmap_traits@PADUtextStruct@@U?$less@PAD@std@@V?$allocator@U?$pair@QADUtextStruct@@@std@@@3@$0A@@std@@@std@@QAE@XZ 6080d340 f i ColladaModel.obj
 0001:0000c380       ??0?$_Bidit@U?$pair@QADUtextStruct@@@std@@HPBU12@ABU12@@std@@QAE@ABU01@@Z 6080d380 f i ColladaModel.obj
 0001:0000c3d0       ??1?$_Bidit@U?$pair@QADUtextStruct@@@std@@HPBU12@ABU12@@std@@QAE@XZ 6080d3d0 f i ColladaModel.obj
 0001:0000c410       ??1?$_Ranit@VSource@@HPBV1@ABV1@@std@@QAE@XZ 6080d410 f i ColladaModel.obj
 0001:0000c450       ??0?$_Ranit@VSource@@HPBV1@ABV1@@std@@QAE@ABU01@@Z 6080d450 f i ColladaModel.obj
 0001:0000c4a0       ??1?$_Ranit@VTriangle@@HPBV1@ABV1@@std@@QAE@XZ 6080d4a0 f i ColladaModel.obj
 0001:0000c4e0       ??0?$_Ranit@VTriangle@@HPBV1@ABV1@@std@@QAE@ABU01@@Z 6080d4e0 f i ColladaModel.obj
 0001:0000c530       ??1?$_Ranit@VColMesh@@HPBV1@ABV1@@std@@QAE@XZ 6080d530 f i ColladaModel.obj
 0001:0000c570       ??0?$_Ranit@VColMesh@@HPBV1@ABV1@@std@@QAE@ABU01@@Z 6080d570 f i ColladaModel.obj
 0001:0000c5c0       ??1?$_Tree_nod@V?$_Tmap_traits@PADUtextStruct@@U?$less@PAD@std@@V?$allocator@U?$pair@QADUtextStruct@@@std@@@3@$0A@@std@@@std@@QAE@XZ 6080d5c0 f i ColladaModel.obj
 0001:0000c600       ??0?$_Iterator_with_base@Ubidirectional_iterator_tag@std@@U?$pair@QADUtextStruct@@@2@HPBU32@ABU32@V_Iterator_base@2@@std@@QAE@ABU01@@Z 6080d600 f i ColladaModel.obj
 0001:0000c650       ??0_Iterator_base@std@@QAE@ABV01@@Z 6080d650 f i ColladaModel.obj
 0001:0000c6b0       ??4_Iterator_base@std@@QAEAAV01@ABV01@@Z 6080d6b0 f i ColladaModel.obj
 0001:0000c7a0       ?_Adopt@_Iterator_base@std@@QAEXPBV_Container_base_secure@2@@Z 6080d7a0 f i ColladaModel.obj
 0001:0000c8a0       ?_Orphan_me@_Iterator_base@std@@QAEXXZ 6080d8a0 f i ColladaModel.obj
 0001:0000c950       ??1?$_Iterator_with_base@Ubidirectional_iterator_tag@std@@U?$pair@QADUtextStruct@@@2@HPBU32@ABU32@V_Iterator_base@2@@std@@QAE@XZ 6080d950 f i ColladaModel.obj
 0001:0000c990       ??1_Iterator_base@std@@QAE@XZ 6080d990 f i ColladaModel.obj
 0001:0000ca60       ??1?$_Iterator_with_base@Urandom_access_iterator_tag@std@@VSource@@HPBV3@ABV3@V_Iterator_base@2@@std@@QAE@XZ 6080da60 f i ColladaModel.obj
 0001:0000caa0       ??0?$_Iterator_with_base@Urandom_access_iterator_tag@std@@VSource@@HPBV3@ABV3@V_Iterator_base@2@@std@@QAE@ABU01@@Z 6080daa0 f i ColladaModel.obj
 0001:0000caf0       ??1?$_Iterator_with_base@Urandom_access_iterator_tag@std@@VTriangle@@HPBV3@ABV3@V_Iterator_base@2@@std@@QAE@XZ 6080daf0 f i ColladaModel.obj
 0001:0000cb30       ??0?$_Iterator_with_base@Urandom_access_iterator_tag@std@@VTriangle@@HPBV3@ABV3@V_Iterator_base@2@@std@@QAE@ABU01@@Z 6080db30 f i ColladaModel.obj
 0001:0000cb80       ??1?$_Iterator_with_base@Urandom_access_iterator_tag@std@@VColMesh@@HPBV3@ABV3@V_Iterator_base@2@@std@@QAE@XZ 6080db80 f i ColladaModel.obj
 0001:0000cbc0       ??0?$_Iterator_with_base@Urandom_access_iterator_tag@std@@VColMesh@@HPBV3@ABV3@V_Iterator_base@2@@std@@QAE@ABU01@@Z 6080dbc0 f i ColladaModel.obj
 0001:0000cc10       ??1?$_Tmap_traits@PADUtextStruct@@U?$less@PAD@std@@V?$allocator@U?$pair@QADUtextStruct@@@std@@@3@$0A@@std@@QAE@XZ 6080dc10 f i ColladaModel.obj
 0001:0000cc50       ?begin@?$_Tree@V?$_Tmap_traits@PADUtextStruct@@U?$less@PAD@std@@V?$allocator@U?$pair@QADUtextStruct@@@std@@@3@$0A@@std@@@std@@QAE?AViterator@12@XZ 6080dc50 f i ColladaModel.obj
 0001:0000ccc0       ?end@?$_Tree@V?$_Tmap_traits@PADUtextStruct@@U?$less@PAD@std@@V?$allocator@U?$pair@QADUtextStruct@@@std@@@3@$0A@@std@@@std@@QAE?AViterator@12@XZ 6080dcc0 f i ColladaModel.obj
 0001:0000cd30       ?get_allocator@?$_Tree@V?$_Tmap_traits@PADUtextStruct@@U?$less@PAD@std@@V?$allocator@U?$pair@QADUtextStruct@@@std@@@3@$0A@@std@@@std@@QBE?AV?$allocator@U?$pair@QADUtextStruct@@@std@@@2@XZ 6080dd30 f i ColladaModel.obj
 0001:0000cd80       ?key_comp@?$_Tree@V?$_Tmap_traits@PADUtextStruct@@U?$less@PAD@std@@V?$allocator@U?$pair@QADUtextStruct@@@std@@@3@$0A@@std@@@std@@QBE?AU?$less@PAD@2@XZ 6080dd80 f i ColladaModel.obj
 0001:0000cdb0       ?erase@?$_Tree@V?$_Tmap_traits@PADUtextStruct@@U?$less@PAD@std@@V?$allocator@U?$pair@QADUtextStruct@@@std@@@3@$0A@@std@@@std@@QAE?AViterator@12@Vconst_iterator@12@0@Z 6080ddb0 f i ColladaModel.obj
 0001:0000d040       ?_Copy@?$_Tree@V?$_Tmap_traits@PADUtextStruct@@U?$less@PAD@std@@V?$allocator@U?$pair@QADUtextStruct@@@std@@@3@$0A@@std@@@std@@IAEXABV12@@Z 6080e040 f i ColladaModel.obj
 0001:0000d130       ?_Init@?$_Tree@V?$_Tmap_traits@PADUtextStruct@@U?$less@PAD@std@@V?$allocator@U?$pair@QADUtextStruct@@@std@@@3@$0A@@std@@@std@@IAEXXZ 6080e130 f i ColladaModel.obj
 0001:0000d1d0       ?_Tidy@?$_Tree@V?$_Tmap_traits@PADUtextStruct@@U?$less@PAD@std@@V?$allocator@U?$pair@QADUtextStruct@@@std@@@3@$0A@@std@@@std@@IAEXXZ 6080e1d0 f i ColladaModel.obj
 0001:0000d390       ??0?$_Tree_val@V?$_Tmap_traits@PADUtextStruct@@U?$less@PAD@std@@V?$allocator@U?$pair@QADUtextStruct@@@std@@@3@$0A@@std@@@std@@IAE@ABU?$less@PAD@1@V?$allocator@U?$pair@QADUtextStruct@@@std@@@1@@Z 6080e390 f i ColladaModel.obj
 0001:0000d400       ??1?$_Container_base_aux_alloc_empty@V?$allocator@U?$pair@QADUtextStruct@@@std@@@std@@@std@@IAE@XZ 6080e400 f i ColladaModel.obj
 0001:0000d450       ?capacity@?$vector@VSource@@V?$allocator@VSource@@@std@@@std@@QBEIXZ 6080e450 f i ColladaModel.obj
 0001:0000d4b0       ?begin@?$vector@VSource@@V?$allocator@VSource@@@std@@@std@@QBE?AV?$_Vector_const_iterator@VSource@@V?$allocator@VSource@@@std@@@2@XZ 6080e4b0 f i ColladaModel.obj
 0001:0000d520       ?end@?$vector@VSource@@V?$allocator@VSource@@@std@@@std@@QAE?AV?$_Vector_iterator@VSource@@V?$allocator@VSource@@@std@@@2@XZ 6080e520 f i ColladaModel.obj
 0001:0000d590       ?end@?$vector@VSource@@V?$allocator@VSource@@@std@@@std@@QBE?AV?$_Vector_const_iterator@VSource@@V?$allocator@VSource@@@std@@@2@XZ 6080e590 f i ColladaModel.obj
 0001:0000d600       ?insert@?$vector@VSource@@V?$allocator@VSource@@@std@@@std@@QAE?AV?$_Vector_iterator@VSource@@V?$allocator@VSource@@@std@@@2@V?$_Vector_const_iterator@VSource@@V?$allocator@VSource@@@std@@@2@ABVSource@@@Z 6080e600 f i ColladaModel.obj
 0001:0000d790       ?clear@?$vector@VSource@@V?$allocator@VSource@@@std@@@std@@QAEXXZ 6080e790 f i ColladaModel.obj
 0001:0000d8d0       ?_Buy@?$vector@VSource@@V?$allocator@VSource@@@std@@@std@@IAE_NI@Z 6080e8d0 f i ColladaModel.obj
 0001:0000d980       ?_Destroy@?$vector@VSource@@V?$allocator@VSource@@@std@@@std@@IAEXPAVSource@@0@Z 6080e980 f i ColladaModel.obj
 0001:0000d9d0       ?_Tidy@?$vector@VSource@@V?$allocator@VSource@@@std@@@std@@IAEXXZ 6080e9d0 f i ColladaModel.obj
 0001:0000da80       ?_Ufill@?$vector@VSource@@V?$allocator@VSource@@@std@@@std@@IAEPAVSource@@PAV3@IABV3@@Z 6080ea80 f i ColladaModel.obj
 0001:0000dae0       ?_Orphan_range@?$vector@VSource@@V?$allocator@VSource@@@std@@@std@@IBEXPAVSource@@0@Z 6080eae0 f i ColladaModel.obj
 0001:0000dbc0       ??0?$_Vector_val@VSource@@V?$allocator@VSource@@@std@@@std@@IAE@V?$allocator@VSource@@@1@@Z 6080ebc0 f i ColladaModel.obj
 0001:0000dc30       ??1?$_Container_base_aux_alloc_empty@V?$allocator@VSource@@@std@@@std@@IAE@XZ 6080ec30 f i ColladaModel.obj
 0001:0000dc80       ??0?$allocator@VSource@@@std@@QAE@XZ 6080ec80 f i ColladaModel.obj
 0001:0000dcb0       ??0?$allocator@VSource@@@std@@QAE@ABV01@@Z 6080ecb0 f i ColladaModel.obj
 0001:0000dce0       ?deallocate@?$allocator@VSource@@@std@@QAEXPAVSource@@I@Z 6080ece0 f i ColladaModel.obj
 0001:0000dd30       ?capacity@?$vector@VTriangle@@V?$allocator@VTriangle@@@std@@@std@@QBEIXZ 6080ed30 f i ColladaModel.obj
 0001:0000dd90       ?begin@?$vector@VTriangle@@V?$allocator@VTriangle@@@std@@@std@@QBE?AV?$_Vector_const_iterator@VTriangle@@V?$allocator@VTriangle@@@std@@@2@XZ 6080ed90 f i ColladaModel.obj
 0001:0000de00       ?end@?$vector@VTriangle@@V?$allocator@VTriangle@@@std@@@std@@QAE?AV?$_Vector_iterator@VTriangle@@V?$allocator@VTriangle@@@std@@@2@XZ 6080ee00 f i ColladaModel.obj
 0001:0000de70       ?end@?$vector@VTriangle@@V?$allocator@VTriangle@@@std@@@std@@QBE?AV?$_Vector_const_iterator@VTriangle@@V?$allocator@VTriangle@@@std@@@2@XZ 6080ee70 f i ColladaModel.obj
 0001:0000dee0       ?insert@?$vector@VTriangle@@V?$allocator@VTriangle@@@std@@@std@@QAE?AV?$_Vector_iterator@VTriangle@@V?$allocator@VTriangle@@@std@@@2@V?$_Vector_const_iterator@VTriangle@@V?$allocator@VTriangle@@@std@@@2@ABVTriangle@@@Z 6080eee0 f i ColladaModel.obj
 0001:0000e070       ?clear@?$vector@VTriangle@@V?$allocator@VTriangle@@@std@@@std@@QAEXXZ 6080f070 f i ColladaModel.obj
 0001:0000e1b0       ?_Buy@?$vector@VTriangle@@V?$allocator@VTriangle@@@std@@@std@@IAE_NI@Z 6080f1b0 f i ColladaModel.obj
 0001:0000e260       ?_Destroy@?$vector@VTriangle@@V?$allocator@VTriangle@@@std@@@std@@IAEXPAVTriangle@@0@Z 6080f260 f i ColladaModel.obj
 0001:0000e2b0       ?_Tidy@?$vector@VTriangle@@V?$allocator@VTriangle@@@std@@@std@@IAEXXZ 6080f2b0 f i ColladaModel.obj
 0001:0000e360       ?_Ufill@?$vector@VTriangle@@V?$allocator@VTriangle@@@std@@@std@@IAEPAVTriangle@@PAV3@IABV3@@Z 6080f360 f i ColladaModel.obj
 0001:0000e3c0       ?_Orphan_range@?$vector@VTriangle@@V?$allocator@VTriangle@@@std@@@std@@IBEXPAVTriangle@@0@Z 6080f3c0 f i ColladaModel.obj
 0001:0000e4a0       ??0?$_Vector_val@VTriangle@@V?$allocator@VTriangle@@@std@@@std@@IAE@V?$allocator@VTriangle@@@1@@Z 6080f4a0 f i ColladaModel.obj
 0001:0000e510       ??1?$_Container_base_aux_alloc_empty@V?$allocator@VTriangle@@@std@@@std@@IAE@XZ 6080f510 f i ColladaModel.obj
 0001:0000e560       ??0?$allocator@VTriangle@@@std@@QAE@XZ 6080f560 f i ColladaModel.obj
 0001:0000e590       ??0?$allocator@VTriangle@@@std@@QAE@ABV01@@Z 6080f590 f i ColladaModel.obj
 0001:0000e5c0       ?deallocate@?$allocator@VTriangle@@@std@@QAEXPAVTriangle@@I@Z 6080f5c0 f i ColladaModel.obj
 0001:0000e610       ?capacity@?$vector@VColMesh@@V?$allocator@VColMesh@@@std@@@std@@QBEIXZ 6080f610 f i ColladaModel.obj
 0001:0000e670       ?begin@?$vector@VColMesh@@V?$allocator@VColMesh@@@std@@@std@@QBE?AV?$_Vector_const_iterator@VColMesh@@V?$allocator@VColMesh@@@std@@@2@XZ 6080f670 f i ColladaModel.obj
 0001:0000e6e0       ?end@?$vector@VColMesh@@V?$allocator@VColMesh@@@std@@@std@@QAE?AV?$_Vector_iterator@VColMesh@@V?$allocator@VColMesh@@@std@@@2@XZ 6080f6e0 f i ColladaModel.obj
 0001:0000e750       ?end@?$vector@VColMesh@@V?$allocator@VColMesh@@@std@@@std@@QBE?AV?$_Vector_const_iterator@VColMesh@@V?$allocator@VColMesh@@@std@@@2@XZ 6080f750 f i ColladaModel.obj
 0001:0000e7c0       ?insert@?$vector@VColMesh@@V?$allocator@VColMesh@@@std@@@std@@QAE?AV?$_Vector_iterator@VColMesh@@V?$allocator@VColMesh@@@std@@@2@V?$_Vector_const_iterator@VColMesh@@V?$allocator@VColMesh@@@std@@@2@ABVColMesh@@@Z 6080f7c0 f i ColladaModel.obj
 0001:0000e950       ?clear@?$vector@VColMesh@@V?$allocator@VColMesh@@@std@@@std@@QAEXXZ 6080f950 f i ColladaModel.obj
 0001:0000ea90       ?_Buy@?$vector@VColMesh@@V?$allocator@VColMesh@@@std@@@std@@IAE_NI@Z 6080fa90 f i ColladaModel.obj
 0001:0000eb40       ?_Destroy@?$vector@VColMesh@@V?$allocator@VColMesh@@@std@@@std@@IAEXPAVColMesh@@0@Z 6080fb40 f i ColladaModel.obj
 0001:0000eb90       ?_Tidy@?$vector@VColMesh@@V?$allocator@VColMesh@@@std@@@std@@IAEXXZ 6080fb90 f i ColladaModel.obj
 0001:0000ec40       ?_Ufill@?$vector@VColMesh@@V?$allocator@VColMesh@@@std@@@std@@IAEPAVColMesh@@PAV3@IABV3@@Z 6080fc40 f i ColladaModel.obj
 0001:0000eca0       ?_Orphan_range@?$vector@VColMesh@@V?$allocator@VColMesh@@@std@@@std@@IBEXPAVColMesh@@0@Z 6080fca0 f i ColladaModel.obj
 0001:0000ed80       ??0?$_Vector_val@VColMesh@@V?$allocator@VColMesh@@@std@@@std@@IAE@V?$allocator@VColMesh@@@1@@Z 6080fd80 f i ColladaModel.obj
 0001:0000edf0       ??1?$_Container_base_aux_alloc_empty@V?$allocator@VColMesh@@@std@@@std@@IAE@XZ 6080fdf0 f i ColladaModel.obj
 0001:0000ee40       ??0?$allocator@VColMesh@@@std@@QAE@XZ 6080fe40 f i ColladaModel.obj
 0001:0000ee70       ??0?$allocator@VColMesh@@@std@@QAE@ABV01@@Z 6080fe70 f i ColladaModel.obj
 0001:0000eea0       ?deallocate@?$allocator@VColMesh@@@std@@QAEXPAVColMesh@@I@Z 6080fea0 f i ColladaModel.obj
 0001:0000eef0       ??D?$_Vector_iterator@VSource@@V?$allocator@VSource@@@std@@@std@@QBEAAVSource@@XZ 6080fef0 f i ColladaModel.obj
 0001:0000ef30       ??G?$_Vector_iterator@VSource@@V?$allocator@VSource@@@std@@@std@@QBE?AV01@H@Z 6080ff30 f i ColladaModel.obj
 0001:0000f010       ??D?$_Vector_iterator@VColMesh@@V?$allocator@VColMesh@@@std@@@std@@QBEAAVColMesh@@XZ 60810010 f i ColladaModel.obj
 0001:0000f050       ??G?$_Vector_iterator@VColMesh@@V?$allocator@VColMesh@@@std@@@std@@QBE?AV01@H@Z 60810050 f i ColladaModel.obj
 0001:0000f130       ??0?$_Vector_iterator@VSource@@V?$allocator@VSource@@@std@@@std@@QAE@ABV01@@Z 60810130 f i ColladaModel.obj
 0001:0000f180       ??0?$_Vector_iterator@VColMesh@@V?$allocator@VColMesh@@@std@@@std@@QAE@ABV01@@Z 60810180 f i ColladaModel.obj
 0001:0000f1d0       ?_Isnil@?$_Tree@V?$_Tmap_traits@PADUtextStruct@@U?$less@PAD@std@@V?$allocator@U?$pair@QADUtextStruct@@@std@@@3@$0A@@std@@@std@@KAAADPAU_Node@?$_Tree_nod@V?$_Tmap_traits@PADUtextStruct@@U?$less@PAD@std@@V?$allocator@U?$pair@QADUtextStruct@@@std@@@3@$0A@@std@@@2@@Z 608101d0 f i ColladaModel.obj
 0001:0000f200       ?_Left@?$_Tree@V?$_Tmap_traits@PADUtextStruct@@U?$less@PAD@std@@V?$allocator@U?$pair@QADUtextStruct@@@std@@@3@$0A@@std@@@std@@KAAAPAU_Node@?$_Tree_nod@V?$_Tmap_traits@PADUtextStruct@@U?$less@PAD@std@@V?$allocator@U?$pair@QADUtextStruct@@@std@@@3@$0A@@std@@@2@PAU342@@Z 60810200 f i ColladaModel.obj
 0001:0000f230       ?_Parent@?$_Tree@V?$_Tmap_traits@PADUtextStruct@@U?$less@PAD@std@@V?$allocator@U?$pair@QADUtextStruct@@@std@@@3@$0A@@std@@@std@@KAAAPAU_Node@?$_Tree_nod@V?$_Tmap_traits@PADUtextStruct@@U?$less@PAD@std@@V?$allocator@U?$pair@QADUtextStruct@@@std@@@3@$0A@@std@@@2@PAU342@@Z 60810230 f i ColladaModel.obj
 0001:0000f260       ?_Right@?$_Tree@V?$_Tmap_traits@PADUtextStruct@@U?$less@PAD@std@@V?$allocator@U?$pair@QADUtextStruct@@@std@@@3@$0A@@std@@@std@@KAAAPAU_Node@?$_Tree_nod@V?$_Tmap_traits@PADUtextStruct@@U?$less@PAD@std@@V?$allocator@U?$pair@QADUtextStruct@@@std@@@3@$0A@@std@@@2@PAU342@@Z 60810260 f i ColladaModel.obj
 0001:0000f290       ?_Make_iter@?$_Tree@V?$_Tmap_traits@PADUtextStruct@@U?$less@PAD@std@@V?$allocator@U?$pair@QADUtextStruct@@@std@@@3@$0A@@std@@@std@@QBE?AViterator@12@Vconst_iterator@12@@Z 60810290 f i ColladaModel.obj
 0001:0000f370       ?size@?$_Tree@V?$_Tmap_traits@PADUtextStruct@@U?$less@PAD@std@@V?$allocator@U?$pair@QADUtextStruct@@@std@@@3@$0A@@std@@@std@@QBEIXZ 60810370 f i ColladaModel.obj
 0001:0000f3a0       ?erase@?$_Tree@V?$_Tmap_traits@PADUtextStruct@@U?$less@PAD@std@@V?$allocator@U?$pair@QADUtextStruct@@@std@@@3@$0A@@std@@@std@@QAE?AViterator@12@Vconst_iterator@12@@Z 608103a0 f i ColladaModel.obj
 0001:0000fbf0       ?clear@?$_Tree@V?$_Tmap_traits@PADUtextStruct@@U?$less@PAD@std@@V?$allocator@U?$pair@QADUtextStruct@@@std@@@3@$0A@@std@@@std@@QAEXXZ 60810bf0 f i ColladaModel.obj
 0001:0000fc90       ?_Copy@?$_Tree@V?$_Tmap_traits@PADUtextStruct@@U?$less@PAD@std@@V?$allocator@U?$pair@QADUtextStruct@@@std@@@3@$0A@@std@@@std@@IAEPAU_Node@?$_Tree_nod@V?$_Tmap_traits@PADUtextStruct@@U?$less@PAD@std@@V?$allocator@U?$pair@QADUtextStruct@@@std@@@3@$0A@@std@@@2@PAU342@0@Z 60810c90 f i ColladaModel.obj
 0001:0000fe40       ?_Lmost@?$_Tree@V?$_Tmap_traits@PADUtextStruct@@U?$less@PAD@std@@V?$allocator@U?$pair@QADUtextStruct@@@std@@@3@$0A@@std@@@std@@IBEAAPAU_Node@?$_Tree_nod@V?$_Tmap_traits@PADUtextStruct@@U?$less@PAD@std@@V?$allocator@U?$pair@QADUtextStruct@@@std@@@3@$0A@@std@@@2@XZ 60810e40 f i ColladaModel.obj
 0001:0000fe90       ?_Max@?$_Tree@V?$_Tmap_traits@PADUtextStruct@@U?$less@PAD@std@@V?$allocator@U?$pair@QADUtextStruct@@@std@@@3@$0A@@std@@@std@@KAPAU_Node@?$_Tree_nod@V?$_Tmap_traits@PADUtextStruct@@U?$less@PAD@std@@V?$allocator@U?$pair@QADUtextStruct@@@std@@@3@$0A@@std@@@2@PAU342@@Z 60810e90 f i ColladaModel.obj
 0001:0000ff00       ?_Min@?$_Tree@V?$_Tmap_traits@PADUtextStruct@@U?$less@PAD@std@@V?$allocator@U?$pair@QADUtextStruct@@@std@@@3@$0A@@std@@@std@@KAPAU_Node@?$_Tree_nod@V?$_Tmap_traits@PADUtextStruct@@U?$less@PAD@std@@V?$allocator@U?$pair@QADUtextStruct@@@std@@@3@$0A@@std@@@2@PAU342@@Z 60810f00 f i ColladaModel.obj
 0001:0000ff70       ?_Rmost@?$_Tree@V?$_Tmap_traits@PADUtextStruct@@U?$less@PAD@std@@V?$allocator@U?$pair@QADUtextStruct@@@std@@@3@$0A@@std@@@std@@IBEAAPAU_Node@?$_Tree_nod@V?$_Tmap_traits@PADUtextStruct@@U?$less@PAD@std@@V?$allocator@U?$pair@QADUtextStruct@@@std@@@3@$0A@@std@@@2@XZ 60810f70 f i ColladaModel.obj
 0001:0000ffc0       ?_Root@?$_Tree@V?$_Tmap_traits@PADUtextStruct@@U?$less@PAD@std@@V?$allocator@U?$pair@QADUtextStruct@@@std@@@3@$0A@@std@@@std@@IBEAAPAU_Node@?$_Tree_nod@V?$_Tmap_traits@PADUtextStruct@@U?$less@PAD@std@@V?$allocator@U?$pair@QADUtextStruct@@@std@@@3@$0A@@std@@@2@XZ 60810fc0 f i ColladaModel.obj
 0001:00010010       ?_Buynode@?$_Tree@V?$_Tmap_traits@PADUtextStruct@@U?$less@PAD@std@@V?$allocator@U?$pair@QADUtextStruct@@@std@@@3@$0A@@std@@@std@@IAEPAU_Node@?$_Tree_nod@V?$_Tmap_traits@PADUtextStruct@@U?$less@PAD@std@@V?$allocator@U?$pair@QADUtextStruct@@@std@@@3@$0A@@std@@@2@XZ 60811010 f i ColladaModel.obj
 0001:000101e0       ??0?$_Tree_ptr@V?$_Tmap_traits@PADUtextStruct@@U?$less@PAD@std@@V?$allocator@U?$pair@QADUtextStruct@@@std@@@3@$0A@@std@@@std@@QAE@ABU?$less@PAD@1@V?$allocator@U?$pair@QADUtextStruct@@@std@@@1@@Z 608111e0 f i ColladaModel.obj
 0001:00010250       ??0?$allocator@U?$pair@QADUtextStruct@@@std@@@std@@QAE@ABV01@@Z 60811250 f i ColladaModel.obj
 0001:00010280       ?deallocate@?$allocator@U_Node@?$_Tree_nod@V?$_Tmap_traits@PADUtextStruct@@U?$less@PAD@std@@V?$allocator@U?$pair@QADUtextStruct@@@std@@@3@$0A@@std@@@std@@@std@@QAEXPAU_Node@?$_Tree_nod@V?$_Tmap_traits@PADUtextStruct@@U?$less@PAD@std@@V?$allocator@U?$pair@QADUtextStruct@@@std@@@3@$0A@@std@@@2@I@Z 60811280 f i ColladaModel.obj
 0001:000102d0       ?destroy@?$allocator@PAU_Node@?$_Tree_nod@V?$_Tmap_traits@PADUtextStruct@@U?$less@PAD@std@@V?$allocator@U?$pair@QADUtextStruct@@@std@@@3@$0A@@std@@@std@@@std@@QAEXPAPAU_Node@?$_Tree_nod@V?$_Tmap_traits@PADUtextStruct@@U?$less@PAD@std@@V?$allocator@U?$pair@QADUtextStruct@@@std@@@3@$0A@@std@@@2@@Z 608112d0 f i ColladaModel.obj
 0001:00010320       ?begin@?$vector@VSource@@V?$allocator@VSource@@@std@@@std@@QAE?AV?$_Vector_iterator@VSource@@V?$allocator@VSource@@@std@@@2@XZ 60811320 f i ColladaModel.obj
 0001:00010390       ?max_size@?$vector@VSource@@V?$allocator@VSource@@@std@@@std@@QBEIXZ 60811390 f i ColladaModel.obj
 0001:000103e0       ?erase@?$vector@VSource@@V?$allocator@VSource@@@std@@@std@@QAE?AV?$_Vector_iterator@VSource@@V?$allocator@VSource@@@std@@@2@V?$_Vector_const_iterator@VSource@@V?$allocator@VSource@@@std@@@2@0@Z 608113e0 f i ColladaModel.obj
 0001:00010600       ?_Insert_n@?$vector@VSource@@V?$allocator@VSource@@@std@@@std@@IAEXV?$_Vector_const_iterator@VSource@@V?$allocator@VSource@@@std@@@2@IABVSource@@@Z 60811600 f i ColladaModel.obj
 0001:00010aa0       ?_Xlen@?$vector@VSource@@V?$allocator@VSource@@@std@@@std@@KAXXZ 60811aa0 f i ColladaModel.obj
 0001:00010b60       ??0length_error@std@@QAE@ABV?$basic_string@DU?$char_traits@D@std@@V?$allocator@D@2@@1@@Z 60811b60 f i ColladaModel.obj
 0001:00010bc0       ??0logic_error@std@@QAE@ABV?$basic_string@DU?$char_traits@D@std@@V?$allocator@D@2@@1@@Z 60811bc0 f i ColladaModel.obj
 0001:00010c70       ?what@logic_error@std@@UBEPBDXZ 60811c70 f i ColladaModel.obj
 0001:00010cc0       ??_Elogic_error@std@@UAEPAXI@Z 60811cc0 f i ColladaModel.obj
 0001:00010cc0       ??_Glogic_error@std@@UAEPAXI@Z 60811cc0 f i ColladaModel.obj
 0001:00010d20       ??1logic_error@std@@UAE@XZ 60811d20 f i ColladaModel.obj
 0001:00010d90       ??1length_error@std@@UAE@XZ 60811d90 f i ColladaModel.obj
 0001:00010de0       ??_Elength_error@std@@UAEPAXI@Z 60811de0 f i ColladaModel.obj
 0001:00010de0       ??_Glength_error@std@@UAEPAXI@Z 60811de0 f i ColladaModel.obj
 0001:00010e40       ??0logic_error@std@@QAE@ABV01@@Z 60811e40 f i ColladaModel.obj
 0001:00010ef0       ??0?$_Container_base_aux_alloc_empty@V?$allocator@VSource@@@std@@@std@@IAE@V?$allocator@VSource@@@1@@Z 60811ef0 f i ColladaModel.obj
 0001:00010f40       ?allocate@?$allocator@VSource@@@std@@QAEPAVSource@@I@Z 60811f40 f i ColladaModel.obj
 0001:00010f90       ?begin@?$vector@VTriangle@@V?$allocator@VTriangle@@@std@@@std@@QAE?AV?$_Vector_iterator@VTriangle@@V?$allocator@VTriangle@@@std@@@2@XZ 60811f90 f i ColladaModel.obj
 0001:00011000       ?max_size@?$vector@VTriangle@@V?$allocator@VTriangle@@@std@@@std@@QBEIXZ 60812000 f i ColladaModel.obj
 0001:00011050       ?erase@?$vector@VTriangle@@V?$allocator@VTriangle@@@std@@@std@@QAE?AV?$_Vector_iterator@VTriangle@@V?$allocator@VTriangle@@@std@@@2@V?$_Vector_const_iterator@VTriangle@@V?$allocator@VTriangle@@@std@@@2@0@Z 60812050 f i ColladaModel.obj
 0001:00011270       ?_Insert_n@?$vector@VTriangle@@V?$allocator@VTriangle@@@std@@@std@@IAEXV?$_Vector_const_iterator@VTriangle@@V?$allocator@VTriangle@@@std@@@2@IABVTriangle@@@Z 60812270 f i ColladaModel.obj
 0001:00011720       ?_Xlen@?$vector@VTriangle@@V?$allocator@VTriangle@@@std@@@std@@KAXXZ 60812720 f i ColladaModel.obj
 0001:000117e0       ??0?$_Container_base_aux_alloc_empty@V?$allocator@VTriangle@@@std@@@std@@IAE@V?$allocator@VTriangle@@@1@@Z 608127e0 f i ColladaModel.obj
 0001:00011830       ?allocate@?$allocator@VTriangle@@@std@@QAEPAVTriangle@@I@Z 60812830 f i ColladaModel.obj
 0001:00011880       ?begin@?$vector@VColMesh@@V?$allocator@VColMesh@@@std@@@std@@QAE?AV?$_Vector_iterator@VColMesh@@V?$allocator@VColMesh@@@std@@@2@XZ 60812880 f i ColladaModel.obj
 0001:000118f0       ?max_size@?$vector@VColMesh@@V?$allocator@VColMesh@@@std@@@std@@QBEIXZ 608128f0 f i ColladaModel.obj
 0001:00011940       ?erase@?$vector@VColMesh@@V?$allocator@VColMesh@@@std@@@std@@QAE?AV?$_Vector_iterator@VColMesh@@V?$allocator@VColMesh@@@std@@@2@V?$_Vector_const_iterator@VColMesh@@V?$allocator@VColMesh@@@std@@@2@0@Z 60812940 f i ColladaModel.obj
 0001:00011b60       ?_Insert_n@?$vector@VColMesh@@V?$allocator@VColMesh@@@std@@@std@@IAEXV?$_Vector_const_iterator@VColMesh@@V?$allocator@VColMesh@@@std@@@2@IABVColMesh@@@Z 60812b60 f i ColladaModel.obj
 0001:00012000       ?_Xlen@?$vector@VColMesh@@V?$allocator@VColMesh@@@std@@@std@@KAXXZ 60813000 f i ColladaModel.obj
 0001:000120c0       ??0?$_Container_base_aux_alloc_empty@V?$allocator@VColMesh@@@std@@@std@@IAE@V?$allocator@VColMesh@@@1@@Z 608130c0 f i ColladaModel.obj
 0001:00012110       ?allocate@?$allocator@VColMesh@@@std@@QAEPAVColMesh@@I@Z 60813110 f i ColladaModel.obj
 0001:00012160       ??0iterator@?$_Tree@V?$_Tmap_traits@PADUtextStruct@@U?$less@PAD@std@@V?$allocator@U?$pair@QADUtextStruct@@@std@@@3@$0A@@std@@@std@@QAE@PAU_Node@?$_Tree_nod@V?$_Tmap_traits@PADUtextStruct@@U?$less@PAD@std@@V?$allocator@U?$pair@QADUtextStruct@@@std@@@3@$0A@@std@@@2@PBV12@@Z 60813160 f i ColladaModel.obj
 0001:000121b0       ??Econst_iterator@?$_Tree@V?$_Tmap_traits@PADUtextStruct@@U?$less@PAD@std@@V?$allocator@U?$pair@QADUtextStruct@@@std@@@3@$0A@@std@@@std@@QAE?AV012@H@Z 608131b0 f i ColladaModel.obj
 0001:00012290       ??8const_iterator@?$_Tree@V?$_Tmap_traits@PADUtextStruct@@U?$less@PAD@std@@V?$allocator@U?$pair@QADUtextStruct@@@std@@@3@$0A@@std@@@std@@QBE_NABV012@@Z 60813290 f i ColladaModel.obj
 0001:00012370       ??9const_iterator@?$_Tree@V?$_Tmap_traits@PADUtextStruct@@U?$less@PAD@std@@V?$allocator@U?$pair@QADUtextStruct@@@std@@@3@$0A@@std@@@std@@QBE_NABV012@@Z 60813370 f i ColladaModel.obj
 0001:000123c0       ??0?$_Vector_const_iterator@VSource@@V?$allocator@VSource@@@std@@@std@@QAE@PAVSource@@PBV_Container_base_secure@1@@Z 608133c0 f i ColladaModel.obj
 0001:000124c0       ??D?$_Vector_const_iterator@VSource@@V?$allocator@VSource@@@std@@@std@@QBEABVSource@@XZ 608134c0 f i ColladaModel.obj
 0001:000125a0       ??G?$_Vector_const_iterator@VSource@@V?$allocator@VSource@@@std@@@std@@QBEHABV01@@Z 608135a0 f i ColladaModel.obj
 0001:00012600       ??0?$_Vector_iterator@VSource@@V?$allocator@VSource@@@std@@@std@@QAE@PAVSource@@PBV_Container_base_secure@1@@Z 60813600 f i ColladaModel.obj
 0001:00012650       ??H?$_Vector_iterator@VSource@@V?$allocator@VSource@@@std@@@std@@QBE?AV01@H@Z 60813650 f i ColladaModel.obj
 0001:00012730       ??Z?$_Vector_iterator@VSource@@V?$allocator@VSource@@@std@@@std@@QAEAAV01@H@Z 60813730 f i ColladaModel.obj
 0001:00012780       ??0?$_Vector_const_iterator@VTriangle@@V?$allocator@VTriangle@@@std@@@std@@QAE@PAVTriangle@@PBV_Container_base_secure@1@@Z 60813780 f i ColladaModel.obj
 0001:00012880       ??G?$_Vector_const_iterator@VTriangle@@V?$allocator@VTriangle@@@std@@@std@@QBEHABV01@@Z 60813880 f i ColladaModel.obj
 0001:000128e0       ??0?$_Vector_iterator@VTriangle@@V?$allocator@VTriangle@@@std@@@std@@QAE@PAVTriangle@@PBV_Container_base_secure@1@@Z 608138e0 f i ColladaModel.obj
 0001:00012930       ??H?$_Vector_iterator@VTriangle@@V?$allocator@VTriangle@@@std@@@std@@QBE?AV01@H@Z 60813930 f i ColladaModel.obj
 0001:00012a10       ??0?$_Vector_const_iterator@VColMesh@@V?$allocator@VColMesh@@@std@@@std@@QAE@PAVColMesh@@PBV_Container_base_secure@1@@Z 60813a10 f i ColladaModel.obj
 0001:00012b10       ??D?$_Vector_const_iterator@VColMesh@@V?$allocator@VColMesh@@@std@@@std@@QBEABVColMesh@@XZ 60813b10 f i ColladaModel.obj
 0001:00012bf0       ??G?$_Vector_const_iterator@VColMesh@@V?$allocator@VColMesh@@@std@@@std@@QBEHABV01@@Z 60813bf0 f i ColladaModel.obj
 0001:00012c50       ??0?$_Vector_iterator@VColMesh@@V?$allocator@VColMesh@@@std@@@std@@QAE@PAVColMesh@@PBV_Container_base_secure@1@@Z 60813c50 f i ColladaModel.obj
 0001:00012ca0       ??H?$_Vector_iterator@VColMesh@@V?$allocator@VColMesh@@@std@@@std@@QBE?AV01@H@Z 60813ca0 f i ColladaModel.obj
 0001:00012d80       ??Z?$_Vector_iterator@VColMesh@@V?$allocator@VColMesh@@@std@@@std@@QAEAAV01@H@Z 60813d80 f i ColladaModel.obj
 0001:00012dd0       ??0iterator@?$_Tree@V?$_Tmap_traits@PADUtextStruct@@U?$less@PAD@std@@V?$allocator@U?$pair@QADUtextStruct@@@std@@@3@$0A@@std@@@std@@QAE@ABV012@@Z 60813dd0 f i ColladaModel.obj
 0001:00012e20       ??0length_error@std@@QAE@ABV01@@Z 60813e20 f i ColladaModel.obj
 0001:00012e80       ??0?$_Ranit@VSource@@HPBV1@ABV1@@std@@QAE@XZ 60813e80 f i ColladaModel.obj
 0001:00012ed0       ??0?$_Ranit@VTriangle@@HPBV1@ABV1@@std@@QAE@XZ 60813ed0 f i ColladaModel.obj
 0001:00012f20       ??0?$_Vector_iterator@VTriangle@@V?$allocator@VTriangle@@@std@@@std@@QAE@ABV01@@Z 60813f20 f i ColladaModel.obj
 0001:00012f70       ??0?$_Ranit@VColMesh@@HPBV1@ABV1@@std@@QAE@XZ 60813f70 f i ColladaModel.obj
 0001:00012fc0       ??0?$_Iterator_with_base@Urandom_access_iterator_tag@std@@VSource@@HPBV3@ABV3@V_Iterator_base@2@@std@@QAE@XZ 60813fc0 f i ColladaModel.obj
 0001:00013010       ??0_Iterator_base@std@@QAE@XZ 60814010 f i ColladaModel.obj
 0001:00013050       ??0?$_Iterator_with_base@Urandom_access_iterator_tag@std@@VTriangle@@HPBV3@ABV3@V_Iterator_base@2@@std@@QAE@XZ 60814050 f i ColladaModel.obj
 0001:000130a0       ??0?$_Iterator_with_base@Urandom_access_iterator_tag@std@@VColMesh@@HPBV3@ABV3@V_Iterator_base@2@@std@@QAE@XZ 608140a0 f i ColladaModel.obj
 0001:000130f0       ?_Color@?$_Tree@V?$_Tmap_traits@PADUtextStruct@@U?$less@PAD@std@@V?$allocator@U?$pair@QADUtextStruct@@@std@@@3@$0A@@std@@@std@@KAAADPAU_Node@?$_Tree_nod@V?$_Tmap_traits@PADUtextStruct@@U?$less@PAD@std@@V?$allocator@U?$pair@QADUtextStruct@@@std@@@3@$0A@@std@@@2@@Z 608140f0 f i ColladaModel.obj
 0001:00013120       ?_Myval@?$_Tree@V?$_Tmap_traits@PADUtextStruct@@U?$less@PAD@std@@V?$allocator@U?$pair@QADUtextStruct@@@std@@@3@$0A@@std@@@std@@KAAAU?$pair@QADUtextStruct@@@2@PAU_Node@?$_Tree_nod@V?$_Tmap_traits@PADUtextStruct@@U?$less@PAD@std@@V?$allocator@U?$pair@QADUtextStruct@@@std@@@3@$0A@@std@@@2@@Z 60814120 f i ColladaModel.obj
 0001:00013150       ?_Erase@?$_Tree@V?$_Tmap_traits@PADUtextStruct@@U?$less@PAD@std@@V?$allocator@U?$pair@QADUtextStruct@@@std@@@3@$0A@@std@@@std@@IAEXPAU_Node@?$_Tree_nod@V?$_Tmap_traits@PADUtextStruct@@U?$less@PAD@std@@V?$allocator@U?$pair@QADUtextStruct@@@std@@@3@$0A@@std@@@2@@Z 60814150 f i ColladaModel.obj
 0001:00013200       ?_Lrotate@?$_Tree@V?$_Tmap_traits@PADUtextStruct@@U?$less@PAD@std@@V?$allocator@U?$pair@QADUtextStruct@@@std@@@3@$0A@@std@@@std@@IAEXPAU_Node@?$_Tree_nod@V?$_Tmap_traits@PADUtextStruct@@U?$less@PAD@std@@V?$allocator@U?$pair@QADUtextStruct@@@std@@@3@$0A@@std@@@2@@Z 60814200 f i ColladaModel.obj
 0001:00013360       ?_Rrotate@?$_Tree@V?$_Tmap_traits@PADUtextStruct@@U?$less@PAD@std@@V?$allocator@U?$pair@QADUtextStruct@@@std@@@3@$0A@@std@@@std@@IAEXPAU_Node@?$_Tree_nod@V?$_Tmap_traits@PADUtextStruct@@U?$less@PAD@std@@V?$allocator@U?$pair@QADUtextStruct@@@std@@@3@$0A@@std@@@2@@Z 60814360 f i ColladaModel.obj
 0001:000134c0       ?_Orphan_ptr@?$_Tree@V?$_Tmap_traits@PADUtextStruct@@U?$less@PAD@std@@V?$allocator@U?$pair@QADUtextStruct@@@std@@@3@$0A@@std@@@std@@IBEXAAV12@PAU_Node@?$_Tree_nod@V?$_Tmap_traits@PADUtextStruct@@U?$less@PAD@std@@V?$allocator@U?$pair@QADUtextStruct@@@std@@@3@$0A@@std@@@2@@Z 608144c0 f i ColladaModel.obj
 0001:000135b0       ?_Buynode@?$_Tree@V?$_Tmap_traits@PADUtextStruct@@U?$less@PAD@std@@V?$allocator@U?$pair@QADUtextStruct@@@std@@@3@$0A@@std@@@std@@IAEPAU_Node@?$_Tree_nod@V?$_Tmap_traits@PADUtextStruct@@U?$less@PAD@std@@V?$allocator@U?$pair@QADUtextStruct@@@std@@@3@$0A@@std@@@2@PAU342@00ABU?$pair@QADUtextStruct@@@2@D@Z 608145b0 f i ColladaModel.obj
 0001:000136d0       ??2@YAPAXIPAX@Z            608146d0 f i ColladaModel.obj
 0001:00013700       ??3@YAXPAX0@Z              60814700 f i ColladaModel.obj
 0001:00013730       ??0?$_Tree_nod@V?$_Tmap_traits@PADUtextStruct@@U?$less@PAD@std@@V?$allocator@U?$pair@QADUtextStruct@@@std@@@3@$0A@@std@@@std@@IAE@ABU?$less@PAD@1@V?$allocator@U?$pair@QADUtextStruct@@@std@@@1@@Z 60814730 f i ColladaModel.obj
 0001:000137a0       ?allocate@?$allocator@U_Node@?$_Tree_nod@V?$_Tmap_traits@PADUtextStruct@@U?$less@PAD@std@@V?$allocator@U?$pair@QADUtextStruct@@@std@@@3@$0A@@std@@@std@@@std@@QAEPAU_Node@?$_Tree_nod@V?$_Tmap_traits@PADUtextStruct@@U?$less@PAD@std@@V?$allocator@U?$pair@QADUtextStruct@@@std@@@3@$0A@@std@@@2@I@Z 608147a0 f i ColladaModel.obj
 0001:000137f0       ?destroy@?$allocator@U_Node@?$_Tree_nod@V?$_Tmap_traits@PADUtextStruct@@U?$less@PAD@std@@V?$allocator@U?$pair@QADUtextStruct@@@std@@@3@$0A@@std@@@std@@@std@@QAEXPAU_Node@?$_Tree_nod@V?$_Tmap_traits@PADUtextStruct@@U?$less@PAD@std@@V?$allocator@U?$pair@QADUtextStruct@@@std@@@3@$0A@@std@@@2@@Z 608147f0 f i ColladaModel.obj
 0001:00013840       ?construct@?$allocator@PAU_Node@?$_Tree_nod@V?$_Tmap_traits@PADUtextStruct@@U?$less@PAD@std@@V?$allocator@U?$pair@QADUtextStruct@@@std@@@3@$0A@@std@@@std@@@std@@QAEXPAPAU_Node@?$_Tree_nod@V?$_Tmap_traits@PADUtextStruct@@U?$less@PAD@std@@V?$allocator@U?$pair@QADUtextStruct@@@std@@@3@$0A@@std@@@2@ABQAU342@@Z 60814840 f i ColladaModel.obj
 0001:00013890       ?_Make_iter@?$vector@VSource@@V?$allocator@VSource@@@std@@@std@@QBE?AV?$_Vector_iterator@VSource@@V?$allocator@VSource@@@std@@@2@V?$_Vector_const_iterator@VSource@@V?$allocator@VSource@@@std@@@2@@Z 60814890 f i ColladaModel.obj
 0001:00013940       ?max_size@?$allocator@VSource@@@std@@QBEIXZ 60814940 f i ColladaModel.obj
 0001:000139a0       ?_Make_iter@?$vector@VTriangle@@V?$allocator@VTriangle@@@std@@@std@@QBE?AV?$_Vector_iterator@VTriangle@@V?$allocator@VTriangle@@@std@@@2@V?$_Vector_const_iterator@VTriangle@@V?$allocator@VTriangle@@@std@@@2@@Z 608149a0 f i ColladaModel.obj
 0001:00013a50       ?max_size@?$allocator@VTriangle@@@std@@QBEIXZ 60814a50 f i ColladaModel.obj
 0001:00013ab0       ?_Make_iter@?$vector@VColMesh@@V?$allocator@VColMesh@@@std@@@std@@QBE?AV?$_Vector_iterator@VColMesh@@V?$allocator@VColMesh@@@std@@@2@V?$_Vector_const_iterator@VColMesh@@V?$allocator@VColMesh@@@std@@@2@@Z 60814ab0 f i ColladaModel.obj
 0001:00013b60       ?max_size@?$allocator@VColMesh@@@std@@QBEIXZ 60814b60 f i ColladaModel.obj
 0001:00013bc0       ??0const_iterator@?$_Tree@V?$_Tmap_traits@PADUtextStruct@@U?$less@PAD@std@@V?$allocator@U?$pair@QADUtextStruct@@@std@@@3@$0A@@std@@@std@@QAE@PAU_Node@?$_Tree_nod@V?$_Tmap_traits@PADUtextStruct@@U?$less@PAD@std@@V?$allocator@U?$pair@QADUtextStruct@@@std@@@3@$0A@@std@@@2@PBV12@@Z 60814bc0 f i ColladaModel.obj
 0001:00013c60       ??Econst_iterator@?$_Tree@V?$_Tmap_traits@PADUtextStruct@@U?$less@PAD@std@@V?$allocator@U?$pair@QADUtextStruct@@@std@@@3@$0A@@std@@@std@@QAEAAV012@XZ 60814c60 f i ColladaModel.obj
 0001:00013cb0       ?_Mynode@const_iterator@?$_Tree@V?$_Tmap_traits@PADUtextStruct@@U?$less@PAD@std@@V?$allocator@U?$pair@QADUtextStruct@@@std@@@3@$0A@@std@@@std@@QBEPAU_Node@?$_Tree_nod@V?$_Tmap_traits@PADUtextStruct@@U?$less@PAD@std@@V?$allocator@U?$pair@QADUtextStruct@@@std@@@3@$0A@@std@@@3@XZ 60814cb0 f i ColladaModel.obj
 0001:00013ce0       ??9?$_Vector_const_iterator@VSource@@V?$allocator@VSource@@@std@@@std@@QBE_NABV01@@Z 60814ce0 f i ColladaModel.obj
 0001:00013d30       ??M?$_Vector_const_iterator@VSource@@V?$allocator@VSource@@@std@@@std@@QBE_NABV01@@Z 60814d30 f i ColladaModel.obj
 0001:00013d90       ?_Compat@?$_Vector_const_iterator@VSource@@V?$allocator@VSource@@@std@@@std@@QBEXABV12@@Z 60814d90 f i ColladaModel.obj
 0001:00013e60       ??Y?$_Vector_iterator@VSource@@V?$allocator@VSource@@@std@@@std@@QAEAAV01@H@Z 60814e60 f i ColladaModel.obj
 0001:00013eb0       ??9?$_Vector_const_iterator@VTriangle@@V?$allocator@VTriangle@@@std@@@std@@QBE_NABV01@@Z 60814eb0 f i ColladaModel.obj
 0001:00013f00       ??M?$_Vector_const_iterator@VTriangle@@V?$allocator@VTriangle@@@std@@@std@@QBE_NABV01@@Z 60814f00 f i ColladaModel.obj
 0001:00013f60       ?_Compat@?$_Vector_const_iterator@VTriangle@@V?$allocator@VTriangle@@@std@@@std@@QBEXABV12@@Z 60814f60 f i ColladaModel.obj
 0001:00014030       ??Y?$_Vector_iterator@VTriangle@@V?$allocator@VTriangle@@@std@@@std@@QAEAAV01@H@Z 60815030 f i ColladaModel.obj
 0001:00014080       ??9?$_Vector_const_iterator@VColMesh@@V?$allocator@VColMesh@@@std@@@std@@QBE_NABV01@@Z 60815080 f i ColladaModel.obj
 0001:000140d0       ??M?$_Vector_const_iterator@VColMesh@@V?$allocator@VColMesh@@@std@@@std@@QBE_NABV01@@Z 608150d0 f i ColladaModel.obj
 0001:00014130       ?_Compat@?$_Vector_const_iterator@VColMesh@@V?$allocator@VColMesh@@@std@@@std@@QBEXABV12@@Z 60815130 f i ColladaModel.obj
 0001:00014200       ??Y?$_Vector_iterator@VColMesh@@V?$allocator@VColMesh@@@std@@@std@@QAEAAV01@H@Z 60815200 f i ColladaModel.obj
 0001:00014250       ??0?$_Bidit@U?$pair@QADUtextStruct@@@std@@HPBU12@ABU12@@std@@QAE@XZ 60815250 f i ColladaModel.obj
 0001:000142a0       ??0?$_Iterator_with_base@Ubidirectional_iterator_tag@std@@U?$pair@QADUtextStruct@@@2@HPBU32@ABU32@V_Iterator_base@2@@std@@QAE@XZ 608152a0 f i ColladaModel.obj
 0001:000142f0       ??0?$_Tmap_traits@PADUtextStruct@@U?$less@PAD@std@@V?$allocator@U?$pair@QADUtextStruct@@@std@@@3@$0A@@std@@QAE@U?$less@PAD@1@V?$allocator@U?$pair@QADUtextStruct@@@std@@@1@@Z 608152f0 f i ColladaModel.obj
 0001:00014350       ?_Inc@const_iterator@?$_Tree@V?$_Tmap_traits@PADUtextStruct@@U?$less@PAD@std@@V?$allocator@U?$pair@QADUtextStruct@@@std@@@3@$0A@@std@@@std@@QAEXXZ 60815350 f i ColladaModel.obj
 0001:000144c0       ??Y?$_Vector_const_iterator@VSource@@V?$allocator@VSource@@@std@@@std@@QAEAAV01@H@Z 608154c0 f i ColladaModel.obj
 0001:00014600       ?_Getmycont@_Iterator_base@std@@QBEPBV_Container_base_secure@2@XZ 60815600 f i ColladaModel.obj
 0001:00014630       ?_Has_container@_Iterator_base@std@@QBE_NXZ 60815630 f i ColladaModel.obj
 0001:00014670       ??8?$_Vector_const_iterator@VSource@@V?$allocator@VSource@@@std@@@std@@QBE_NABV01@@Z 60815670 f i ColladaModel.obj
 0001:000146d0       ??Y?$_Vector_const_iterator@VTriangle@@V?$allocator@VTriangle@@@std@@@std@@QAEAAV01@H@Z 608156d0 f i ColladaModel.obj
 0001:00014810       ??8?$_Vector_const_iterator@VTriangle@@V?$allocator@VTriangle@@@std@@@std@@QBE_NABV01@@Z 60815810 f i ColladaModel.obj
 0001:00014870       ??Y?$_Vector_const_iterator@VColMesh@@V?$allocator@VColMesh@@@std@@@std@@QAEAAV01@H@Z 60815870 f i ColladaModel.obj
 0001:000149b0       ??8?$_Vector_const_iterator@VColMesh@@V?$allocator@VColMesh@@@std@@@std@@QBE_NABV01@@Z 608159b0 f i ColladaModel.obj
 0001:00014a10       ??0_Node@?$_Tree_nod@V?$_Tmap_traits@PADUtextStruct@@U?$less@PAD@std@@V?$allocator@U?$pair@QADUtextStruct@@@std@@@3@$0A@@std@@@std@@QAE@PAU012@00ABU?$pair@QADUtextStruct@@@2@D@Z 60815a10 f i ColladaModel.obj
 0001:00014a90       ??0?$_Container_base_aux_alloc_empty@V?$allocator@U?$pair@QADUtextStruct@@@std@@@std@@@std@@IAE@V?$allocator@U?$pair@QADUtextStruct@@@std@@@1@@Z 60815a90 f i ColladaModel.obj
 0001:00014ae0       ??$findFirstCharNotInList@$$CBD@?$string@D@core@irr@@QBEHPBDH@Z 60815ae0 f i ColladaModel.obj
 0001:00014b80       ??$findLastCharNotInList@$$CBD@?$string@D@core@irr@@QBEHPBDH@Z 60815b80 f i ColladaModel.obj
 0001:00014c20       ??$_Ucopy@V?$_Vector_const_iterator@VSource@@V?$allocator@VSource@@@std@@@std@@@?$vector@VSource@@V?$allocator@VSource@@@std@@@std@@IAEPAVSource@@V?$_Vector_const_iterator@VSource@@V?$allocator@VSource@@@std@@@1@0PAV2@@Z 60815c20 f i ColladaModel.obj
 0001:00014d20       ??$unchecked_copy@PAVSource@@PAV1@@stdext@@YAPAVSource@@PAV1@00@Z 60815d20 f i ColladaModel.obj
 0001:00014dd0       ??$_Ucopy@PAVSource@@@?$vector@VSource@@V?$allocator@VSource@@@std@@@std@@IAEPAVSource@@PAV2@00@Z 60815dd0 f i ColladaModel.obj
 0001:00014e30       ??$_Ucopy@V?$_Vector_const_iterator@VTriangle@@V?$allocator@VTriangle@@@std@@@std@@@?$vector@VTriangle@@V?$allocator@VTriangle@@@std@@@std@@IAEPAVTriangle@@V?$_Vector_const_iterator@VTriangle@@V?$allocator@VTriangle@@@std@@@1@0PAV2@@Z 60815e30 f i ColladaModel.obj
 0001:00014f30       ??$unchecked_copy@PAVTriangle@@PAV1@@stdext@@YAPAVTriangle@@PAV1@00@Z 60815f30 f i ColladaModel.obj
 0001:00014fe0       ??$_Ucopy@PAVTriangle@@@?$vector@VTriangle@@V?$allocator@VTriangle@@@std@@@std@@IAEPAVTriangle@@PAV2@00@Z 60815fe0 f i ColladaModel.obj
 0001:00015040       ??$_Ucopy@V?$_Vector_const_iterator@VColMesh@@V?$allocator@VColMesh@@@std@@@std@@@?$vector@VColMesh@@V?$allocator@VColMesh@@@std@@@std@@IAEPAVColMesh@@V?$_Vector_const_iterator@VColMesh@@V?$allocator@VColMesh@@@std@@@1@0PAV2@@Z 60816040 f i ColladaModel.obj
 0001:00015140       ??$unchecked_copy@PAVColMesh@@PAV1@@stdext@@YAPAVColMesh@@PAV1@00@Z 60816140 f i ColladaModel.obj
 0001:000151f0       ??$_Ucopy@PAVColMesh@@@?$vector@VColMesh@@V?$allocator@VColMesh@@@std@@@std@@IAEPAVColMesh@@PAV2@00@Z 608161f0 f i ColladaModel.obj
 0001:00015250       ??$_Destroy_range@V?$allocator@VSource@@@std@@@std@@YAXPAVSource@@0AAV?$allocator@VSource@@@0@@Z 60816250 f i ColladaModel.obj
 0001:000152c0       ??$unchecked_uninitialized_fill_n@PAVSource@@IV1@V?$allocator@VSource@@@std@@@stdext@@YAXPAVSource@@IABV1@AAV?$allocator@VSource@@@std@@@Z 608162c0 f i ColladaModel.obj
 0001:00015340       ??$_Destroy_range@V?$allocator@VTriangle@@@std@@@std@@YAXPAVTriangle@@0AAV?$allocator@VTriangle@@@0@@Z 60816340 f i ColladaModel.obj
 0001:000153b0       ??$unchecked_uninitialized_fill_n@PAVTriangle@@IV1@V?$allocator@VTriangle@@@std@@@stdext@@YAXPAVTriangle@@IABV1@AAV?$allocator@VTriangle@@@std@@@Z 608163b0 f i ColladaModel.obj
 0001:00015430       ??$_Destroy_range@V?$allocator@VColMesh@@@std@@@std@@YAXPAVColMesh@@0AAV?$allocator@VColMesh@@@0@@Z 60816430 f i ColladaModel.obj
 0001:000154a0       ??$unchecked_uninitialized_fill_n@PAVColMesh@@IV1@V?$allocator@VColMesh@@@std@@@stdext@@YAXPAVColMesh@@IABV1@AAV?$allocator@VColMesh@@@std@@@Z 608164a0 f i ColladaModel.obj
 0001:00015520       ??$swap@D@std@@YAXAAD0@Z   60816520 f i ColladaModel.obj
 0001:00015570       ??$?0U?$pair@QADUtextStruct@@@std@@@?$allocator@PAU_Node@?$_Tree_nod@V?$_Tmap_traits@PADUtextStruct@@U?$less@PAD@std@@V?$allocator@U?$pair@QADUtextStruct@@@std@@@3@$0A@@std@@@std@@@std@@QAE@ABV?$allocator@U?$pair@QADUtextStruct@@@std@@@1@@Z 60816570 f i ColladaModel.obj
 0001:000155a0       ??$_Destroy@PAU_Node@?$_Tree_nod@V?$_Tmap_traits@PADUtextStruct@@U?$less@PAD@std@@V?$allocator@U?$pair@QADUtextStruct@@@std@@@3@$0A@@std@@@std@@@std@@YAXPAPAU_Node@?$_Tree_nod@V?$_Tmap_traits@PADUtextStruct@@U?$less@PAD@std@@V?$allocator@U?$pair@QADUtextStruct@@@std@@@3@$0A@@std@@@0@@Z 608165a0 f i ColladaModel.obj
 0001:000155d0       ??$_Umove@PAVSource@@@?$vector@VSource@@V?$allocator@VSource@@@std@@@std@@IAEPAVSource@@PAV2@00@Z 608165d0 f i ColladaModel.obj
 0001:00015630       ??$fill@PAVSource@@V1@@std@@YAXPAVSource@@0ABV1@@Z 60816630 f i ColladaModel.obj
 0001:00015690       ??$_Unchecked_move_backward@PAVSource@@PAV1@@stdext@@YAPAVSource@@PAV1@00@Z 60816690 f i ColladaModel.obj
 0001:00015730       ??$_Allocate@VSource@@@std@@YAPAVSource@@IPAV1@@Z 60816730 f i ColladaModel.obj
 0001:000157b0       ??0bad_alloc@std@@QAE@PBD@Z 608167b0 f i ColladaModel.obj
 0001:00015810       ??1bad_alloc@std@@UAE@XZ   60816810 f i ColladaModel.obj
 0001:00015870       ??_Ebad_alloc@std@@UAEPAXI@Z 60816870 f i ColladaModel.obj
 0001:00015870       ??_Gbad_alloc@std@@UAEPAXI@Z 60816870 f i ColladaModel.obj
 0001:000158d0       ??0bad_alloc@std@@QAE@ABV01@@Z 608168d0 f i ColladaModel.obj
 0001:00015930       ??$_Umove@PAVTriangle@@@?$vector@VTriangle@@V?$allocator@VTriangle@@@std@@@std@@IAEPAVTriangle@@PAV2@00@Z 60816930 f i ColladaModel.obj
 0001:00015990       ??$fill@PAVTriangle@@V1@@std@@YAXPAVTriangle@@0ABV1@@Z 60816990 f i ColladaModel.obj
 0001:000159f0       ??$_Unchecked_move_backward@PAVTriangle@@PAV1@@stdext@@YAPAVTriangle@@PAV1@00@Z 608169f0 f i ColladaModel.obj
 0001:00015a90       ??$_Allocate@VTriangle@@@std@@YAPAVTriangle@@IPAV1@@Z 60816a90 f i ColladaModel.obj
 0001:00015b10       ??$_Umove@PAVColMesh@@@?$vector@VColMesh@@V?$allocator@VColMesh@@@std@@@std@@IAEPAVColMesh@@PAV2@00@Z 60816b10 f i ColladaModel.obj
 0001:00015b70       ??$fill@PAVColMesh@@V1@@std@@YAXPAVColMesh@@0ABV1@@Z 60816b70 f i ColladaModel.obj
 0001:00015bd0       ??$_Unchecked_move_backward@PAVColMesh@@PAV1@@stdext@@YAPAVColMesh@@PAV1@00@Z 60816bd0 f i ColladaModel.obj
 0001:00015c70       ??$_Allocate@VColMesh@@@std@@YAPAVColMesh@@IPAV1@@Z 60816c70 f i ColladaModel.obj
 0001:00015cf0       ??$?0U?$pair@QADUtextStruct@@@std@@@?$allocator@U_Node@?$_Tree_nod@V?$_Tmap_traits@PADUtextStruct@@U?$less@PAD@std@@V?$allocator@U?$pair@QADUtextStruct@@@std@@@3@$0A@@std@@@std@@@std@@QAE@ABV?$allocator@U?$pair@QADUtextStruct@@@std@@@1@@Z 60816cf0 f i ColladaModel.obj
 0001:00015d20       ??$_Allocate@U_Node@?$_Tree_nod@V?$_Tmap_traits@PADUtextStruct@@U?$less@PAD@std@@V?$allocator@U?$pair@QADUtextStruct@@@std@@@3@$0A@@std@@@std@@@std@@YAPAU_Node@?$_Tree_nod@V?$_Tmap_traits@PADUtextStruct@@U?$less@PAD@std@@V?$allocator@U?$pair@QADUtextStruct@@@std@@@3@$0A@@std@@@0@IPAU120@@Z 60816d20 f i ColladaModel.obj
 0001:00015da0       ??$_Destroy@U_Node@?$_Tree_nod@V?$_Tmap_traits@PADUtextStruct@@U?$less@PAD@std@@V?$allocator@U?$pair@QADUtextStruct@@@std@@@3@$0A@@std@@@std@@@std@@YAXPAU_Node@?$_Tree_nod@V?$_Tmap_traits@PADUtextStruct@@U?$less@PAD@std@@V?$allocator@U?$pair@QADUtextStruct@@@std@@@3@$0A@@std@@@0@@Z 60816da0 f i ColladaModel.obj
 0001:00015dd0       ??$_Construct@PAU_Node@?$_Tree_nod@V?$_Tmap_traits@PADUtextStruct@@U?$less@PAD@std@@V?$allocator@U?$pair@QADUtextStruct@@@std@@@3@$0A@@std@@@std@@PAU123@@std@@YAXPAPAU_Node@?$_Tree_nod@V?$_Tmap_traits@PADUtextStruct@@U?$less@PAD@std@@V?$allocator@U?$pair@QADUtextStruct@@@std@@@3@$0A@@std@@@0@ABQAU120@@Z 60816dd0 f i ColladaModel.obj
 0001:00015e50       ??$unchecked_uninitialized_copy@V?$_Vector_const_iterator@VSource@@V?$allocator@VSource@@@std@@@std@@PAVSource@@V?$allocator@VSource@@@2@@stdext@@YAPAVSource@@V?$_Vector_const_iterator@VSource@@V?$allocator@VSource@@@std@@@std@@0PAV1@AAV?$allocator@VSource@@@3@@Z 60816e50 f i ColladaModel.obj
 0001:00015f80       ??$_Checked_base@PAVSource@@@std@@YAPAVSource@@AAPAV1@@Z 60816f80 f i ColladaModel.obj
 0001:00016000       ??$_Iter_random@PAVSource@@PAV1@@std@@YA?AUrandom_access_iterator_tag@0@ABQAVSource@@0@Z 60817000 f i ColladaModel.obj
 0001:00016060       ??$_Ptr_cat@PAVSource@@PAV1@@std@@YA?AU_Nonscalar_ptr_iterator_tag@0@AAPAVSource@@0@Z 60817060 f i ColladaModel.obj
 0001:000160c0       ??$_Copy_opt@PAVSource@@PAV1@@std@@YAPAVSource@@PAV1@00Urandom_access_iterator_tag@0@U_Nonscalar_ptr_iterator_tag@0@U_Range_checked_iterator_tag@0@@Z 608170c0 f i ColladaModel.obj
 0001:00016160       ??$unchecked_uninitialized_copy@PAVSource@@PAV1@V?$allocator@VSource@@@std@@@stdext@@YAPAVSource@@PAV1@00AAV?$allocator@VSource@@@std@@@Z 60817160 f i ColladaModel.obj
 0001:000161f0       ??$unchecked_uninitialized_copy@V?$_Vector_const_iterator@VTriangle@@V?$allocator@VTriangle@@@std@@@std@@PAVTriangle@@V?$allocator@VTriangle@@@2@@stdext@@YAPAVTriangle@@V?$_Vector_const_iterator@VTriangle@@V?$allocator@VTriangle@@@std@@@std@@0PAV1@AAV?$allocator@VTriangle@@@3@@Z 608171f0 f i ColladaModel.obj
 0001:00016320       ??$_Checked_base@PAVTriangle@@@std@@YAPAVTriangle@@AAPAV1@@Z 60817320 f i ColladaModel.obj
 0001:000163a0       ??$_Iter_random@PAVTriangle@@PAV1@@std@@YA?AUrandom_access_iterator_tag@0@ABQAVTriangle@@0@Z 608173a0 f i ColladaModel.obj
 0001:00016400       ??$_Ptr_cat@PAVTriangle@@PAV1@@std@@YA?AU_Nonscalar_ptr_iterator_tag@0@AAPAVTriangle@@0@Z 60817400 f i ColladaModel.obj
 0001:00016460       ??$_Copy_opt@PAVTriangle@@PAV1@@std@@YAPAVTriangle@@PAV1@00Urandom_access_iterator_tag@0@U_Nonscalar_ptr_iterator_tag@0@U_Range_checked_iterator_tag@0@@Z 60817460 f i ColladaModel.obj
 0001:00016500       ??$unchecked_uninitialized_copy@PAVTriangle@@PAV1@V?$allocator@VTriangle@@@std@@@stdext@@YAPAVTriangle@@PAV1@00AAV?$allocator@VTriangle@@@std@@@Z 60817500 f i ColladaModel.obj
 0001:00016590       ??$unchecked_uninitialized_copy@V?$_Vector_const_iterator@VColMesh@@V?$allocator@VColMesh@@@std@@@std@@PAVColMesh@@V?$allocator@VColMesh@@@2@@stdext@@YAPAVColMesh@@V?$_Vector_const_iterator@VColMesh@@V?$allocator@VColMesh@@@std@@@std@@0PAV1@AAV?$allocator@VColMesh@@@3@@Z 60817590 f i ColladaModel.obj
 0001:000166c0       ??$_Checked_base@PAVColMesh@@@std@@YAPAVColMesh@@AAPAV1@@Z 608176c0 f i ColladaModel.obj
 0001:00016740       ??$_Iter_random@PAVColMesh@@PAV1@@std@@YA?AUrandom_access_iterator_tag@0@ABQAVColMesh@@0@Z 60817740 f i ColladaModel.obj
 0001:000167a0       ??$_Ptr_cat@PAVColMesh@@PAV1@@std@@YA?AU_Nonscalar_ptr_iterator_tag@0@AAPAVColMesh@@0@Z 608177a0 f i ColladaModel.obj
 0001:00016800       ??$_Copy_opt@PAVColMesh@@PAV1@@std@@YAPAVColMesh@@PAV1@00Urandom_access_iterator_tag@0@U_Nonscalar_ptr_iterator_tag@0@U_Range_checked_iterator_tag@0@@Z 60817800 f i ColladaModel.obj
 0001:000168a0       ??$unchecked_uninitialized_copy@PAVColMesh@@PAV1@V?$allocator@VColMesh@@@std@@@stdext@@YAPAVColMesh@@PAV1@00AAV?$allocator@VColMesh@@@std@@@Z 608178a0 f i ColladaModel.obj
 0001:00016930       ??$_Destroy_range@V?$allocator@VSource@@@std@@@std@@YAXPAVSource@@0AAV?$allocator@VSource@@@0@U_Nonscalar_ptr_iterator_tag@0@@Z 60817930 f i ColladaModel.obj
 0001:00016990       ??$_Uninit_fill_n@PAVSource@@IV1@V?$allocator@VSource@@@std@@@std@@YAXPAVSource@@IABV1@AAV?$allocator@VSource@@@0@U_Nonscalar_ptr_iterator_tag@0@U_Range_checked_iterator_tag@0@@Z 60817990 f i ColladaModel.obj
 0001:00016a70       ??$_Destroy_range@V?$allocator@VTriangle@@@std@@@std@@YAXPAVTriangle@@0AAV?$allocator@VTriangle@@@0@U_Nonscalar_ptr_iterator_tag@0@@Z 60817a70 f i ColladaModel.obj
 0001:00016ad0       ??$_Uninit_fill_n@PAVTriangle@@IV1@V?$allocator@VTriangle@@@std@@@std@@YAXPAVTriangle@@IABV1@AAV?$allocator@VTriangle@@@0@U_Nonscalar_ptr_iterator_tag@0@U_Range_checked_iterator_tag@0@@Z 60817ad0 f i ColladaModel.obj
 0001:00016bb0       ??$_Destroy_range@V?$allocator@VColMesh@@@std@@@std@@YAXPAVColMesh@@0AAV?$allocator@VColMesh@@@0@U_Nonscalar_ptr_iterator_tag@0@@Z 60817bb0 f i ColladaModel.obj
 0001:00016c10       ??$_Uninit_fill_n@PAVColMesh@@IV1@V?$allocator@VColMesh@@@std@@@std@@YAXPAVColMesh@@IABV1@AAV?$allocator@VColMesh@@@0@U_Nonscalar_ptr_iterator_tag@0@U_Range_checked_iterator_tag@0@@Z 60817c10 f i ColladaModel.obj
 0001:00016cf0       ??$_Unchecked_uninitialized_move@PAVSource@@PAV1@V?$allocator@VSource@@@std@@@stdext@@YAPAVSource@@PAV1@00AAV?$allocator@VSource@@@std@@@Z 60817cf0 f i ColladaModel.obj
 0001:00016d80       ??$_Fill@PAVSource@@V1@@std@@YAXPAVSource@@0ABV1@@Z 60817d80 f i ColladaModel.obj
 0001:00016df0       ??$_Move_cat@PAVSource@@@std@@YA?AU_Undefined_move_tag@0@ABQAVSource@@@Z 60817df0 f i ColladaModel.obj
 0001:00016e50       ??$_Move_backward_opt@PAVSource@@PAV1@Urandom_access_iterator_tag@std@@U_Undefined_move_tag@3@@std@@YAPAVSource@@PAV1@00Urandom_access_iterator_tag@0@U_Undefined_move_tag@0@U_Range_checked_iterator_tag@0@@Z 60817e50 f i ColladaModel.obj
 0001:00016ed0       ??$_Unchecked_uninitialized_move@PAVTriangle@@PAV1@V?$allocator@VTriangle@@@std@@@stdext@@YAPAVTriangle@@PAV1@00AAV?$allocator@VTriangle@@@std@@@Z 60817ed0 f i ColladaModel.obj
 0001:00016f60       ??$_Fill@PAVTriangle@@V1@@std@@YAXPAVTriangle@@0ABV1@@Z 60817f60 f i ColladaModel.obj
 0001:00016fd0       ??$_Move_cat@PAVTriangle@@@std@@YA?AU_Undefined_move_tag@0@ABQAVTriangle@@@Z 60817fd0 f i ColladaModel.obj
 0001:00017030       ??$_Move_backward_opt@PAVTriangle@@PAV1@Urandom_access_iterator_tag@std@@U_Undefined_move_tag@3@@std@@YAPAVTriangle@@PAV1@00Urandom_access_iterator_tag@0@U_Undefined_move_tag@0@U_Range_checked_iterator_tag@0@@Z 60818030 f i ColladaModel.obj
 0001:000170b0       ??$_Unchecked_uninitialized_move@PAVColMesh@@PAV1@V?$allocator@VColMesh@@@std@@@stdext@@YAPAVColMesh@@PAV1@00AAV?$allocator@VColMesh@@@std@@@Z 608180b0 f i ColladaModel.obj
 0001:00017140       ??$_Fill@PAVColMesh@@V1@@std@@YAXPAVColMesh@@0ABV1@@Z 60818140 f i ColladaModel.obj
 0001:000171b0       ??$_Move_cat@PAVColMesh@@@std@@YA?AU_Undefined_move_tag@0@ABQAVColMesh@@@Z 608181b0 f i ColladaModel.obj
 0001:00017210       ??$_Move_backward_opt@PAVColMesh@@PAV1@Urandom_access_iterator_tag@std@@U_Undefined_move_tag@3@@std@@YAPAVColMesh@@PAV1@00Urandom_access_iterator_tag@0@U_Undefined_move_tag@0@U_Range_checked_iterator_tag@0@@Z 60818210 f i ColladaModel.obj
 0001:00017290       ?construct@?$allocator@VSource@@@std@@QAEXPAVSource@@ABV3@@Z 60818290 f i ColladaModel.obj
 0001:000172e0       ?destroy@?$allocator@VSource@@@std@@QAEXPAVSource@@@Z 608182e0 f i ColladaModel.obj
 0001:00017330       ?construct@?$allocator@VTriangle@@@std@@QAEXPAVTriangle@@ABV3@@Z 60818330 f i ColladaModel.obj
 0001:00017380       ?destroy@?$allocator@VTriangle@@@std@@QAEXPAVTriangle@@@Z 60818380 f i ColladaModel.obj
 0001:000173d0       ?construct@?$allocator@VColMesh@@@std@@QAEXPAVColMesh@@ABV3@@Z 608183d0 f i ColladaModel.obj
 0001:00017420       ?destroy@?$allocator@VColMesh@@@std@@QAEXPAVColMesh@@@Z 60818420 f i ColladaModel.obj
 0001:00017470       ??$_Checked_base@V?$_Vector_const_iterator@VSource@@V?$allocator@VSource@@@std@@@std@@@std@@YA?AV?$_Vector_const_iterator@VSource@@V?$allocator@VSource@@@std@@@0@AAV10@@Z 60818470 f i ColladaModel.obj
 0001:00017510       ??$_Ptr_cat@V?$_Vector_const_iterator@VSource@@V?$allocator@VSource@@@std@@@std@@PAVSource@@@std@@YA?AU_Nonscalar_ptr_iterator_tag@0@AAV?$_Vector_const_iterator@VSource@@V?$allocator@VSource@@@std@@@0@AAPAVSource@@@Z 60818510 f i ColladaModel.obj
 0001:00017570       ??$_Uninit_copy@V?$_Vector_const_iterator@VSource@@V?$allocator@VSource@@@std@@@std@@PAVSource@@V?$allocator@VSource@@@2@@std@@YAPAVSource@@V?$_Vector_const_iterator@VSource@@V?$allocator@VSource@@@std@@@0@0PAV1@AAV?$allocator@VSource@@@0@U_Nonscalar_ptr_iterator_tag@0@U_Range_checked_iterator_tag@0@@Z 60818570 f i ColladaModel.obj
 0001:00017710       ??$_Checked_base@PAVSource@@@std@@YAPAVSource@@AAPAV1@U_Unchanged_checked_iterator_base_type_tag@0@@Z 60818710 f i ColladaModel.obj
 0001:00017740       ??$_Copy_opt@PAVSource@@PAV1@Uforward_iterator_tag@std@@@std@@YAPAVSource@@PAV1@00Uforward_iterator_tag@0@U_Nonscalar_ptr_iterator_tag@0@U_Range_checked_iterator_tag@0@@Z 60818740 f i ColladaModel.obj
 0001:000177c0       ??$_Uninit_copy@PAVSource@@PAV1@V?$allocator@VSource@@@std@@@std@@YAPAVSource@@PAV1@00AAV?$allocator@VSource@@@0@U_Nonscalar_ptr_iterator_tag@0@U_Range_checked_iterator_tag@0@@Z 608187c0 f i ColladaModel.obj
 0001:000178d0       ??$_Checked_base@V?$_Vector_const_iterator@VTriangle@@V?$allocator@VTriangle@@@std@@@std@@@std@@YA?AV?$_Vector_const_iterator@VTriangle@@V?$allocator@VTriangle@@@std@@@0@AAV10@@Z 608188d0 f i ColladaModel.obj
 0001:00017970       ??$_Ptr_cat@V?$_Vector_const_iterator@VTriangle@@V?$allocator@VTriangle@@@std@@@std@@PAVTriangle@@@std@@YA?AU_Nonscalar_ptr_iterator_tag@0@AAV?$_Vector_const_iterator@VTriangle@@V?$allocator@VTriangle@@@std@@@0@AAPAVTriangle@@@Z 60818970 f i ColladaModel.obj
 0001:000179d0       ??$_Uninit_copy@V?$_Vector_const_iterator@VTriangle@@V?$allocator@VTriangle@@@std@@@std@@PAVTriangle@@V?$allocator@VTriangle@@@2@@std@@YAPAVTriangle@@V?$_Vector_const_iterator@VTriangle@@V?$allocator@VTriangle@@@std@@@0@0PAV1@AAV?$allocator@VTriangle@@@0@U_Nonscalar_ptr_iterator_tag@0@U_Range_checked_iterator_tag@0@@Z 608189d0 f i ColladaModel.obj
 0001:00017b70       ??$_Checked_base@PAVTriangle@@@std@@YAPAVTriangle@@AAPAV1@U_Unchanged_checked_iterator_base_type_tag@0@@Z 60818b70 f i ColladaModel.obj
 0001:00017ba0       ??$_Copy_opt@PAVTriangle@@PAV1@Uforward_iterator_tag@std@@@std@@YAPAVTriangle@@PAV1@00Uforward_iterator_tag@0@U_Nonscalar_ptr_iterator_tag@0@U_Range_checked_iterator_tag@0@@Z 60818ba0 f i ColladaModel.obj
 0001:00017c20       ??$_Uninit_copy@PAVTriangle@@PAV1@V?$allocator@VTriangle@@@std@@@std@@YAPAVTriangle@@PAV1@00AAV?$allocator@VTriangle@@@0@U_Nonscalar_ptr_iterator_tag@0@U_Range_checked_iterator_tag@0@@Z 60818c20 f i ColladaModel.obj
 0001:00017d30       ??$_Checked_base@V?$_Vector_const_iterator@VColMesh@@V?$allocator@VColMesh@@@std@@@std@@@std@@YA?AV?$_Vector_const_iterator@VColMesh@@V?$allocator@VColMesh@@@std@@@0@AAV10@@Z 60818d30 f i ColladaModel.obj
 0001:00017dd0       ??$_Ptr_cat@V?$_Vector_const_iterator@VColMesh@@V?$allocator@VColMesh@@@std@@@std@@PAVColMesh@@@std@@YA?AU_Nonscalar_ptr_iterator_tag@0@AAV?$_Vector_const_iterator@VColMesh@@V?$allocator@VColMesh@@@std@@@0@AAPAVColMesh@@@Z 60818dd0 f i ColladaModel.obj
 0001:00017e30       ??$_Uninit_copy@V?$_Vector_const_iterator@VColMesh@@V?$allocator@VColMesh@@@std@@@std@@PAVColMesh@@V?$allocator@VColMesh@@@2@@std@@YAPAVColMesh@@V?$_Vector_const_iterator@VColMesh@@V?$allocator@VColMesh@@@std@@@0@0PAV1@AAV?$allocator@VColMesh@@@0@U_Nonscalar_ptr_iterator_tag@0@U_Range_checked_iterator_tag@0@@Z 60818e30 f i ColladaModel.obj
 0001:00017fd0       ??$_Checked_base@PAVColMesh@@@std@@YAPAVColMesh@@AAPAV1@U_Unchanged_checked_iterator_base_type_tag@0@@Z 60818fd0 f i ColladaModel.obj
 0001:00018000       ??$_Copy_opt@PAVColMesh@@PAV1@Uforward_iterator_tag@std@@@std@@YAPAVColMesh@@PAV1@00Uforward_iterator_tag@0@U_Nonscalar_ptr_iterator_tag@0@U_Range_checked_iterator_tag@0@@Z 60819000 f i ColladaModel.obj
 0001:00018080       ??$_Uninit_copy@PAVColMesh@@PAV1@V?$allocator@VColMesh@@@std@@@std@@YAPAVColMesh@@PAV1@00AAV?$allocator@VColMesh@@@0@U_Nonscalar_ptr_iterator_tag@0@U_Range_checked_iterator_tag@0@@Z 60819080 f i ColladaModel.obj
 0001:00018190       ??$_Uninit_move@PAVSource@@PAV1@V?$allocator@VSource@@@std@@U_Undefined_move_tag@3@@std@@YAPAVSource@@PAV1@00AAV?$allocator@VSource@@@0@U_Undefined_move_tag@0@U_Range_checked_iterator_tag@0@@Z 60819190 f i ColladaModel.obj
 0001:000181e0       ??$_Debug_range@PAVSource@@@std@@YAXPAVSource@@0PB_WI@Z 608191e0 f i ColladaModel.obj
 0001:00018250       ??$_Copy_backward_opt@PAVSource@@PAV1@@std@@YAPAVSource@@PAV1@00Urandom_access_iterator_tag@0@U_Nonscalar_ptr_iterator_tag@0@U_Range_checked_iterator_tag@0@@Z 60819250 f i ColladaModel.obj
 0001:000182f0       ??$_Uninit_move@PAVTriangle@@PAV1@V?$allocator@VTriangle@@@std@@U_Undefined_move_tag@3@@std@@YAPAVTriangle@@PAV1@00AAV?$allocator@VTriangle@@@0@U_Undefined_move_tag@0@U_Range_checked_iterator_tag@0@@Z 608192f0 f i ColladaModel.obj
 0001:00018340       ??$_Debug_range@PAVTriangle@@@std@@YAXPAVTriangle@@0PB_WI@Z 60819340 f i ColladaModel.obj
 0001:000183b0       ??$_Copy_backward_opt@PAVTriangle@@PAV1@@std@@YAPAVTriangle@@PAV1@00Urandom_access_iterator_tag@0@U_Nonscalar_ptr_iterator_tag@0@U_Range_checked_iterator_tag@0@@Z 608193b0 f i ColladaModel.obj
 0001:00018450       ??$_Uninit_move@PAVColMesh@@PAV1@V?$allocator@VColMesh@@@std@@U_Undefined_move_tag@3@@std@@YAPAVColMesh@@PAV1@00AAV?$allocator@VColMesh@@@0@U_Undefined_move_tag@0@U_Range_checked_iterator_tag@0@@Z 60819450 f i ColladaModel.obj
 0001:000184a0       ??$_Debug_range@PAVColMesh@@@std@@YAXPAVColMesh@@0PB_WI@Z 608194a0 f i ColladaModel.obj
 0001:00018510       ??$_Copy_backward_opt@PAVColMesh@@PAV1@@std@@YAPAVColMesh@@PAV1@00Urandom_access_iterator_tag@0@U_Nonscalar_ptr_iterator_tag@0@U_Range_checked_iterator_tag@0@@Z 60819510 f i ColladaModel.obj
 0001:000185b0       ??$_Construct@VSource@@V1@@std@@YAXPAVSource@@ABV1@@Z 608195b0 f i ColladaModel.obj
 0001:00018670       ??$_Destroy@VSource@@@std@@YAXPAVSource@@@Z 60819670 f i ColladaModel.obj
 0001:000186b0       ??$_Construct@VTriangle@@V1@@std@@YAXPAVTriangle@@ABV1@@Z 608196b0 f i ColladaModel.obj
 0001:00018770       ??$_Destroy@VTriangle@@@std@@YAXPAVTriangle@@@Z 60819770 f i ColladaModel.obj
 0001:000187b0       ??$_Construct@VColMesh@@V1@@std@@YAXPAVColMesh@@ABV1@@Z 608197b0 f i ColladaModel.obj
 0001:00018870       ??$_Destroy@VColMesh@@@std@@YAXPAVColMesh@@@Z 60819870 f i ColladaModel.obj
 0001:000188b0       ??_GSource@@QAEPAXI@Z      608198b0 f i ColladaModel.obj
 0001:00018910       ??_GTriangle@@QAEPAXI@Z    60819910 f i ColladaModel.obj
 0001:00018970       ??_GColMesh@@QAEPAXI@Z     60819970 f i ColladaModel.obj
 0001:000189d0       ??E?$_Vector_const_iterator@VSource@@V?$allocator@VSource@@@std@@@std@@QAEAAV01@XZ 608199d0 f i ColladaModel.obj
 0001:00018b20       ??D?$_Vector_const_iterator@VTriangle@@V?$allocator@VTriangle@@@std@@@std@@QBEABVTriangle@@XZ 60819b20 f i ColladaModel.obj
 0001:00018c00       ??E?$_Vector_const_iterator@VTriangle@@V?$allocator@VTriangle@@@std@@@std@@QAEAAV01@XZ 60819c00 f i ColladaModel.obj
 0001:00018d50       ??E?$_Vector_const_iterator@VColMesh@@V?$allocator@VColMesh@@@std@@@std@@QAEAAV01@XZ 60819d50 f i ColladaModel.obj
 0001:00018ea0       ??$_Checked_base@V?$_Vector_const_iterator@VSource@@V?$allocator@VSource@@@std@@@std@@@std@@YA?AV?$_Vector_const_iterator@VSource@@V?$allocator@VSource@@@std@@@0@AAV10@U_Unchanged_checked_iterator_base_type_tag@0@@Z 60819ea0 f i ColladaModel.obj
 0001:00018f00       ??$_Debug_range@V?$_Vector_const_iterator@VSource@@V?$allocator@VSource@@@std@@@std@@@std@@YAXV?$_Vector_const_iterator@VSource@@V?$allocator@VSource@@@std@@@0@0PB_WI@Z 60819f00 f i ColladaModel.obj
 0001:00018ff0       ??$_Debug_pointer@VSource@@@std@@YAXPAVSource@@PB_WI@Z 60819ff0 f i ColladaModel.obj
 0001:00019050       ??$_Checked_base@V?$_Vector_const_iterator@VTriangle@@V?$allocator@VTriangle@@@std@@@std@@@std@@YA?AV?$_Vector_const_iterator@VTriangle@@V?$allocator@VTriangle@@@std@@@0@AAV10@U_Unchanged_checked_iterator_base_type_tag@0@@Z 6081a050 f i ColladaModel.obj
 0001:000190b0       ??$_Debug_range@V?$_Vector_const_iterator@VTriangle@@V?$allocator@VTriangle@@@std@@@std@@@std@@YAXV?$_Vector_const_iterator@VTriangle@@V?$allocator@VTriangle@@@std@@@0@0PB_WI@Z 6081a0b0 f i ColladaModel.obj
 0001:000191a0       ??$_Debug_pointer@VTriangle@@@std@@YAXPAVTriangle@@PB_WI@Z 6081a1a0 f i ColladaModel.obj
 0001:00019200       ??$_Checked_base@V?$_Vector_const_iterator@VColMesh@@V?$allocator@VColMesh@@@std@@@std@@@std@@YA?AV?$_Vector_const_iterator@VColMesh@@V?$allocator@VColMesh@@@std@@@0@AAV10@U_Unchanged_checked_iterator_base_type_tag@0@@Z 6081a200 f i ColladaModel.obj
 0001:00019260       ??$_Debug_range@V?$_Vector_const_iterator@VColMesh@@V?$allocator@VColMesh@@@std@@@std@@@std@@YAXV?$_Vector_const_iterator@VColMesh@@V?$allocator@VColMesh@@@std@@@0@0PB_WI@Z 6081a260 f i ColladaModel.obj
 0001:00019350       ??$_Debug_pointer@VColMesh@@@std@@YAXPAVColMesh@@PB_WI@Z 6081a350 f i ColladaModel.obj
 0001:000193b0       ??$_Iter_cat@PAVSource@@@std@@YA?AUrandom_access_iterator_tag@0@ABQAVSource@@@Z 6081a3b0 f i ColladaModel.obj
 0001:00019410       ??$_Debug_range2@PAVSource@@@std@@YAXPAVSource@@0PB_WIUrandom_access_iterator_tag@0@@Z 6081a410 f i ColladaModel.obj
 0001:000194a0       ??$_Copy_backward_opt@PAVSource@@PAV1@Uforward_iterator_tag@std@@@std@@YAPAVSource@@PAV1@00Uforward_iterator_tag@0@U_Nonscalar_ptr_iterator_tag@0@U_Range_checked_iterator_tag@0@@Z 6081a4a0 f i ColladaModel.obj
 0001:00019520       ??$_Iter_cat@PAVTriangle@@@std@@YA?AUrandom_access_iterator_tag@0@ABQAVTriangle@@@Z 6081a520 f i ColladaModel.obj
 0001:00019580       ??$_Debug_range2@PAVTriangle@@@std@@YAXPAVTriangle@@0PB_WIUrandom_access_iterator_tag@0@@Z 6081a580 f i ColladaModel.obj
 0001:00019610       ??$_Copy_backward_opt@PAVTriangle@@PAV1@Uforward_iterator_tag@std@@@std@@YAPAVTriangle@@PAV1@00Uforward_iterator_tag@0@U_Nonscalar_ptr_iterator_tag@0@U_Range_checked_iterator_tag@0@@Z 6081a610 f i ColladaModel.obj
 0001:00019690       ??$_Iter_cat@PAVColMesh@@@std@@YA?AUrandom_access_iterator_tag@0@ABQAVColMesh@@@Z 6081a690 f i ColladaModel.obj
 0001:000196f0       ??$_Debug_range2@PAVColMesh@@@std@@YAXPAVColMesh@@0PB_WIUrandom_access_iterator_tag@0@@Z 6081a6f0 f i ColladaModel.obj
 0001:00019780       ??$_Copy_backward_opt@PAVColMesh@@PAV1@Uforward_iterator_tag@std@@@std@@YAPAVColMesh@@PAV1@00Uforward_iterator_tag@0@U_Nonscalar_ptr_iterator_tag@0@U_Range_checked_iterator_tag@0@@Z 6081a780 f i ColladaModel.obj
 0001:00019800       ??$_Iter_cat@V?$_Vector_const_iterator@VSource@@V?$allocator@VSource@@@std@@@std@@@std@@YA?AUrandom_access_iterator_tag@0@ABV?$_Vector_const_iterator@VSource@@V?$allocator@VSource@@@std@@@0@@Z 6081a800 f i ColladaModel.obj
 0001:00019860       ??$_Debug_range2@V?$_Vector_const_iterator@VSource@@V?$allocator@VSource@@@std@@@std@@@std@@YAXV?$_Vector_const_iterator@VSource@@V?$allocator@VSource@@@std@@@0@0PB_WIUrandom_access_iterator_tag@0@@Z 6081a860 f i ColladaModel.obj
 0001:00019950       ??$_Iter_cat@V?$_Vector_const_iterator@VTriangle@@V?$allocator@VTriangle@@@std@@@std@@@std@@YA?AUrandom_access_iterator_tag@0@ABV?$_Vector_const_iterator@VTriangle@@V?$allocator@VTriangle@@@std@@@0@@Z 6081a950 f i ColladaModel.obj
 0001:000199b0       ??$_Debug_range2@V?$_Vector_const_iterator@VTriangle@@V?$allocator@VTriangle@@@std@@@std@@@std@@YAXV?$_Vector_const_iterator@VTriangle@@V?$allocator@VTriangle@@@std@@@0@0PB_WIUrandom_access_iterator_tag@0@@Z 6081a9b0 f i ColladaModel.obj
 0001:00019aa0       ??$_Iter_cat@V?$_Vector_const_iterator@VColMesh@@V?$allocator@VColMesh@@@std@@@std@@@std@@YA?AUrandom_access_iterator_tag@0@ABV?$_Vector_const_iterator@VColMesh@@V?$allocator@VColMesh@@@std@@@0@@Z 6081aaa0 f i ColladaModel.obj
 0001:00019b00       ??$_Debug_range2@V?$_Vector_const_iterator@VColMesh@@V?$allocator@VColMesh@@@std@@@std@@@std@@YAXV?$_Vector_const_iterator@VColMesh@@V?$allocator@VColMesh@@@std@@@0@0PB_WIUrandom_access_iterator_tag@0@@Z 6081ab00 f i ColladaModel.obj
 0001:00019bf0       ??$_Debug_pointer@V?$_Vector_const_iterator@VSource@@V?$allocator@VSource@@@std@@@std@@@std@@YAXAAV?$_Vector_const_iterator@VSource@@V?$allocator@VSource@@@std@@@0@PB_WI@Z 6081abf0 f i ColladaModel.obj
 0001:00019c20       ??$_Debug_pointer@V?$_Vector_const_iterator@VTriangle@@V?$allocator@VTriangle@@@std@@@std@@@std@@YAXAAV?$_Vector_const_iterator@VTriangle@@V?$allocator@VTriangle@@@std@@@0@PB_WI@Z 6081ac20 f i ColladaModel.obj
 0001:00019c50       ??$_Debug_pointer@V?$_Vector_const_iterator@VColMesh@@V?$allocator@VColMesh@@@std@@@std@@@std@@YAXAAV?$_Vector_const_iterator@VColMesh@@V?$allocator@VColMesh@@@std@@@0@PB_WI@Z 6081ac50 f i ColladaModel.obj
 0001:00019c80       ??0MD2Model@@QAE@ABV0@@Z   6081ac80 f i MD2Model.obj
 0001:00019db0       ??4MD2Model@@QAEAAV0@ABV0@@Z 6081adb0 f i MD2Model.obj
 0001:00019ee0       ??0MD2Model@@QAE@XZ        6081aee0 f   MD2Model.obj
 0001:00019f80       ??1MD2Model@@QAE@XZ        6081af80 f   MD2Model.obj
 0001:0001a100       ?LoadModel@MD2Model@@QAEHPBD0@Z 6081b100 f   MD2Model.obj
 0001:0001a220       ?ReadFile@MD2Model@@AAEHPBD@Z 6081b220 f   MD2Model.obj
 0001:0001a370       ?ReadHeader@MD2Model@@AAEHPAEPAUHeader@@@Z 6081b370 f   MD2Model.obj
 0001:0001a400       ?InitData@MD2Model@@AAEXXZ 6081b400 f   MD2Model.obj
 0001:0001a620       ?LoadData@MD2Model@@AAEXXZ 6081b620 f   MD2Model.obj
 0001:0001a670       ?LoadFrames@MD2Model@@AAEXXZ 6081b670 f   MD2Model.obj
 0001:0001a7e0       ?LoadGLCommands@MD2Model@@AAEXXZ 6081b7e0 f   MD2Model.obj
 0001:0001a850       ?DrawFrame@MD2Model@@QAEXHH@Z 6081b850 f   MD2Model.obj
 0001:0001ac30       ?render@MD2Model@@UAEXM@Z  6081bc30 f   MD2Model.obj
 0001:0001ad60       ?RenderFrame@MD2Model@@AAEXXZ 6081bd60 f   MD2Model.obj
 0001:0001af20       ?Interpolate@MD2Model@@AAEXPAY02M0@Z 6081bf20 f   MD2Model.obj
 0001:0001b120       ?LoadSkin@MD2Model@@QAEHPBD@Z 6081c120 f   MD2Model.obj
 0001:0001b180       ?SetAnim@MD2Model@@QAEXH@Z 6081c180 f   MD2Model.obj
 0001:0001b260       ?Animate@MD2Model@@AAEXM@Z 6081c260 f   MD2Model.obj
 0001:0001b3b0       ??1Point@@QAE@XZ           6081c3b0 f i NMS_3DObject.obj
 0001:0001b3e0       ??4Point@@QAEAAV0@ABV0@@Z  6081c3e0 f i NMS_3DObject.obj
 0001:0001b430       ??1Vector@@QAE@XZ          6081c430 f i NMS_3DObject.obj
 0001:0001b470       ??4Vector@@QAEAAV0@ABV0@@Z 6081c470 f i NMS_3DObject.obj
 0001:0001b4c0       ??4nmsTrig@@QAEAAV0@ABV0@@Z 6081c4c0 f i NMS_3DObject.obj
 0001:0001b4f0       ??0NMS_3DObject@@QAE@ABV0@@Z 6081c4f0 f i NMS_3DObject.obj
 0001:0001b590       ??4NMS_3DObject@@QAEAAV0@ABV0@@Z 6081c590 f i NMS_3DObject.obj
 0001:0001b620       ??0NMS_3DObject@@QAE@XZ    6081c620 f   NMS_3DObject.obj
 0001:0001b740       ??1NMS_3DObject@@QAE@XZ    6081c740 f   NMS_3DObject.obj
 0001:0001b7e0       ??0NMS_3DObject@@QAE@PBVVector@@0@Z 6081c7e0 f   NMS_3DObject.obj
 0001:0001b8c0       ?getPosVector@NMS_3DObject@@QAE?AVVector@@XZ 6081c8c0 f   NMS_3DObject.obj
 0001:0001b930       ?setPosVector@NMS_3DObject@@QAEXPBVVector@@@Z 6081c930 f   NMS_3DObject.obj
 0001:0001b980       ?getDirVector@NMS_3DObject@@QAE?AVVector@@XZ 6081c980 f   NMS_3DObject.obj
 0001:0001b9f0       ?setDirVector@NMS_3DObject@@QAEXPBVVector@@@Z 6081c9f0 f   NMS_3DObject.obj
 0001:0001ba40       ??6@YAAAV?$basic_ostream@DU?$char_traits@D@std@@@std@@AAV01@ABVNMS_3DObject@@@Z 6081ca40 f   NMS_3DObject.obj
 0001:0001bae0       ??8@YA_NABVNMS_3DObject@@0@Z 6081cae0 f   NMS_3DObject.obj
 0001:0001bb60       ??$?6U?$char_traits@D@std@@@std@@YAAAV?$basic_ostream@DU?$char_traits@D@std@@@0@AAV10@PBD@Z 6081cb60 f i NMS_3DObject.obj
 0001:0001bfc0       ??0sentry@?$basic_ostream@DU?$char_traits@D@std@@@std@@QAE@AAV12@@Z 6081cfc0 f i NMS_3DObject.obj
 0001:0001c0e0       ??1sentry@?$basic_ostream@DU?$char_traits@D@std@@@std@@QAE@XZ 6081d0e0 f i NMS_3DObject.obj
 0001:0001c190       ??Bsentry@?$basic_ostream@DU?$char_traits@D@std@@@std@@QBE_NXZ 6081d190 f i NMS_3DObject.obj
 0001:0001c1c0       ??0_Sentry_base@?$basic_ostream@DU?$char_traits@D@std@@@std@@QAE@AAV12@@Z 6081d1c0 f i NMS_3DObject.obj
 0001:0001c260       ??1_Sentry_base@?$basic_ostream@DU?$char_traits@D@std@@@std@@QAE@XZ 6081d260 f i NMS_3DObject.obj
 0001:0001c2f0       ??$?6U?$char_traits@D@std@@@std@@YAAAV?$basic_ostream@DU?$char_traits@D@std@@@0@AAV10@D@Z 6081d2f0 f i NMS_3DObject.obj
 0001:0001c770       ??0NMS_AssetManager@@QAE@XZ 6081d770 f   NMS_AssetManager.obj
 0001:0001c7b0       ??1NMS_AssetManager@@QAE@XZ 6081d7b0 f   NMS_AssetManager.obj
 0001:0001c7e0       ?GetSingleton@NMS_AssetManager@@SAAAV1@XZ 6081d7e0 f   NMS_AssetManager.obj
 0001:0001c8b0       ?Initialize@NMS_AssetManager@@CAXXZ 6081d8b0 f   NMS_AssetManager.obj
 0001:0001c910       ?Destroy@NMS_AssetManager@@SAXXZ 6081d910 f   NMS_AssetManager.obj
 0001:0001c9a0       ??_GNMS_AssetManager@@QAEPAXI@Z 6081d9a0 f i NMS_AssetManager.obj
 0001:0001ca00       ?GetErrorMessage@NMS_AssetManager@@QAEPADXZ 6081da00 f   NMS_AssetManager.obj
 0001:0001ca30       ?LoadTexture@NMS_AssetManager@@QAEHPBDPAD@Z 6081da30 f   NMS_AssetManager.obj
 0001:0001ca80       ?FreeTexture@NMS_AssetManager@@QAEXPAD@Z 6081da80 f   NMS_AssetManager.obj
 0001:0001cad0       ?FreeAll@NMS_AssetManager@@QAEXXZ 6081dad0 f   NMS_AssetManager.obj
 0001:0001cb20       ??_H@YGXPAXIHP6EPAX0@Z@Z   6081db20 f i NMS_Camera.obj
 0001:0001cb80       ??0SceneGraphVisitor@@QAE@XZ 6081db80 f i NMS_Camera.obj
 0001:0001cbc0       ??0SceneGraphVisitor@@QAE@ABV0@@Z 6081dbc0 f i NMS_Camera.obj
 0001:0001cc00       ??4SceneGraphVisitor@@QAEAAV0@ABV0@@Z 6081dc00 f i NMS_Camera.obj
 0001:0001cc30       ?sg_before@EmptySceneVisitor@@UAEXVMatrix@@PAVNMS_Mesh@@PAVbtRigidBody@@@Z 6081dc30 f i NMS_Camera.obj
 0001:0001cc80       ?sg_after@EmptySceneVisitor@@UAEXVMatrix@@PAVNMS_Mesh@@@Z 6081dc80 f i NMS_Camera.obj
 0001:0001ccd0       ??0EmptySceneVisitor@@QAE@XZ 6081dcd0 f i NMS_Camera.obj
 0001:0001cd20       ??0EmptySceneVisitor@@QAE@ABV0@@Z 6081dd20 f i NMS_Camera.obj
 0001:0001cd80       ??4EmptySceneVisitor@@QAEAAV0@ABV0@@Z 6081dd80 f i NMS_Camera.obj
 0001:0001cdd0       ??1SceneGraphNode@@QAE@XZ  6081ddd0 f i NMS_Camera.obj
 0001:0001ce20       ??0SceneGraphNode@@QAE@ABV0@@Z 6081de20 f i NMS_Camera.obj
 0001:0001ce90       ??4SceneGraphNode@@QAEAAV0@ABV0@@Z 6081de90 f i NMS_Camera.obj
 0001:0001cef0       ??1TransformationNode@@QAE@XZ 6081def0 f i NMS_Camera.obj
 0001:0001cf80       ??0TransformationNode@@QAE@ABV0@@Z 6081df80 f i NMS_Camera.obj
 0001:0001d020       ??4TransformationNode@@QAEAAV0@ABV0@@Z 6081e020 f i NMS_Camera.obj
 0001:0001d080       ??1GeometryNode@@QAE@XZ    6081e080 f i NMS_Camera.obj
 0001:0001d0c0       ??0GeometryNode@@QAE@ABV0@@Z 6081e0c0 f i NMS_Camera.obj
 0001:0001d130       ??4GeometryNode@@QAEAAV0@ABV0@@Z 6081e130 f i NMS_Camera.obj
 0001:0001d190       ??0CameraNode@@QAE@XZ      6081e190 f i NMS_Camera.obj
 0001:0001d1e0       ??1CameraNode@@QAE@XZ      6081e1e0 f i NMS_Camera.obj
 0001:0001d220       ??0CameraNode@@QAE@ABV0@@Z 6081e220 f i NMS_Camera.obj
 0001:0001d280       ??4CameraNode@@QAEAAV0@ABV0@@Z 6081e280 f i NMS_Camera.obj
 0001:0001d2d0       ?getPos@NMSCameraController@@QAE?AVVector@@XZ 6081e2d0 f i NMS_Camera.obj
 0001:0001d340       ?getRight@NMSCameraController@@QAE?AVVector@@XZ 6081e340 f i NMS_Camera.obj
 0001:0001d3b0       ?getUp@NMSCameraController@@QAE?AVVector@@XZ 6081e3b0 f i NMS_Camera.obj
 0001:0001d420       ?getDir@NMSCameraController@@QAE?AVVector@@XZ 6081e420 f i NMS_Camera.obj
 0001:0001d490       ?getVelocity@NMSCameraController@@QAE?AVVector@@XZ 6081e490 f i NMS_Camera.obj
 0001:0001d500       ?setPos@NMSCameraController@@QAEXAAVVector@@@Z 6081e500 f i NMS_Camera.obj
 0001:0001d550       ?setRight@NMSCameraController@@QAEXAAVVector@@@Z 6081e550 f i NMS_Camera.obj
 0001:0001d5a0       ?setUp@NMSCameraController@@QAEXAAVVector@@@Z 6081e5a0 f i NMS_Camera.obj
 0001:0001d5f0       ?setDir@NMSCameraController@@QAEXAAVVector@@@Z 6081e5f0 f i NMS_Camera.obj
 0001:0001d640       ?setRSpeedX@NMSCameraController@@QAEXM@Z 6081e640 f i NMS_Camera.obj
 0001:0001d680       ?setRSpeedY@NMSCameraController@@QAEXM@Z 6081e680 f i NMS_Camera.obj
 0001:0001d6c0       ?setRSpeedZ@NMSCameraController@@QAEXM@Z 6081e6c0 f i NMS_Camera.obj
 0001:0001d700       ?getRSpeedX@NMSCameraController@@QAEMXZ 6081e700 f i NMS_Camera.obj
 0001:0001d730       ?getRSpeedY@NMSCameraController@@QAEMXZ 6081e730 f i NMS_Camera.obj
 0001:0001d760       ?getRSpeedZ@NMSCameraController@@QAEMXZ 6081e760 f i NMS_Camera.obj
 0001:0001d790       ?setSpeed@NMSCameraController@@QAEXM@Z 6081e790 f i NMS_Camera.obj
 0001:0001d7d0       ?setSlideSpeed@NMSCameraController@@QAEXM@Z 6081e7d0 f i NMS_Camera.obj
 0001:0001d810       ?getSpeed@NMSCameraController@@QAEMXZ 6081e810 f i NMS_Camera.obj
 0001:0001d850       ?getSlideSpeed@NMSCameraController@@QAEMXZ 6081e850 f i NMS_Camera.obj
 0001:0001d890       ??0NMSCameraController@@QAE@XZ 6081e890 f i NMS_Camera.obj
 0001:0001d960       ??1NMSCameraController@@QAE@XZ 6081e960 f i NMS_Camera.obj
 0001:0001da20       ??0NMSCameraController@@QAE@ABV0@@Z 6081ea20 f i NMS_Camera.obj
 0001:0001dba0       ??4NMSCameraController@@QAEAAV0@ABV0@@Z 6081eba0 f i NMS_Camera.obj
 0001:0001dd10       ??0NMSCameraFPS@@QAE@ABV0@@Z 6081ed10 f i NMS_Camera.obj
 0001:0001dd70       ??4NMSCameraFPS@@QAEAAV0@ABV0@@Z 6081ed70 f i NMS_Camera.obj
 0001:0001ddc0       ?init@NMSCameraFPS@@MAEXXZ 6081edc0 f   NMS_Camera.obj
 0001:0001dfe0       ?before@NMSCameraController@@UAEXPAVSceneGraphVisitor@@PAVMatrix@@@Z 6081efe0 f   NMS_Camera.obj
 0001:0001e0d0       ?after@NMSCameraController@@UAEXPAVSceneGraphVisitor@@PAVMatrix@@@Z 6081f0d0 f   NMS_Camera.obj
 0001:0001e180       ?returnViewMatrix@NMSCameraController@@QAE?AVMatrix@@XZ 6081f180 f   NMS_Camera.obj
 0001:0001e2f0       ?setRotation@NMSCameraController@@QAEXMMM@Z 6081f2f0 f   NMS_Camera.obj
 0001:0001e360       ?getRotation@NMSCameraController@@QAE?AVVector@@XZ 6081f360 f   NMS_Camera.obj
 0001:0001e3f0       ?UpdateCamera@NMSCameraController@@QAEXM@Z 6081f3f0 f   NMS_Camera.obj
 0001:0001e680       ??0NMSCameraFPS@@QAE@XZ    6081f680 f   NMS_Camera.obj
 0001:0001e710       ??1NMSCameraFPS@@QAE@XZ    6081f710 f   NMS_Camera.obj
 0001:0001e760       ?recalcAxes@NMSCameraFPS@@MAEXXZ 6081f760 f   NMS_Camera.obj
 0001:0001eb80       ??0?$vector@PAVSceneGraphNode@@V?$allocator@PAVSceneGraphNode@@@std@@@std@@QAE@ABV01@@Z 6081fb80 f i NMS_Camera.obj
 0001:0001ecd0       ??1?$vector@PAVSceneGraphNode@@V?$allocator@PAVSceneGraphNode@@@std@@@std@@QAE@XZ 6081fcd0 f i NMS_Camera.obj
 0001:0001ed50       ??4?$vector@PAVSceneGraphNode@@V?$allocator@PAVSceneGraphNode@@@std@@@std@@QAEAAV01@ABV01@@Z 6081fd50 f i NMS_Camera.obj
 0001:0001ef10       ??1?$_Vector_val@PAVSceneGraphNode@@V?$allocator@PAVSceneGraphNode@@@std@@@std@@QAE@XZ 6081ff10 f i NMS_Camera.obj
 0001:0001ef50       ??1?$_Vector_const_iterator@PAVSceneGraphNode@@V?$allocator@PAVSceneGraphNode@@@std@@@std@@QAE@XZ 6081ff50 f i NMS_Camera.obj
 0001:0001ef90       ??1?$_Ranit@PAVSceneGraphNode@@HPBQAV1@ABQAV1@@std@@QAE@XZ 6081ff90 f i NMS_Camera.obj
 0001:0001efd0       ??1?$_Iterator_with_base@Urandom_access_iterator_tag@std@@PAVSceneGraphNode@@HPBQAV3@ABQAV3@V_Iterator_base@2@@std@@QAE@XZ 6081ffd0 f i NMS_Camera.obj
 0001:0001f010       ?capacity@?$vector@PAVSceneGraphNode@@V?$allocator@PAVSceneGraphNode@@@std@@@std@@QBEIXZ 60820010 f i NMS_Camera.obj
 0001:0001f070       ?begin@?$vector@PAVSceneGraphNode@@V?$allocator@PAVSceneGraphNode@@@std@@@std@@QBE?AV?$_Vector_const_iterator@PAVSceneGraphNode@@V?$allocator@PAVSceneGraphNode@@@std@@@2@XZ 60820070 f i NMS_Camera.obj
 0001:0001f0e0       ?end@?$vector@PAVSceneGraphNode@@V?$allocator@PAVSceneGraphNode@@@std@@@std@@QBE?AV?$_Vector_const_iterator@PAVSceneGraphNode@@V?$allocator@PAVSceneGraphNode@@@std@@@2@XZ 608200e0 f i NMS_Camera.obj
 0001:0001f150       ?size@?$vector@PAVSceneGraphNode@@V?$allocator@PAVSceneGraphNode@@@std@@@std@@QBEIXZ 60820150 f i NMS_Camera.obj
 0001:0001f190       ?clear@?$vector@PAVSceneGraphNode@@V?$allocator@PAVSceneGraphNode@@@std@@@std@@QAEXXZ 60820190 f i NMS_Camera.obj
 0001:0001f2d0       ?_Buy@?$vector@PAVSceneGraphNode@@V?$allocator@PAVSceneGraphNode@@@std@@@std@@IAE_NI@Z 608202d0 f i NMS_Camera.obj
 0001:0001f380       ?_Destroy@?$vector@PAVSceneGraphNode@@V?$allocator@PAVSceneGraphNode@@@std@@@std@@IAEXPAPAVSceneGraphNode@@0@Z 60820380 f i NMS_Camera.obj
 0001:0001f3d0       ?_Tidy@?$vector@PAVSceneGraphNode@@V?$allocator@PAVSceneGraphNode@@@std@@@std@@IAEXXZ 608203d0 f i NMS_Camera.obj
 0001:0001f480       ??0?$_Vector_val@PAVSceneGraphNode@@V?$allocator@PAVSceneGraphNode@@@std@@@std@@IAE@V?$allocator@PAVSceneGraphNode@@@1@@Z 60820480 f i NMS_Camera.obj
 0001:0001f4f0       ??1?$_Container_base_aux_alloc_empty@V?$allocator@PAVSceneGraphNode@@@std@@@std@@IAE@XZ 608204f0 f i NMS_Camera.obj
 0001:0001f540       ??0?$allocator@PAVSceneGraphNode@@@std@@QAE@ABV01@@Z 60820540 f i NMS_Camera.obj
 0001:0001f570       ?deallocate@?$allocator@PAVSceneGraphNode@@@std@@QAEXPAPAVSceneGraphNode@@I@Z 60820570 f i NMS_Camera.obj
 0001:0001f5c0       ??1?$_Vector_iterator@PAVSceneGraphNode@@V?$allocator@PAVSceneGraphNode@@@std@@@std@@QAE@XZ 608205c0 f i NMS_Camera.obj
 0001:0001f600       ??0?$_Vector_const_iterator@PAVSceneGraphNode@@V?$allocator@PAVSceneGraphNode@@@std@@@std@@QAE@ABV01@@Z 60820600 f i NMS_Camera.obj
 0001:0001f660       ??0?$_Ranit@PAVSceneGraphNode@@HPBQAV1@ABQAV1@@std@@QAE@ABU01@@Z 60820660 f i NMS_Camera.obj
 0001:0001f6b0       ??0?$_Iterator_with_base@Urandom_access_iterator_tag@std@@PAVSceneGraphNode@@HPBQAV3@ABQAV3@V_Iterator_base@2@@std@@QAE@ABU01@@Z 608206b0 f i NMS_Camera.obj
 0001:0001f700       ?begin@?$vector@PAVSceneGraphNode@@V?$allocator@PAVSceneGraphNode@@@std@@@std@@QAE?AV?$_Vector_iterator@PAVSceneGraphNode@@V?$allocator@PAVSceneGraphNode@@@std@@@2@XZ 60820700 f i NMS_Camera.obj
 0001:0001f770       ?end@?$vector@PAVSceneGraphNode@@V?$allocator@PAVSceneGraphNode@@@std@@@std@@QAE?AV?$_Vector_iterator@PAVSceneGraphNode@@V?$allocator@PAVSceneGraphNode@@@std@@@2@XZ 60820770 f i NMS_Camera.obj
 0001:0001f7e0       ?max_size@?$vector@PAVSceneGraphNode@@V?$allocator@PAVSceneGraphNode@@@std@@@std@@QBEIXZ 608207e0 f i NMS_Camera.obj
 0001:0001f830       ?erase@?$vector@PAVSceneGraphNode@@V?$allocator@PAVSceneGraphNode@@@std@@@std@@QAE?AV?$_Vector_iterator@PAVSceneGraphNode@@V?$allocator@PAVSceneGraphNode@@@std@@@2@V?$_Vector_const_iterator@PAVSceneGraphNode@@V?$allocator@PAVSceneGraphNode@@@std@@@2@0@Z 60820830 f i NMS_Camera.obj
 0001:0001fa50       ?_Xlen@?$vector@PAVSceneGraphNode@@V?$allocator@PAVSceneGraphNode@@@std@@@std@@KAXXZ 60820a50 f i NMS_Camera.obj
 0001:0001fb10       ??0?$_Container_base_aux_alloc_empty@V?$allocator@PAVSceneGraphNode@@@std@@@std@@IAE@V?$allocator@PAVSceneGraphNode@@@1@@Z 60820b10 f i NMS_Camera.obj
 0001:0001fb60       ?allocate@?$allocator@PAVSceneGraphNode@@@std@@QAEPAPAVSceneGraphNode@@I@Z 60820b60 f i NMS_Camera.obj
 0001:0001fbb0       ??0?$_Vector_const_iterator@PAVSceneGraphNode@@V?$allocator@PAVSceneGraphNode@@@std@@@std@@QAE@PAPAVSceneGraphNode@@PBV_Container_base_secure@1@@Z 60820bb0 f i NMS_Camera.obj
 0001:0001fcb0       ??0?$_Ranit@PAVSceneGraphNode@@HPBQAV1@ABQAV1@@std@@QAE@XZ 60820cb0 f i NMS_Camera.obj
 0001:0001fd00       ??0?$_Iterator_with_base@Urandom_access_iterator_tag@std@@PAVSceneGraphNode@@HPBQAV3@ABQAV3@V_Iterator_base@2@@std@@QAE@XZ 60820d00 f i NMS_Camera.obj
 0001:0001fd50       ?_Make_iter@?$vector@PAVSceneGraphNode@@V?$allocator@PAVSceneGraphNode@@@std@@@std@@QBE?AV?$_Vector_iterator@PAVSceneGraphNode@@V?$allocator@PAVSceneGraphNode@@@std@@@2@V?$_Vector_const_iterator@PAVSceneGraphNode@@V?$allocator@PAVSceneGraphNode@@@std@@@2@@Z 60820d50 f i NMS_Camera.obj
 0001:0001fe00       ?_Orphan_range@?$vector@PAVSceneGraphNode@@V?$allocator@PAVSceneGraphNode@@@std@@@std@@IBEXPAPAVSceneGraphNode@@0@Z 60820e00 f i NMS_Camera.obj
 0001:0001fee0       ?max_size@?$allocator@PAVSceneGraphNode@@@std@@QBEIXZ 60820ee0 f i NMS_Camera.obj
 0001:0001ff40       ??9?$_Vector_const_iterator@PAVSceneGraphNode@@V?$allocator@PAVSceneGraphNode@@@std@@@std@@QBE_NABV01@@Z 60820f40 f i NMS_Camera.obj
 0001:0001ff90       ??M?$_Vector_const_iterator@PAVSceneGraphNode@@V?$allocator@PAVSceneGraphNode@@@std@@@std@@QBE_NABV01@@Z 60820f90 f i NMS_Camera.obj
 0001:0001fff0       ??0?$_Vector_iterator@PAVSceneGraphNode@@V?$allocator@PAVSceneGraphNode@@@std@@@std@@QAE@PAPAVSceneGraphNode@@PBV_Container_base_secure@1@@Z 60820ff0 f i NMS_Camera.obj
 0001:00020040       ??8?$_Vector_const_iterator@PAVSceneGraphNode@@V?$allocator@PAVSceneGraphNode@@@std@@@std@@QBE_NABV01@@Z 60821040 f i NMS_Camera.obj
 0001:000200a0       ?_Compat@?$_Vector_const_iterator@PAVSceneGraphNode@@V?$allocator@PAVSceneGraphNode@@@std@@@std@@QBEXABV12@@Z 608210a0 f i NMS_Camera.obj
 0001:00020170       ??$_Ucopy@V?$_Vector_const_iterator@PAVSceneGraphNode@@V?$allocator@PAVSceneGraphNode@@@std@@@std@@@?$vector@PAVSceneGraphNode@@V?$allocator@PAVSceneGraphNode@@@std@@@std@@IAEPAPAVSceneGraphNode@@V?$_Vector_const_iterator@PAVSceneGraphNode@@V?$allocator@PAVSceneGraphNode@@@std@@@1@0PAPAV2@@Z 60821170 f i NMS_Camera.obj
 0001:00020270       ??$unchecked_copy@PAPAVSceneGraphNode@@PAPAV1@@stdext@@YAPAPAVSceneGraphNode@@PAPAV1@00@Z 60821270 f i NMS_Camera.obj
 0001:00020320       ??$_Ucopy@PAPAVSceneGraphNode@@@?$vector@PAVSceneGraphNode@@V?$allocator@PAVSceneGraphNode@@@std@@@std@@IAEPAPAVSceneGraphNode@@PAPAV2@00@Z 60821320 f i NMS_Camera.obj
 0001:00020380       ??$_Destroy_range@V?$allocator@PAVSceneGraphNode@@@std@@@std@@YAXPAPAVSceneGraphNode@@0AAV?$allocator@PAVSceneGraphNode@@@0@@Z 60821380 f i NMS_Camera.obj
 0001:000203f0       ??$_Allocate@PAVSceneGraphNode@@@std@@YAPAPAVSceneGraphNode@@IPAPAV1@@Z 608213f0 f i NMS_Camera.obj
 0001:00020470       ??$unchecked_uninitialized_copy@V?$_Vector_const_iterator@PAVSceneGraphNode@@V?$allocator@PAVSceneGraphNode@@@std@@@std@@PAPAVSceneGraphNode@@V?$allocator@PAVSceneGraphNode@@@2@@stdext@@YAPAPAVSceneGraphNode@@V?$_Vector_const_iterator@PAVSceneGraphNode@@V?$allocator@PAVSceneGraphNode@@@std@@@std@@0PAPAV1@AAV?$allocator@PAVSceneGraphNode@@@3@@Z 60821470 f i NMS_Camera.obj
 0001:000205a0       ??$_Checked_base@PAPAVSceneGraphNode@@@std@@YAPAPAVSceneGraphNode@@AAPAPAV1@@Z 608215a0 f i NMS_Camera.obj
 0001:00020620       ??$_Iter_random@PAPAVSceneGraphNode@@PAPAV1@@std@@YA?AUrandom_access_iterator_tag@0@ABQAPAVSceneGraphNode@@0@Z 60821620 f i NMS_Camera.obj
 0001:00020680       ??$_Ptr_cat@PAPAVSceneGraphNode@@PAPAV1@@std@@YA?AU_Scalar_ptr_iterator_tag@0@AAPAPAVSceneGraphNode@@0@Z 60821680 f i NMS_Camera.obj
 0001:000206e0       ??$_Copy_opt@PAPAVSceneGraphNode@@PAPAV1@Urandom_access_iterator_tag@std@@@std@@YAPAPAVSceneGraphNode@@PAPAV1@00Urandom_access_iterator_tag@0@U_Scalar_ptr_iterator_tag@0@U_Range_checked_iterator_tag@0@@Z 608216e0 f i NMS_Camera.obj
 0001:000207a0       ??$unchecked_uninitialized_copy@PAPAVSceneGraphNode@@PAPAV1@V?$allocator@PAVSceneGraphNode@@@std@@@stdext@@YAPAPAVSceneGraphNode@@PAPAV1@00AAV?$allocator@PAVSceneGraphNode@@@std@@@Z 608217a0 f i NMS_Camera.obj
 0001:00020830       ??$_Destroy_range@V?$allocator@PAVSceneGraphNode@@@std@@@std@@YAXPAPAVSceneGraphNode@@0AAV?$allocator@PAVSceneGraphNode@@@0@U_Scalar_ptr_iterator_tag@0@@Z 60821830 f i NMS_Camera.obj
 0001:00020860       ??$_Checked_base@V?$_Vector_const_iterator@PAVSceneGraphNode@@V?$allocator@PAVSceneGraphNode@@@std@@@std@@@std@@YA?AV?$_Vector_const_iterator@PAVSceneGraphNode@@V?$allocator@PAVSceneGraphNode@@@std@@@0@AAV10@@Z 60821860 f i NMS_Camera.obj
 0001:00020900       ??$_Ptr_cat@V?$_Vector_const_iterator@PAVSceneGraphNode@@V?$allocator@PAVSceneGraphNode@@@std@@@std@@PAPAVSceneGraphNode@@@std@@YA?AU_Scalar_ptr_iterator_tag@0@AAV?$_Vector_const_iterator@PAVSceneGraphNode@@V?$allocator@PAVSceneGraphNode@@@std@@@0@AAPAPAVSceneGraphNode@@@Z 60821900 f i NMS_Camera.obj
 0001:00020960       ??$_Uninit_copy@V?$_Vector_const_iterator@PAVSceneGraphNode@@V?$allocator@PAVSceneGraphNode@@@std@@@std@@PAPAVSceneGraphNode@@V?$allocator@PAVSceneGraphNode@@@2@@std@@YAPAPAVSceneGraphNode@@V?$_Vector_const_iterator@PAVSceneGraphNode@@V?$allocator@PAVSceneGraphNode@@@std@@@0@0PAPAV1@AAV?$allocator@PAVSceneGraphNode@@@0@U_Scalar_ptr_iterator_tag@0@U_Range_checked_iterator_tag@0@@Z 60821960 f i NMS_Camera.obj
 0001:00020ab0       ??$_Checked_base@PAPAVSceneGraphNode@@@std@@YAPAPAVSceneGraphNode@@AAPAPAV1@U_Unchanged_checked_iterator_base_type_tag@0@@Z 60821ab0 f i NMS_Camera.obj
 0001:00020ae0       ??$_Debug_range@PAPAVSceneGraphNode@@@std@@YAXPAPAVSceneGraphNode@@0PB_WI@Z 60821ae0 f i NMS_Camera.obj
 0001:00020b50       ??$_Debug_pointer@PAVSceneGraphNode@@@std@@YAXPAPAVSceneGraphNode@@PB_WI@Z 60821b50 f i NMS_Camera.obj
 0001:00020bb0       ??$_Uninit_copy@PAPAVSceneGraphNode@@PAPAV1@V?$allocator@PAVSceneGraphNode@@@std@@@std@@YAPAPAVSceneGraphNode@@PAPAV1@00AAV?$allocator@PAVSceneGraphNode@@@0@U_Scalar_ptr_iterator_tag@0@U_Range_checked_iterator_tag@0@@Z 60821bb0 f i NMS_Camera.obj
 0001:00020c60       ??D?$_Vector_const_iterator@PAVSceneGraphNode@@V?$allocator@PAVSceneGraphNode@@@std@@@std@@QBEABQAVSceneGraphNode@@XZ 60821c60 f i NMS_Camera.obj
 0001:00020d40       ??G?$_Vector_const_iterator@PAVSceneGraphNode@@V?$allocator@PAVSceneGraphNode@@@std@@@std@@QBEHABV01@@Z 60821d40 f i NMS_Camera.obj
 0001:00020da0       ??$_Checked_base@V?$_Vector_const_iterator@PAVSceneGraphNode@@V?$allocator@PAVSceneGraphNode@@@std@@@std@@@std@@YA?AV?$_Vector_const_iterator@PAVSceneGraphNode@@V?$allocator@PAVSceneGraphNode@@@std@@@0@AAV10@U_Unchanged_checked_iterator_base_type_tag@0@@Z 60821da0 f i NMS_Camera.obj
 0001:00020e00       ??$_Debug_range@V?$_Vector_const_iterator@PAVSceneGraphNode@@V?$allocator@PAVSceneGraphNode@@@std@@@std@@@std@@YAXV?$_Vector_const_iterator@PAVSceneGraphNode@@V?$allocator@PAVSceneGraphNode@@@std@@@0@0PB_WI@Z 60821e00 f i NMS_Camera.obj
 0001:00020ef0       ??$_Iter_cat@PAPAVSceneGraphNode@@@std@@YA?AUrandom_access_iterator_tag@0@ABQAPAVSceneGraphNode@@@Z 60821ef0 f i NMS_Camera.obj
 0001:00020f50       ??$_Debug_range2@PAPAVSceneGraphNode@@@std@@YAXPAPAVSceneGraphNode@@0PB_WIUrandom_access_iterator_tag@0@@Z 60821f50 f i NMS_Camera.obj
 0001:00020fe0       ??$_Iter_cat@V?$_Vector_const_iterator@PAVSceneGraphNode@@V?$allocator@PAVSceneGraphNode@@@std@@@std@@@std@@YA?AUrandom_access_iterator_tag@0@ABV?$_Vector_const_iterator@PAVSceneGraphNode@@V?$allocator@PAVSceneGraphNode@@@std@@@0@@Z 60821fe0 f i NMS_Camera.obj
 0001:00021040       ??$_Debug_range2@V?$_Vector_const_iterator@PAVSceneGraphNode@@V?$allocator@PAVSceneGraphNode@@@std@@@std@@@std@@YAXV?$_Vector_const_iterator@PAVSceneGraphNode@@V?$allocator@PAVSceneGraphNode@@@std@@@0@0PB_WIUrandom_access_iterator_tag@0@@Z 60822040 f i NMS_Camera.obj
 0001:00021130       ??$_Debug_pointer@V?$_Vector_const_iterator@PAVSceneGraphNode@@V?$allocator@PAVSceneGraphNode@@@std@@@std@@@std@@YAXAAV?$_Vector_const_iterator@PAVSceneGraphNode@@V?$allocator@PAVSceneGraphNode@@@std@@@0@PB_WI@Z 60822130 f i NMS_Camera.obj
 0001:00021160       ?onIdle@NMS_Event@@QAEXP6AXH@Z@Z 60822160 f i NMS_Engine.obj
 0001:000211b0       ?onKeyPressed@NMS_Event@@QAEXP6AXW4SDLKey@@@Z@Z 608221b0 f i NMS_Engine.obj
 0001:00021200       ?onKeyReleased@NMS_Event@@QAEXP6AXW4SDLKey@@@Z@Z 60822200 f i NMS_Engine.obj
 0001:00021250       ?onMouseMoved@NMS_Event@@QAEXP6AXHH@Z@Z 60822250 f i NMS_Engine.obj
 0001:000212a0       ??1NMS_Event@@QAE@XZ       608222a0 f i NMS_Engine.obj
 0001:00021370       ??0NMS_Event@@QAE@ABV0@@Z  60822370 f i NMS_Engine.obj
 0001:00021480       ??4NMS_Event@@QAEAAV0@ABV0@@Z 60822480 f i NMS_Engine.obj
 0001:00021550       ??0Thread@@QAE@ABV0@@Z     60822550 f i NMS_Engine.obj
 0001:000215a0       ??4Thread@@QAEAAV0@ABV0@@Z 608225a0 f i NMS_Engine.obj
 0001:000215e0       ??0NMS_SceneRenderer@@QAE@ABV0@@Z 608225e0 f i NMS_Engine.obj
 0001:000216b0       ??4NMS_SceneRenderer@@QAEAAV0@ABV0@@Z 608226b0 f i NMS_Engine.obj
 0001:00021770       ??1AmbientLight@@QAE@XZ    60822770 f i NMS_Engine.obj
 0001:000217b0       ??0AmbientLight@@QAE@ABV0@@Z 608227b0 f i NMS_Engine.obj
 0001:00021830       ??4AmbientLight@@QAEAAV0@ABV0@@Z 60822830 f i NMS_Engine.obj
 0001:000218c0       ??1LightSource@@QAE@XZ     608228c0 f i NMS_Engine.obj
 0001:00021950       ??0LightSource@@QAE@ABV0@@Z 60822950 f i NMS_Engine.obj
 0001:00021a00       ??4LightSource@@QAEAAV0@ABV0@@Z 60822a00 f i NMS_Engine.obj
 0001:00021ab0       ??4NMS_LightSystem@@QAEAAV0@ABV0@@Z 60822ab0 f i NMS_Engine.obj
 0001:00021ae0       ??1NMS_Framework@@QAE@XZ   60822ae0 f i NMS_Engine.obj
 0001:00021b30       ??0NMS_Framework@@QAE@ABV0@@Z 60822b30 f i NMS_Engine.obj
 0001:00021bd0       ??4NMS_Framework@@QAEAAV0@ABV0@@Z 60822bd0 f i NMS_Engine.obj
 0001:00021c70       ?InitEngine@@YA_NHHHPAD_N@Z 60822c70 f   NMS_Engine.obj
 0001:00021d40       ?Render@@YAXXZ             60822d40 f   NMS_Engine.obj
 0001:00021dc0       ?StartEngine@@YAXXZ        60822dc0 f   NMS_Engine.obj
 0001:00021e10       ?QuitEngine@@YAXXZ         60822e10 f   NMS_Engine.obj
 0001:00021e40       ??0?$list@TSDL_Event@@V?$allocator@TSDL_Event@@@std@@@std@@QAE@ABV01@@Z 60822e40 f i NMS_Engine.obj
 0001:00021fe0       ??1?$list@TSDL_Event@@V?$allocator@TSDL_Event@@@std@@@std@@QAE@XZ 60822fe0 f i NMS_Engine.obj
 0001:00022060       ??4?$list@TSDL_Event@@V?$allocator@TSDL_Event@@@std@@@std@@QAEAAV01@ABV01@@Z 60823060 f i NMS_Engine.obj
 0001:00022130       ??0?$function1@XH@boost@@QAE@ABV01@@Z 60823130 f i NMS_Engine.obj
 0001:00022180       ??0function_base@boost@@QAE@XZ 60823180 f i NMS_Engine.obj
 0001:000221c0       ??1?$function1@XH@boost@@QAE@XZ 608231c0 f i NMS_Engine.obj
 0001:00022200       ??4?$function1@XH@boost@@QAEAAV01@ABV01@@Z 60823200 f i NMS_Engine.obj
 0001:000222c0       ??0?$function1@XW4SDLKey@@@boost@@QAE@ABV01@@Z 608232c0 f i NMS_Engine.obj
 0001:00022310       ??1?$function1@XW4SDLKey@@@boost@@QAE@XZ 60823310 f i NMS_Engine.obj
 0001:00022350       ??4?$function1@XW4SDLKey@@@boost@@QAEAAV01@ABV01@@Z 60823350 f i NMS_Engine.obj
 0001:00022410       ??0?$function2@XHH@boost@@QAE@ABV01@@Z 60823410 f i NMS_Engine.obj
 0001:00022460       ??1?$function2@XHH@boost@@QAE@XZ 60823460 f i NMS_Engine.obj
 0001:000224a0       ??4?$function2@XHH@boost@@QAEAAV01@ABV01@@Z 608234a0 f i NMS_Engine.obj
 0001:00022560       ??1?$_List_val@TSDL_Event@@V?$allocator@TSDL_Event@@@std@@@std@@QAE@XZ 60823560 f i NMS_Engine.obj
 0001:000225a0       ??1?$_Iterator@$00@?$list@TSDL_Event@@V?$allocator@TSDL_Event@@@std@@@std@@QAE@XZ 608235a0 f i NMS_Engine.obj
 0001:000225e0       ??1?$_Const_iterator@$00@?$list@TSDL_Event@@V?$allocator@TSDL_Event@@@std@@@std@@QAE@XZ 608235e0 f i NMS_Engine.obj
 0001:00022620       ??0?$_Const_iterator@$00@?$list@TSDL_Event@@V?$allocator@TSDL_Event@@@std@@@std@@QAE@ABV012@@Z 60823620 f i NMS_Engine.obj
 0001:00022680       ??1?$_List_ptr@TSDL_Event@@V?$allocator@TSDL_Event@@@std@@@std@@QAE@XZ 60823680 f i NMS_Engine.obj
 0001:000226c0       ??1?$_Bidit@TSDL_Event@@HPBT1@ABT1@@std@@QAE@XZ 608236c0 f i NMS_Engine.obj
 0001:00022700       ??0?$_Bidit@TSDL_Event@@HPBT1@ABT1@@std@@QAE@ABU01@@Z 60823700 f i NMS_Engine.obj
 0001:00022750       ??1?$_List_nod@TSDL_Event@@V?$allocator@TSDL_Event@@@std@@@std@@QAE@XZ 60823750 f i NMS_Engine.obj
 0001:00022790       ??1?$_Iterator_with_base@Ubidirectional_iterator_tag@std@@TSDL_Event@@HPBT3@ABT3@V_Iterator_base@2@@std@@QAE@XZ 60823790 f i NMS_Engine.obj
 0001:000227d0       ??0?$_Iterator_with_base@Ubidirectional_iterator_tag@std@@TSDL_Event@@HPBT3@ABT3@V_Iterator_base@2@@std@@QAE@ABU01@@Z 608237d0 f i NMS_Engine.obj
 0001:00022820       ?begin@?$list@TSDL_Event@@V?$allocator@TSDL_Event@@@std@@@std@@QAE?AV?$_Iterator@$00@12@XZ 60823820 f i NMS_Engine.obj
 0001:000228a0       ?begin@?$list@TSDL_Event@@V?$allocator@TSDL_Event@@@std@@@std@@QBE?AV?$_Const_iterator@$00@12@XZ 608238a0 f i NMS_Engine.obj
 0001:00022920       ?end@?$list@TSDL_Event@@V?$allocator@TSDL_Event@@@std@@@std@@QBE?AV?$_Const_iterator@$00@12@XZ 60823920 f i NMS_Engine.obj
 0001:00022990       ?_Buynode@?$list@TSDL_Event@@V?$allocator@TSDL_Event@@@std@@@std@@IAEPAU_Node@?$_List_nod@TSDL_Event@@V?$allocator@TSDL_Event@@@std@@@2@XZ 60823990 f i NMS_Engine.obj
 0001:00022af0       ?_Tidy@?$list@TSDL_Event@@V?$allocator@TSDL_Event@@@std@@@std@@IAEXXZ 60823af0 f i NMS_Engine.obj
 0001:00022b90       ??0?$_List_val@TSDL_Event@@V?$allocator@TSDL_Event@@@std@@@std@@QAE@V?$allocator@TSDL_Event@@@1@@Z 60823b90 f i NMS_Engine.obj
 0001:00022c00       ??1?$_Container_base_aux_alloc_empty@V?$allocator@TSDL_Event@@@std@@@std@@IAE@XZ 60823c00 f i NMS_Engine.obj
 0001:00022c50       ??0?$allocator@TSDL_Event@@@std@@QAE@ABV01@@Z 60823c50 f i NMS_Engine.obj
 0001:00022c80       ?clear@?$function1@XH@boost@@QAEXXZ 60823c80 f i NMS_Engine.obj
 0001:00022cf0       ?has_trivial_copy_and_destroy@function_base@boost@@QBE_NXZ 60823cf0 f i NMS_Engine.obj
 0001:00022d30       ?assign_to_own@?$function1@XH@boost@@AAEXABV12@@Z 60823d30 f i NMS_Engine.obj
 0001:00022df0       ?empty@function_base@boost@@QBE_NXZ 60823df0 f i NMS_Engine.obj
 0001:00022e30       ?clear@?$function1@XW4SDLKey@@@boost@@QAEXXZ 60823e30 f i NMS_Engine.obj
 0001:00022ea0       ?assign_to_own@?$function1@XW4SDLKey@@@boost@@AAEXABV12@@Z 60823ea0 f i NMS_Engine.obj
 0001:00022f60       ?clear@?$function2@XHH@boost@@QAEXXZ 60823f60 f i NMS_Engine.obj
 0001:00022fd0       ?assign_to_own@?$function2@XHH@boost@@AAEXABV12@@Z 60823fd0 f i NMS_Engine.obj
 0001:00023090       ?_Nextnode@?$list@TSDL_Event@@V?$allocator@TSDL_Event@@@std@@@std@@KAAAPAU_Node@?$_List_nod@TSDL_Event@@V?$allocator@TSDL_Event@@@std@@@2@PAU342@@Z 60824090 f i NMS_Engine.obj
 0001:000230c0       ?_Prevnode@?$list@TSDL_Event@@V?$allocator@TSDL_Event@@@std@@@std@@KAAAPAU_Node@?$_List_nod@TSDL_Event@@V?$allocator@TSDL_Event@@@std@@@2@PAU342@@Z 608240c0 f i NMS_Engine.obj
 0001:000230f0       ?clear@?$list@TSDL_Event@@V?$allocator@TSDL_Event@@@std@@@std@@QAEXXZ 608240f0 f i NMS_Engine.obj
 0001:000231d0       ??0?$_List_ptr@TSDL_Event@@V?$allocator@TSDL_Event@@@std@@@std@@IAE@V?$allocator@TSDL_Event@@@1@@Z 608241d0 f i NMS_Engine.obj
 0001:00023240       ?deallocate@?$allocator@U_Node@?$_List_nod@TSDL_Event@@V?$allocator@TSDL_Event@@@std@@@std@@@std@@QAEXPAU_Node@?$_List_nod@TSDL_Event@@V?$allocator@TSDL_Event@@@std@@@2@I@Z 60824240 f i NMS_Engine.obj
 0001:00023290       ?allocate@?$allocator@U_Node@?$_List_nod@TSDL_Event@@V?$allocator@TSDL_Event@@@std@@@std@@@std@@QAEPAU_Node@?$_List_nod@TSDL_Event@@V?$allocator@TSDL_Event@@@std@@@2@I@Z 60824290 f i NMS_Engine.obj
 0001:000232e0       ?construct@?$allocator@PAU_Node@?$_List_nod@TSDL_Event@@V?$allocator@TSDL_Event@@@std@@@std@@@std@@QAEXPAPAU_Node@?$_List_nod@TSDL_Event@@V?$allocator@TSDL_Event@@@std@@@2@ABQAU342@@Z 608242e0 f i NMS_Engine.obj
 0001:00023330       ?destroy@?$allocator@PAU_Node@?$_List_nod@TSDL_Event@@V?$allocator@TSDL_Event@@@std@@@std@@@std@@QAEXPAPAU_Node@?$_List_nod@TSDL_Event@@V?$allocator@TSDL_Event@@@std@@@2@@Z 60824330 f i NMS_Engine.obj
 0001:00023380       ?get_vtable@?$function1@XH@boost@@ABEPAU?$basic_vtable1@XH@function@detail@2@XZ 60824380 f i NMS_Engine.obj
 0001:000233c0       ?get_vtable@?$function1@XW4SDLKey@@@boost@@ABEPAU?$basic_vtable1@XW4SDLKey@@@function@detail@2@XZ 608243c0 f i NMS_Engine.obj
 0001:00023400       ?get_vtable@?$function2@XHH@boost@@ABEPAU?$basic_vtable2@XHH@function@detail@2@XZ 60824400 f i NMS_Engine.obj
 0001:00023440       ??0?$_Iterator@$00@?$list@TSDL_Event@@V?$allocator@TSDL_Event@@@std@@@std@@QAE@PAU_Node@?$_List_nod@TSDL_Event@@V?$allocator@TSDL_Event@@@std@@@2@PBV12@@Z 60824440 f i NMS_Engine.obj
 0001:00023490       ??0?$_Const_iterator@$00@?$list@TSDL_Event@@V?$allocator@TSDL_Event@@@std@@@std@@QAE@PAU_Node@?$_List_nod@TSDL_Event@@V?$allocator@TSDL_Event@@@std@@@2@PBV12@@Z 60824490 f i NMS_Engine.obj
 0001:00023530       ?clear@?$basic_vtable1@XH@function@detail@boost@@QAEXAATfunction_buffer@234@@Z 60824530 f i NMS_Engine.obj
 0001:00023590       ?clear@?$basic_vtable1@XW4SDLKey@@@function@detail@boost@@QAEXAATfunction_buffer@234@@Z 60824590 f i NMS_Engine.obj
 0001:000235f0       ?clear@?$basic_vtable2@XHH@function@detail@boost@@QAEXAATfunction_buffer@234@@Z 608245f0 f i NMS_Engine.obj
 0001:00023650       ??0?$_Bidit@TSDL_Event@@HPBT1@ABT1@@std@@QAE@XZ 60824650 f i NMS_Engine.obj
 0001:000236a0       ??0?$_Iterator_with_base@Ubidirectional_iterator_tag@std@@TSDL_Event@@HPBT3@ABT3@V_Iterator_base@2@@std@@QAE@XZ 608246a0 f i NMS_Engine.obj
 0001:000236f0       ?_Orphan_ptr@?$list@TSDL_Event@@V?$allocator@TSDL_Event@@@std@@@std@@IBEXAAV12@PAU_Node@?$_List_nod@TSDL_Event@@V?$allocator@TSDL_Event@@@std@@@2@@Z 608246f0 f i NMS_Engine.obj
 0001:000237e0       ??0?$_List_nod@TSDL_Event@@V?$allocator@TSDL_Event@@@std@@@std@@IAE@V?$allocator@TSDL_Event@@@1@@Z 608247e0 f i NMS_Engine.obj
 0001:00023850       ?destroy@?$allocator@U_Node@?$_List_nod@TSDL_Event@@V?$allocator@TSDL_Event@@@std@@@std@@@std@@QAEXPAU_Node@?$_List_nod@TSDL_Event@@V?$allocator@TSDL_Event@@@std@@@2@@Z 60824850 f i NMS_Engine.obj
 0001:000238a0       ??0?$_Container_base_aux_alloc_empty@V?$allocator@TSDL_Event@@@std@@@std@@IAE@V?$allocator@TSDL_Event@@@1@@Z 608248a0 f i NMS_Engine.obj
 0001:000238f0       ??$?4P6AXH@Z@?$function1@XH@boost@@QAEAAV01@P6AXH@Z@Z 608248f0 f i NMS_Engine.obj
 0001:000239a0       ??$?4P6AXW4SDLKey@@@Z@?$function1@XW4SDLKey@@@boost@@QAEAAV01@P6AXW4SDLKey@@@Z@Z 608249a0 f i NMS_Engine.obj
 0001:00023a50       ??$?4P6AXHH@Z@?$function2@XHH@boost@@QAEAAV01@P6AXHH@Z@Z 60824a50 f i NMS_Engine.obj
 0001:00023b00       ??$insert@V?$_Const_iterator@$00@?$list@TSDL_Event@@V?$allocator@TSDL_Event@@@std@@@std@@@?$list@TSDL_Event@@V?$allocator@TSDL_Event@@@std@@@std@@QAEXV?$_Const_iterator@$00@01@00@Z 60824b00 f i NMS_Engine.obj
 0001:00023c30       ??$assign@V?$_Const_iterator@$00@?$list@TSDL_Event@@V?$allocator@TSDL_Event@@@std@@@std@@@?$list@TSDL_Event@@V?$allocator@TSDL_Event@@@std@@@std@@QAEXV?$_Const_iterator@$00@01@0@Z 60824c30 f i NMS_Engine.obj
 0001:00023d20       ??$?0TSDL_Event@@@?$allocator@PAU_Node@?$_List_nod@TSDL_Event@@V?$allocator@TSDL_Event@@@std@@@std@@@std@@QAE@ABV?$allocator@TSDL_Event@@@1@@Z 60824d20 f i NMS_Engine.obj
 0001:00023d50       ??$_Allocate@U_Node@?$_List_nod@TSDL_Event@@V?$allocator@TSDL_Event@@@std@@@std@@@std@@YAPAU_Node@?$_List_nod@TSDL_Event@@V?$allocator@TSDL_Event@@@std@@@0@IPAU120@@Z 60824d50 f i NMS_Engine.obj
 0001:00023dd0       ??$_Construct@PAU_Node@?$_List_nod@TSDL_Event@@V?$allocator@TSDL_Event@@@std@@@std@@PAU123@@std@@YAXPAPAU_Node@?$_List_nod@TSDL_Event@@V?$allocator@TSDL_Event@@@std@@@0@ABQAU120@@Z 60824dd0 f i NMS_Engine.obj
 0001:00023e50       ??$_Destroy@PAU_Node@?$_List_nod@TSDL_Event@@V?$allocator@TSDL_Event@@@std@@@std@@@std@@YAXPAPAU_Node@?$_List_nod@TSDL_Event@@V?$allocator@TSDL_Event@@@std@@@0@@Z 60824e50 f i NMS_Engine.obj
 0001:00023e80       ??$?0TSDL_Event@@@?$allocator@U_Node@?$_List_nod@TSDL_Event@@V?$allocator@TSDL_Event@@@std@@@std@@@std@@QAE@ABV?$allocator@TSDL_Event@@@1@@Z 60824e80 f i NMS_Engine.obj
 0001:00023eb0       ??$_Destroy@U_Node@?$_List_nod@TSDL_Event@@V?$allocator@TSDL_Event@@@std@@@std@@@std@@YAXPAU_Node@?$_List_nod@TSDL_Event@@V?$allocator@TSDL_Event@@@std@@@0@@Z 60824eb0 f i NMS_Engine.obj
 0001:00023ee0       ??$assign_to@P6AXH@Z@?$function1@XH@boost@@AAEXP6AXH@Z@Z 60824ee0 f i NMS_Engine.obj
 0001:00023f70       ??$assign_to@P6AXW4SDLKey@@@Z@?$function1@XW4SDLKey@@@boost@@AAEXP6AXW4SDLKey@@@Z@Z 60824f70 f i NMS_Engine.obj
 0001:00024000       ??$assign_to@P6AXHH@Z@?$function2@XHH@boost@@AAEXP6AXHH@Z@Z 60825000 f i NMS_Engine.obj
 0001:00024090       ??$_Iter_cat@V?$_Const_iterator@$00@?$list@TSDL_Event@@V?$allocator@TSDL_Event@@@std@@@std@@@std@@YA?AUbidirectional_iterator_tag@0@ABV?$_Const_iterator@$00@?$list@TSDL_Event@@V?$allocator@TSDL_Event@@@std@@@0@@Z 60825090 f i NMS_Engine.obj
 0001:000240f0       ??$_Insert@V?$_Const_iterator@$00@?$list@TSDL_Event@@V?$allocator@TSDL_Event@@@std@@@std@@@?$list@TSDL_Event@@V?$allocator@TSDL_Event@@@std@@@std@@QAEXV?$_Const_iterator@$00@01@00Uforward_iterator_tag@1@@Z 608250f0 f i NMS_Engine.obj
 0001:00024340       ??$_Assign@V?$_Const_iterator@$00@?$list@TSDL_Event@@V?$allocator@TSDL_Event@@@std@@@std@@@?$list@TSDL_Event@@V?$allocator@TSDL_Event@@@std@@@std@@QAEXV?$_Const_iterator@$00@01@0Uinput_iterator_tag@1@@Z 60825340 f i NMS_Engine.obj
 0001:00024480       ?_Insert@?$list@TSDL_Event@@V?$allocator@TSDL_Event@@@std@@@std@@QAEXV?$_Const_iterator@$00@12@ABTSDL_Event@@@Z 60825480 f i NMS_Engine.obj
 0001:00024590       ?erase@?$list@TSDL_Event@@V?$allocator@TSDL_Event@@@std@@@std@@QAE?AV?$_Iterator@$00@12@V?$_Const_iterator@$00@12@@Z 60825590 f i NMS_Engine.obj
 0001:00024770       ??D?$_Const_iterator@$00@?$list@TSDL_Event@@V?$allocator@TSDL_Event@@@std@@@std@@QBEABTSDL_Event@@XZ 60825770 f i NMS_Engine.obj
 0001:00024860       ??E?$_Const_iterator@$00@?$list@TSDL_Event@@V?$allocator@TSDL_Event@@@std@@@std@@QAEAAV012@XZ 60825860 f i NMS_Engine.obj
 0001:00024960       ??F?$_Const_iterator@$00@?$list@TSDL_Event@@V?$allocator@TSDL_Event@@@std@@@std@@QAEAAV012@XZ 60825960 f i NMS_Engine.obj
 0001:00024a60       ??9?$_Const_iterator@$00@?$list@TSDL_Event@@V?$allocator@TSDL_Event@@@std@@@std@@QBE_NABV012@@Z 60825a60 f i NMS_Engine.obj
 0001:00024ab0       ?manage@?$functor_manager@P6AXH@Z@function@detail@boost@@SAXABTfunction_buffer@234@AAT5234@W4functor_manager_operation_type@234@@Z 60825ab0 f i NMS_Engine.obj
 0001:00024b40       ?invoke@?$void_function_invoker1@P6AXH@ZXH@function@detail@boost@@SAXAATfunction_buffer@234@H@Z 60825b40 f i NMS_Engine.obj
 0001:00024b90       ?manage@?$functor_manager@P6AXW4SDLKey@@@Z@function@detail@boost@@SAXABTfunction_buffer@234@AAT5234@W4functor_manager_operation_type@234@@Z 60825b90 f i NMS_Engine.obj
 0001:00024c20       ?invoke@?$void_function_invoker1@P6AXW4SDLKey@@@ZXW41@@function@detail@boost@@SAXAATfunction_buffer@234@W4SDLKey@@@Z 60825c20 f i NMS_Engine.obj
 0001:00024c70       ?manage@?$functor_manager@P6AXHH@Z@function@detail@boost@@SAXABTfunction_buffer@234@AAT5234@W4functor_manager_operation_type@234@@Z 60825c70 f i NMS_Engine.obj
 0001:00024d00       ?invoke@?$void_function_invoker2@P6AXHH@ZXHH@function@detail@boost@@SAXAATfunction_buffer@234@HH@Z 60825d00 f i NMS_Engine.obj
 0001:00024d60       ?_Myval@?$list@TSDL_Event@@V?$allocator@TSDL_Event@@@std@@@std@@KAAATSDL_Event@@PAU_Node@?$_List_nod@TSDL_Event@@V?$allocator@TSDL_Event@@@std@@@2@@Z 60825d60 f i NMS_Engine.obj
 0001:00024d90       ?_Make_iter@?$list@TSDL_Event@@V?$allocator@TSDL_Event@@@std@@@std@@QBE?AV?$_Iterator@$00@12@V?$_Const_iterator@$00@12@@Z 60825d90 f i NMS_Engine.obj
 0001:00024e40       ?_Buynode@?$list@TSDL_Event@@V?$allocator@TSDL_Event@@@std@@@std@@IAEPAU_Node@?$_List_nod@TSDL_Event@@V?$allocator@TSDL_Event@@@std@@@2@PAU342@0ABTSDL_Event@@@Z 60825e40 f i NMS_Engine.obj
 0001:00024fc0       ?_Incsize@?$list@TSDL_Event@@V?$allocator@TSDL_Event@@@std@@@std@@IAEXI@Z 60825fc0 f i NMS_Engine.obj
 0001:000250b0       ??E?$_Const_iterator@$00@?$list@TSDL_Event@@V?$allocator@TSDL_Event@@@std@@@std@@QAE?AV012@H@Z 608260b0 f i NMS_Engine.obj
 0001:00025190       ??8?$_Const_iterator@$00@?$list@TSDL_Event@@V?$allocator@TSDL_Event@@@std@@@std@@QBE_NABV012@@Z 60826190 f i NMS_Engine.obj
 0001:000251f0       ?_Mynode@?$_Const_iterator@$00@?$list@TSDL_Event@@V?$allocator@TSDL_Event@@@std@@@std@@QBEPAU_Node@?$_List_nod@TSDL_Event@@V?$allocator@TSDL_Event@@@std@@@3@XZ 608261f0 f i NMS_Engine.obj
 0001:00025220       ?manager@?$functor_manager@P6AXH@Z@function@detail@boost@@CAXABTfunction_buffer@234@AAT5234@W4functor_manager_operation_type@234@Ufunction_ptr_tag@234@@Z 60826220 f i NMS_Engine.obj
 0001:00025270       ?manager@?$functor_manager@P6AXW4SDLKey@@@Z@function@detail@boost@@CAXABTfunction_buffer@234@AAT5234@W4functor_manager_operation_type@234@Ufunction_ptr_tag@234@@Z 60826270 f i NMS_Engine.obj
 0001:000252c0       ?manager@?$functor_manager@P6AXHH@Z@function@detail@boost@@CAXABTfunction_buffer@234@AAT5234@W4functor_manager_operation_type@234@Ufunction_ptr_tag@234@@Z 608262c0 f i NMS_Engine.obj
 0001:00025310       ?max_size@?$list@TSDL_Event@@V?$allocator@TSDL_Event@@@std@@@std@@QBEIXZ 60826310 f i NMS_Engine.obj
 0001:00025360       ?construct@?$allocator@TSDL_Event@@@std@@QAEXPATSDL_Event@@ABT3@@Z 60826360 f i NMS_Engine.obj
 0001:000253b0       ?_Compat@?$_Const_iterator@$00@?$list@TSDL_Event@@V?$allocator@TSDL_Event@@@std@@@std@@QBEXABV123@@Z 608263b0 f i NMS_Engine.obj
 0001:00025490       ?manage_ptr@?$functor_manager_common@P6AXH@Z@function@detail@boost@@SAXABTfunction_buffer@234@AAT5234@W4functor_manager_operation_type@234@@Z 60826490 f i NMS_Engine.obj
 0001:00025560       ?manage_ptr@?$functor_manager_common@P6AXW4SDLKey@@@Z@function@detail@boost@@SAXABTfunction_buffer@234@AAT5234@W4functor_manager_operation_type@234@@Z 60826560 f i NMS_Engine.obj
 0001:00025630       ?manage_ptr@?$functor_manager_common@P6AXHH@Z@function@detail@boost@@SAXABTfunction_buffer@234@AAT5234@W4functor_manager_operation_type@234@@Z 60826630 f i NMS_Engine.obj
 0001:00025700       ?max_size@?$allocator@TSDL_Event@@@std@@QBEIXZ 60826700 f i NMS_Engine.obj
 0001:00025760       ??$assign_to@P6AXH@Z@?$basic_vtable1@XH@function@detail@boost@@QAE_NP6AXH@ZAATfunction_buffer@123@@Z 60826760 f i NMS_Engine.obj
 0001:000257c0       ??$assign_to@P6AXW4SDLKey@@@Z@?$basic_vtable1@XW4SDLKey@@@function@detail@boost@@QAE_NP6AXW4SDLKey@@@ZAATfunction_buffer@123@@Z 608267c0 f i NMS_Engine.obj
 0001:00025820       ??$assign_to@P6AXHH@Z@?$basic_vtable2@XHH@function@detail@boost@@QAE_NP6AXHH@ZAATfunction_buffer@123@@Z 60826820 f i NMS_Engine.obj
 0001:00025880       ??$_Debug_range@V?$_Const_iterator@$00@?$list@TSDL_Event@@V?$allocator@TSDL_Event@@@std@@@std@@@std@@YAXV?$_Const_iterator@$00@?$list@TSDL_Event@@V?$allocator@TSDL_Event@@@std@@@0@0PB_WI@Z 60826880 f i NMS_Engine.obj
 0001:00025980       ??$_Construct@TSDL_Event@@T1@@std@@YAXPATSDL_Event@@ABT1@@Z 60826980 f i NMS_Engine.obj
 0001:00025a20       ??$assign_to@P6AXH@Z@?$basic_vtable1@XH@function@detail@boost@@AAE_NP6AXH@ZAATfunction_buffer@123@Ufunction_ptr_tag@123@@Z 60826a20 f i NMS_Engine.obj
 0001:00025a80       ??$assign_to@P6AXW4SDLKey@@@Z@?$basic_vtable1@XW4SDLKey@@@function@detail@boost@@AAE_NP6AXW4SDLKey@@@ZAATfunction_buffer@123@Ufunction_ptr_tag@123@@Z 60826a80 f i NMS_Engine.obj
 0001:00025ae0       ??$assign_to@P6AXHH@Z@?$basic_vtable2@XHH@function@detail@boost@@AAE_NP6AXHH@ZAATfunction_buffer@123@Ufunction_ptr_tag@123@@Z 60826ae0 f i NMS_Engine.obj
 0001:00025b40       ??$_Debug_range2@V?$_Const_iterator@$00@?$list@TSDL_Event@@V?$allocator@TSDL_Event@@@std@@@std@@@std@@YAXV?$_Const_iterator@$00@?$list@TSDL_Event@@V?$allocator@TSDL_Event@@@std@@@0@0PB_WIUinput_iterator_tag@0@@Z 60826b40 f i NMS_Engine.obj
 0001:00025bc0       ??0NMS_Event@@AAE@XZ       60826bc0 f   NMS_Event.obj
 0001:00025ca0       ?getInstance@NMS_Event@@SAAAV1@XZ 60826ca0 f   NMS_Event.obj
 0001:00025d70       ?destroy@NMS_Event@@SAXXZ  60826d70 f   NMS_Event.obj
 0001:00025e00       ??_GNMS_Event@@QAEPAXI@Z   60826e00 f i NMS_Event.obj
 0001:00025e60       ?pollEvents@NMS_Event@@QAEXXZ 60826e60 f   NMS_Event.obj
 0001:00025f00       ?processEvents@NMS_Event@@QAEXXZ 60826f00 f   NMS_Event.obj
 0001:00025fb0       ?handleEvent@NMS_Event@@QAEXTSDL_Event@@@Z 60826fb0 f   NMS_Event.obj
 0001:00026130       ??0?$list@TSDL_Event@@V?$allocator@TSDL_Event@@@std@@@std@@QAE@XZ 60827130 f i NMS_Event.obj
 0001:000261d0       ?size@?$list@TSDL_Event@@V?$allocator@TSDL_Event@@@std@@@std@@QBEIXZ 608271d0 f i NMS_Event.obj
 0001:00026200       ?front@?$list@TSDL_Event@@V?$allocator@TSDL_Event@@@std@@@std@@QAEAATSDL_Event@@XZ 60827200 f i NMS_Event.obj
 0001:000262c0       ?pop_front@?$list@TSDL_Event@@V?$allocator@TSDL_Event@@@std@@@std@@QAEXXZ 608272c0 f i NMS_Event.obj
 0001:000263a0       ?push_back@?$list@TSDL_Event@@V?$allocator@TSDL_Event@@@std@@@std@@QAEXABTSDL_Event@@@Z 608273a0 f i NMS_Event.obj
 0001:00026470       ??0?$function1@XH@boost@@QAE@XZ 60827470 f i NMS_Event.obj
 0001:000264c0       ??0?$function1@XW4SDLKey@@@boost@@QAE@XZ 608274c0 f i NMS_Event.obj
 0001:00026510       ??0?$function2@XHH@boost@@QAE@XZ 60827510 f i NMS_Event.obj
 0001:00026560       ?end@?$list@TSDL_Event@@V?$allocator@TSDL_Event@@@std@@@std@@QAE?AV?$_Iterator@$00@12@XZ 60827560 f i NMS_Event.obj
 0001:000265d0       ??0?$allocator@TSDL_Event@@@std@@QAE@XZ 608275d0 f i NMS_Event.obj
 0001:00026600       ??D?$_Iterator@$00@?$list@TSDL_Event@@V?$allocator@TSDL_Event@@@std@@@std@@QBEAATSDL_Event@@XZ 60827600 f i NMS_Event.obj
 0001:00026640       ??R?$function1@XH@boost@@QBEXH@Z 60827640 f i NMS_Event.obj
 0001:00026720       ??0bad_function_call@boost@@QAE@XZ 60827720 f i NMS_Event.obj
 0001:000267e0       ??0runtime_error@std@@QAE@ABV?$basic_string@DU?$char_traits@D@std@@V?$allocator@D@2@@1@@Z 608277e0 f i NMS_Event.obj
 0001:00026890       ??1runtime_error@std@@UAE@XZ 60827890 f i NMS_Event.obj
 0001:00026900       ?what@runtime_error@std@@UBEPBDXZ 60827900 f i NMS_Event.obj
 0001:00026950       ??_Eruntime_error@std@@UAEPAXI@Z 60827950 f i NMS_Event.obj
 0001:00026950       ??_Gruntime_error@std@@UAEPAXI@Z 60827950 f i NMS_Event.obj
 0001:000269b0       ??_Gbad_function_call@boost@@UAEPAXI@Z 608279b0 f i NMS_Event.obj
 0001:000269b0       ??_Ebad_function_call@boost@@UAEPAXI@Z 608279b0 f i NMS_Event.obj
 0001:00026a10       ??1bad_function_call@boost@@UAE@XZ 60827a10 f i NMS_Event.obj
 0001:00026a50       ??R?$function1@XW4SDLKey@@@boost@@QBEXW4SDLKey@@@Z 60827a50 f i NMS_Event.obj
 0001:00026b30       ??R?$function2@XHH@boost@@QBEXHH@Z 60827b30 f i NMS_Event.obj
 0001:00026c10       ??$throw_exception@Vbad_function_call@boost@@@boost@@YAXABVbad_function_call@0@@Z 60827c10 f i NMS_Event.obj
 0001:00026ce0       ?throw_exception_assert_compatibility@boost@@YAXABVexception@std@@@Z 60827ce0 f i NMS_Event.obj
 0001:00026d10       ??0runtime_error@std@@QAE@ABV01@@Z 60827d10 f i NMS_Event.obj
 0001:00026dc0       ??0?$clone_impl@U?$error_info_injector@Vbad_function_call@boost@@@exception_detail@boost@@@exception_detail@boost@@QAE@ABV012@@Z 60827dc0 f i NMS_Event.obj
 0001:00026e60       ??0?$error_info_injector@Vbad_function_call@boost@@@exception_detail@boost@@QAE@ABU012@@Z 60827e60 f i NMS_Event.obj
 0001:00026f30       ??0bad_function_call@boost@@QAE@ABV01@@Z 60827f30 f i NMS_Event.obj
 0001:00026f90       ??0exception@boost@@QAE@ABV01@@Z 60827f90 f i NMS_Event.obj
 0001:00027010       ??0clone_base@exception_detail@boost@@QAE@ABV012@@Z 60828010 f i NMS_Event.obj
 0001:00027050       ??_Eclone_base@exception_detail@boost@@UAEPAXI@Z 60828050 f i NMS_Event.obj
 0001:00027050       ??_Gclone_base@exception_detail@boost@@UAEPAXI@Z 60828050 f i NMS_Event.obj
 0001:000270b0       ??1clone_base@exception_detail@boost@@UAE@XZ 608280b0 f i NMS_Event.obj
 0001:000270f0       ??_G?$clone_impl@U?$error_info_injector@Vbad_function_call@boost@@@exception_detail@boost@@@exception_detail@boost@@UAEPAXI@Z 608280f0 f i NMS_Event.obj
 0001:000270f0       ??_E?$clone_impl@U?$error_info_injector@Vbad_function_call@boost@@@exception_detail@boost@@@exception_detail@boost@@UAEPAXI@Z 608280f0 f i NMS_Event.obj
 0001:00027150       ??_E?$error_info_injector@Vbad_function_call@boost@@@exception_detail@boost@@UAEPAXI@Z 60828150 f i NMS_Event.obj
 0001:00027150       ??_G?$error_info_injector@Vbad_function_call@boost@@@exception_detail@boost@@UAEPAXI@Z 60828150 f i NMS_Event.obj
 0001:000271b0       ??0?$refcount_ptr@Uerror_info_container@exception_detail@boost@@@exception_detail@boost@@QAE@ABV012@@Z 608281b0 f i NMS_Event.obj
 0001:00027200       ?add_ref@?$refcount_ptr@Uerror_info_container@exception_detail@boost@@@exception_detail@boost@@AAEXXZ 60828200 f i NMS_Event.obj
 0001:00027260       ??1?$error_info_injector@Vbad_function_call@boost@@@exception_detail@boost@@UAE@XZ 60828260 f i NMS_Event.obj
 0001:000272c0       ??1exception@boost@@MAE@XZ 608282c0 f i NMS_Event.obj
 0001:00027310       ??1?$refcount_ptr@Uerror_info_container@exception_detail@boost@@@exception_detail@boost@@QAE@XZ 60828310 f i NMS_Event.obj
 0001:00027350       ?release@?$refcount_ptr@Uerror_info_container@exception_detail@boost@@@exception_detail@boost@@AAEXXZ 60828350 f i NMS_Event.obj
 0001:000273c0       ??1?$clone_impl@U?$error_info_injector@Vbad_function_call@boost@@@exception_detail@boost@@@exception_detail@boost@@UAE@XZ 608283c0 f i NMS_Event.obj
 0001:00027430       ?clone@?$clone_impl@U?$error_info_injector@Vbad_function_call@boost@@@exception_detail@boost@@@exception_detail@boost@@EBEPBVclone_base@23@XZ 60828430 f i NMS_Event.obj
 0001:00027520       ?rethrow@?$clone_impl@U?$error_info_injector@Vbad_function_call@boost@@@exception_detail@boost@@@exception_detail@boost@@EBEXXZ 60828520 f i NMS_Event.obj
 0001:00027580       ??$enable_error_info@Vbad_function_call@boost@@@boost@@YA?AU?$error_info_injector@Vbad_function_call@boost@@@exception_detail@0@ABVbad_function_call@0@@Z 60828580 f i NMS_Event.obj
 0001:000275e0       ??$enable_current_exception@U?$error_info_injector@Vbad_function_call@boost@@@exception_detail@boost@@@boost@@YA?AV?$clone_impl@U?$error_info_injector@Vbad_function_call@boost@@@exception_detail@boost@@@exception_detail@0@ABU?$error_info_injector@Vbad_function_call@boost@@@20@@Z 608285e0 f i NMS_Event.obj
 0001:00027640       ??0?$error_info_injector@Vbad_function_call@boost@@@exception_detail@boost@@QAE@ABVbad_function_call@2@@Z 60828640 f i NMS_Event.obj
 0001:000276e0       ??0exception@boost@@IAE@XZ 608286e0 f i NMS_Event.obj
 0001:00027750       ??0?$refcount_ptr@Uerror_info_container@exception_detail@boost@@@exception_detail@boost@@QAE@XZ 60828750 f i NMS_Event.obj
 0001:00027790       ??0?$clone_impl@U?$error_info_injector@Vbad_function_call@boost@@@exception_detail@boost@@@exception_detail@boost@@QAE@ABU?$error_info_injector@Vbad_function_call@boost@@@12@@Z 60828790 f i NMS_Event.obj
 0001:00027890       ?copy_boost_exception@exception_detail@boost@@YAXPAVexception@2@PBV32@@Z 60828890 f i NMS_Event.obj
 0001:000279d0       ??4?$refcount_ptr@Uerror_info_container@exception_detail@boost@@@exception_detail@boost@@QAEAAV012@ABV012@@Z 608289d0 f i NMS_Event.obj
 0001:00027a20       ?get@?$refcount_ptr@Uerror_info_container@exception_detail@boost@@@exception_detail@boost@@QBEPAUerror_info_container@23@XZ 60828a20 f i NMS_Event.obj
 0001:00027a50       ?adopt@?$refcount_ptr@Uerror_info_container@exception_detail@boost@@@exception_detail@boost@@QAEXPAUerror_info_container@23@@Z 60828a50 f i NMS_Event.obj
 0001:00027ab0       ??0clone_base@exception_detail@boost@@QAE@XZ 60828ab0 f i NMS_Event.obj
 0001:00027af0       ??_E?$clone_impl@U?$error_info_injector@Vbad_function_call@boost@@@exception_detail@boost@@@exception_detail@boost@@WCM@AEPAXI@Z 60828af0 f i NMS_Event.obj
 0001:00027b00       ??_E?$error_info_injector@Vbad_function_call@boost@@@exception_detail@boost@@WCM@AEPAXI@Z 60828b00 f i NMS_Event.obj
 0001:00027b10       ??_E?$clone_impl@U?$error_info_injector@Vbad_function_call@boost@@@exception_detail@boost@@@exception_detail@boost@@WEA@AEPAXI@Z 60828b10 f i NMS_Event.obj
 0001:00027b20       ??0NMS_Framework@@QAE@XZ   60828b20 f   NMS_Framework.obj
 0001:00027bc0       ?NMSInit@NMS_Framework@@QAE_NHHHPAD_N@Z 60828bc0 f   NMS_Framework.obj
 0001:00027e20       ?NMSQuit@NMS_Framework@@QAEXH@Z 60828e20 f   NMS_Framework.obj
 0001:00027e60       ?CalculateFrameRate@NMS_Framework@@QAEXXZ 60828e60 f   NMS_Framework.obj
 0001:00027eb0       ?run@NMS_Framework@@QAEXXZ 60828eb0 f   NMS_Framework.obj
 0001:00027f40       ?cleanup@NMS_Framework@@QAEXXZ 60828f40 f   NMS_Framework.obj
 0001:00027fe0       ??_GSceneGraphNode@@QAEPAXI@Z 60828fe0 f i NMS_Framework.obj
 0001:00028040       ?render@NMS_Framework@@QAEXXZ 60829040 f   NMS_Framework.obj
 0001:00028090       ?getScene@NMS_Framework@@QAEPAVSceneGraphNode@@XZ 60829090 f   NMS_Framework.obj
 0001:000280c0       ?getRenderer@NMS_Framework@@QAEPAVNMS_SceneRenderer@@XZ 608290c0 f   NMS_Framework.obj
 0001:000280f0       ?enableWireframe@NMS_Framework@@QAEX_N@Z 608290f0 f   NMS_Framework.obj
 0001:00028170       ??$onQuit@VNMS_Framework@@@NMS_Event@@QAEXPAVNMS_Framework@@P81@AEXH@Z@Z 60829170 f i NMS_Framework.obj
 0001:000281f0       ??$mem_fun@XVNMS_Framework@@H@std@@YA?AV?$mem_fun1_t@XVNMS_Framework@@H@0@P8NMS_Framework@@AEXH@Z@Z 608291f0 f i NMS_Framework.obj
 0001:00028240       ??$bind1st@V?$mem_fun1_t@XVNMS_Framework@@H@std@@PAVNMS_Framework@@@std@@YA?AV?$binder1st@V?$mem_fun1_t@XVNMS_Framework@@H@std@@@0@ABV?$mem_fun1_t@XVNMS_Framework@@H@0@ABQAVNMS_Framework@@@Z 60829240 f i NMS_Framework.obj
 0001:000282c0       ??$?4V?$binder1st@V?$mem_fun1_t@XVNMS_Framework@@H@std@@@std@@@?$function1@XH@boost@@QAEAAV01@V?$binder1st@V?$mem_fun1_t@XVNMS_Framework@@H@std@@@std@@@Z 608292c0 f i NMS_Framework.obj
 0001:00028380       ??0?$mem_fun1_t@XVNMS_Framework@@H@std@@QAE@P8NMS_Framework@@AEXH@Z@Z 60829380 f i NMS_Framework.obj
 0001:000283c0       ??0?$binder1st@V?$mem_fun1_t@XVNMS_Framework@@H@std@@@std@@QAE@ABV?$mem_fun1_t@XVNMS_Framework@@H@1@ABQAVNMS_Framework@@@Z 608293c0 f i NMS_Framework.obj
 0001:00028410       ??$assign_to@V?$binder1st@V?$mem_fun1_t@XVNMS_Framework@@H@std@@@std@@@?$function1@XH@boost@@AAEXV?$binder1st@V?$mem_fun1_t@XVNMS_Framework@@H@std@@@std@@@Z 60829410 f i NMS_Framework.obj
 0001:000284a0       ?manage@?$functor_manager@V?$binder1st@V?$mem_fun1_t@XVNMS_Framework@@H@std@@@std@@@function@detail@boost@@SAXABTfunction_buffer@234@AAT5234@W4functor_manager_operation_type@234@@Z 608294a0 f i NMS_Framework.obj
 0001:00028530       ?invoke@?$void_function_obj_invoker1@V?$binder1st@V?$mem_fun1_t@XVNMS_Framework@@H@std@@@std@@XH@function@detail@boost@@SAXAATfunction_buffer@234@H@Z 60829530 f i NMS_Framework.obj
 0001:00028590       ??R?$binder1st@V?$mem_fun1_t@XVNMS_Framework@@H@std@@@std@@QBEXAAH@Z 60829590 f i NMS_Framework.obj
 0001:000285e0       ?manager@?$functor_manager@V?$binder1st@V?$mem_fun1_t@XVNMS_Framework@@H@std@@@std@@@function@detail@boost@@CAXABTfunction_buffer@234@AAT5234@W4functor_manager_operation_type@234@Ufunction_obj_tag@234@@Z 608295e0 f i NMS_Framework.obj
 0001:00028640       ??R?$mem_fun1_t@XVNMS_Framework@@H@std@@QBEXPAVNMS_Framework@@H@Z 60829640 f i NMS_Framework.obj
 0001:00028690       ?manager@?$functor_manager@V?$binder1st@V?$mem_fun1_t@XVNMS_Framework@@H@std@@@std@@@function@detail@boost@@CAXABTfunction_buffer@234@AAT5234@W4functor_manager_operation_type@234@U?$bool_@$00@mpl@4@@Z 60829690 f i NMS_Framework.obj
 0001:000286e0       ?manage_small@?$functor_manager_common@V?$binder1st@V?$mem_fun1_t@XVNMS_Framework@@H@std@@@std@@@function@detail@boost@@SAXABTfunction_buffer@234@AAT5234@W4functor_manager_operation_type@234@@Z 608296e0 f i NMS_Framework.obj
 0001:000287d0       ??$assign_to@V?$binder1st@V?$mem_fun1_t@XVNMS_Framework@@H@std@@@std@@@?$basic_vtable1@XH@function@detail@boost@@QAE_NV?$binder1st@V?$mem_fun1_t@XVNMS_Framework@@H@std@@@std@@AATfunction_buffer@123@@Z 608297d0 f i NMS_Framework.obj
 0001:00028830       ??$assign_to@V?$binder1st@V?$mem_fun1_t@XVNMS_Framework@@H@std@@@std@@@?$basic_vtable1@XH@function@detail@boost@@AAE_NV?$binder1st@V?$mem_fun1_t@XVNMS_Framework@@H@std@@@std@@AATfunction_buffer@123@Ufunction_obj_tag@123@@Z 60829830 f i NMS_Framework.obj
 0001:000288c0       ?has_empty_target@function@detail@boost@@YA_NZZ 608298c0 f i NMS_Framework.obj
 0001:000288f0       ??$addressof@V?$binder1st@V?$mem_fun1_t@XVNMS_Framework@@H@std@@@std@@@boost@@YAPAV?$binder1st@V?$mem_fun1_t@XVNMS_Framework@@H@std@@@std@@AAV12@@Z 608298f0 f i NMS_Framework.obj
 0001:00028950       ??$assign_functor@V?$binder1st@V?$mem_fun1_t@XVNMS_Framework@@H@std@@@std@@@?$basic_vtable1@XH@function@detail@boost@@AAEXV?$binder1st@V?$mem_fun1_t@XVNMS_Framework@@H@std@@@std@@AATfunction_buffer@123@U?$bool_@$00@mpl@3@@Z 60829950 f i NMS_Framework.obj
 0001:000289d0       ?f@?$addressof_impl@V?$binder1st@V?$mem_fun1_t@XVNMS_Framework@@H@std@@@std@@@detail@boost@@SAPAV?$binder1st@V?$mem_fun1_t@XVNMS_Framework@@H@std@@@std@@AAV45@J@Z 608299d0 f i NMS_Framework.obj
 0001:00028a00       ??0?$addr_impl_ref@V?$binder1st@V?$mem_fun1_t@XVNMS_Framework@@H@std@@@std@@@detail@boost@@QAE@AAV?$binder1st@V?$mem_fun1_t@XVNMS_Framework@@H@std@@@std@@@Z 60829a00 f i NMS_Framework.obj
 0001:00028a40       ??B?$addr_impl_ref@V?$binder1st@V?$mem_fun1_t@XVNMS_Framework@@H@std@@@std@@@detail@boost@@QBEAAV?$binder1st@V?$mem_fun1_t@XVNMS_Framework@@H@std@@@std@@XZ 60829a40 f i NMS_Framework.obj
 0001:00028a70       ??0LightSource@@QAE@XZ     60829a70 f   NMS_LightSystem.obj
 0001:00028b70       ?getAttFact@LightSource@@QAEMXZ 60829b70 f   NMS_LightSystem.obj
 0001:00028ba0       ?getAttType@LightSource@@QAEIXZ 60829ba0 f   NMS_LightSystem.obj
 0001:00028bd0       ?getIntDis@LightSource@@QAEMXZ 60829bd0 f   NMS_LightSystem.obj
 0001:00028c00       ?getLightNumber@LightSource@@QAEIXZ 60829c00 f   NMS_LightSystem.obj
 0001:00028c30       ?getLightValue@LightSource@@QAE?AVVector@@XZ 60829c30 f   NMS_LightSystem.obj
 0001:00028ca0       ?setLightNumber@LightSource@@QAEXI@Z 60829ca0 f   NMS_LightSystem.obj
 0001:00028ce0       ?setLightValue@LightSource@@QAEXPBVVector@@@Z 60829ce0 f   NMS_LightSystem.obj
 0001:00028d30       ?setIntDis@LightSource@@QAEXM@Z 60829d30 f   NMS_LightSystem.obj
 0001:00028d70       ?setAttType@LightSource@@QAEXI@Z 60829d70 f   NMS_LightSystem.obj
 0001:00028db0       ?setAttFact@LightSource@@QAEXM@Z 60829db0 f   NMS_LightSystem.obj
 0001:00028df0       ??0NMS_LightSystem@@QAE@XZ 60829df0 f   NMS_LightSystem.obj
 0001:00028e20       ?Enable@NMS_LightSystem@@QAEXH@Z 60829e20 f   NMS_LightSystem.obj
 0001:00028eb0       ?Disable@NMS_LightSystem@@QAEXXZ 60829eb0 f   NMS_LightSystem.obj
 0001:00028f00       ??0AmbientLight@@QAE@XZ    60829f00 f   NMS_LightSystem.obj
 0001:00028f60       ?setGlobalAmbient@AmbientLight@@QAEXPBVVector@@@Z 60829f60 f   NMS_LightSystem.obj
 0001:00028ff0       ?getGlobalAmbient@AmbientLight@@QAE?AVVector@@XZ 60829ff0 f   NMS_LightSystem.obj
 0001:00029120       ?render@AmbientLight@@UAEXM@Z 6082a120 f   NMS_LightSystem.obj
 0001:00029190       ?defineLight@LightSource@@QAEXV1@@Z 6082a190 f   NMS_LightSystem.obj
 0001:00029250       ?render@LightSource@@UAEXM@Z 6082a250 f   NMS_LightSystem.obj
 0001:000296e0       ?initMutexes@@YAXXZ        6082a6e0 f   NMS_Mutex.obj
 0001:00029720       ??0SceneGraphNode@@QAE@XZ  6082a720 f   NMS_SceneGraph.obj
 0001:00029800       ?addChild@SceneGraphNode@@QAEXPAV1@@Z 6082a800 f   NMS_SceneGraph.obj
 0001:00029860       ?setParent@SceneGraphNode@@IAEXPAV1@@Z 6082a860 f   NMS_SceneGraph.obj
 0001:000298a0       ?traverse_df@SceneGraphNode@@QAEXPAVSceneGraphVisitor@@@Z 6082a8a0 f   NMS_SceneGraph.obj
 0001:00029960       ?traverse_df@SceneGraphNode@@QAEXPAVSceneGraphVisitor@@PAVMatrix@@@Z 6082a960 f   NMS_SceneGraph.obj
 0001:00029a20       ?backtrack_to_root@SceneGraphNode@@QAEXPAVSceneGraphVisitor@@PAVMatrix@@@Z 6082aa20 f   NMS_SceneGraph.obj
 0001:00029aa0       ??0TransformationNode@@QAE@XZ 6082aaa0 f   NMS_SceneGraph.obj
 0001:00029b30       ??0TransformationNode@@QAE@VMatrix@@@Z 6082ab30 f   NMS_SceneGraph.obj
 0001:00029be0       ?multiply@TransformationNode@@QAEXVMatrix@@@Z 6082abe0 f   NMS_SceneGraph.obj
 0001:00029cb0       ?before@TransformationNode@@UAEXPAVSceneGraphVisitor@@PAVMatrix@@@Z 6082acb0 f   NMS_SceneGraph.obj
 0001:00029d00       ?after@TransformationNode@@UAEXPAVSceneGraphVisitor@@PAVMatrix@@@Z 6082ad00 f   NMS_SceneGraph.obj
 0001:00029dc0       ??0GeometryNode@@QAE@XZ    6082adc0 f   NMS_SceneGraph.obj
 0001:00029e20       ??0GeometryNode@@QAE@PAVNMS_Mesh@@PAVbtRigidBody@@@Z 6082ae20 f   NMS_SceneGraph.obj
 0001:00029e80       ??0GeometryNode@@QAE@PAVNMS_Mesh@@PAVbtRigidBody@@VMatrix@@@Z 6082ae80 f   NMS_SceneGraph.obj
 0001:00029f40       ?before@GeometryNode@@UAEXPAVSceneGraphVisitor@@PAVMatrix@@@Z 6082af40 f   NMS_SceneGraph.obj
 0001:00029fc0       ?after@GeometryNode@@UAEXPAVSceneGraphVisitor@@PAVMatrix@@@Z 6082afc0 f   NMS_SceneGraph.obj
 0001:0002a030       ??0?$vector@PAVSceneGraphNode@@V?$allocator@PAVSceneGraphNode@@@std@@@std@@QAE@XZ 6082b030 f i NMS_SceneGraph.obj
 0001:0002a0d0       ??A?$vector@PAVSceneGraphNode@@V?$allocator@PAVSceneGraphNode@@@std@@@std@@QAEAAPAVSceneGraphNode@@I@Z 6082b0d0 f i NMS_SceneGraph.obj
 0001:0002a200       ?push_back@?$vector@PAVSceneGraphNode@@V?$allocator@PAVSceneGraphNode@@@std@@@std@@QAEXABQAVSceneGraphNode@@@Z 6082b200 f i NMS_SceneGraph.obj
 0001:0002a330       ?insert@?$vector@PAVSceneGraphNode@@V?$allocator@PAVSceneGraphNode@@@std@@@std@@QAE?AV?$_Vector_iterator@PAVSceneGraphNode@@V?$allocator@PAVSceneGraphNode@@@std@@@2@V?$_Vector_const_iterator@PAVSceneGraphNode@@V?$allocator@PAVSceneGraphNode@@@std@@@2@ABQAVSceneGraphNode@@@Z 6082b330 f i NMS_SceneGraph.obj
 0001:0002a4c0       ?_Ufill@?$vector@PAVSceneGraphNode@@V?$allocator@PAVSceneGraphNode@@@std@@@std@@IAEPAPAVSceneGraphNode@@PAPAV3@IABQAV3@@Z 6082b4c0 f i NMS_SceneGraph.obj
 0001:0002a520       ??0?$allocator@PAVSceneGraphNode@@@std@@QAE@XZ 6082b520 f i NMS_SceneGraph.obj
 0001:0002a550       ?_Insert_n@?$vector@PAVSceneGraphNode@@V?$allocator@PAVSceneGraphNode@@@std@@@std@@IAEXV?$_Vector_const_iterator@PAVSceneGraphNode@@V?$allocator@PAVSceneGraphNode@@@std@@@2@IABQAVSceneGraphNode@@@Z 6082b550 f i NMS_SceneGraph.obj
 0001:0002a9a0       ??H?$_Vector_iterator@PAVSceneGraphNode@@V?$allocator@PAVSceneGraphNode@@@std@@@std@@QBE?AV01@H@Z 6082b9a0 f i NMS_SceneGraph.obj
 0001:0002aa80       ??0?$_Vector_iterator@PAVSceneGraphNode@@V?$allocator@PAVSceneGraphNode@@@std@@@std@@QAE@ABV01@@Z 6082ba80 f i NMS_SceneGraph.obj
 0001:0002aad0       ??Y?$_Vector_iterator@PAVSceneGraphNode@@V?$allocator@PAVSceneGraphNode@@@std@@@std@@QAEAAV01@H@Z 6082bad0 f i NMS_SceneGraph.obj
 0001:0002ab20       ??Y?$_Vector_const_iterator@PAVSceneGraphNode@@V?$allocator@PAVSceneGraphNode@@@std@@@std@@QAEAAV01@H@Z 6082bb20 f i NMS_SceneGraph.obj
 0001:0002ac60       ??$unchecked_uninitialized_fill_n@PAPAVSceneGraphNode@@IPAV1@V?$allocator@PAVSceneGraphNode@@@std@@@stdext@@YAXPAPAVSceneGraphNode@@IABQAV1@AAV?$allocator@PAVSceneGraphNode@@@std@@@Z 6082bc60 f i NMS_SceneGraph.obj
 0001:0002ace0       ??$_Umove@PAPAVSceneGraphNode@@@?$vector@PAVSceneGraphNode@@V?$allocator@PAVSceneGraphNode@@@std@@@std@@IAEPAPAVSceneGraphNode@@PAPAV2@00@Z 6082bce0 f i NMS_SceneGraph.obj
 0001:0002ad40       ??$fill@PAPAVSceneGraphNode@@PAV1@@std@@YAXPAPAVSceneGraphNode@@0ABQAV1@@Z 6082bd40 f i NMS_SceneGraph.obj
 0001:0002ada0       ??$_Unchecked_move_backward@PAPAVSceneGraphNode@@PAPAV1@@stdext@@YAPAPAVSceneGraphNode@@PAPAV1@00@Z 6082bda0 f i NMS_SceneGraph.obj
 0001:0002ae40       ??$_Uninit_fill_n@PAPAVSceneGraphNode@@IPAV1@V?$allocator@PAVSceneGraphNode@@@std@@@std@@YAXPAPAVSceneGraphNode@@IABQAV1@AAV?$allocator@PAVSceneGraphNode@@@0@U_Scalar_ptr_iterator_tag@0@U_Range_checked_iterator_tag@0@@Z 6082be40 f i NMS_SceneGraph.obj
 0001:0002ae90       ??$_Unchecked_uninitialized_move@PAPAVSceneGraphNode@@PAPAV1@V?$allocator@PAVSceneGraphNode@@@std@@@stdext@@YAPAPAVSceneGraphNode@@PAPAV1@00AAV?$allocator@PAVSceneGraphNode@@@std@@@Z 6082be90 f i NMS_SceneGraph.obj
 0001:0002af20       ??$_Fill@PAPAVSceneGraphNode@@PAV1@@std@@YAXPAPAVSceneGraphNode@@0ABQAV1@@Z 6082bf20 f i NMS_SceneGraph.obj
 0001:0002af90       ??$_Move_cat@PAPAVSceneGraphNode@@@std@@YA?AU_Undefined_move_tag@0@ABQAPAVSceneGraphNode@@@Z 6082bf90 f i NMS_SceneGraph.obj
 0001:0002aff0       ??$_Move_backward_opt@PAPAVSceneGraphNode@@PAPAV1@Urandom_access_iterator_tag@std@@U_Undefined_move_tag@3@@std@@YAPAPAVSceneGraphNode@@PAPAV1@00Urandom_access_iterator_tag@0@U_Undefined_move_tag@0@U_Range_checked_iterator_tag@0@@Z 6082bff0 f i NMS_SceneGraph.obj
 0001:0002b070       ??$unchecked_fill_n@PAPAVSceneGraphNode@@IPAV1@@stdext@@YAXPAPAVSceneGraphNode@@IABQAV1@@Z 6082c070 f i NMS_SceneGraph.obj
 0001:0002b0e0       ??$_Uninit_move@PAPAVSceneGraphNode@@PAPAV1@V?$allocator@PAVSceneGraphNode@@@std@@U_Undefined_move_tag@3@@std@@YAPAPAVSceneGraphNode@@PAPAV1@00AAV?$allocator@PAVSceneGraphNode@@@0@U_Undefined_move_tag@0@U_Range_checked_iterator_tag@0@@Z 6082c0e0 f i NMS_SceneGraph.obj
 0001:0002b130       ??$_Copy_backward_opt@PAPAVSceneGraphNode@@PAPAV1@Urandom_access_iterator_tag@std@@@std@@YAPAPAVSceneGraphNode@@PAPAV1@00Urandom_access_iterator_tag@0@U_Scalar_ptr_iterator_tag@0@U_Range_checked_iterator_tag@0@@Z 6082c130 f i NMS_SceneGraph.obj
 0001:0002b1f0       ??$_Fill_n@PAPAVSceneGraphNode@@IPAV1@@std@@YAXPAPAVSceneGraphNode@@IABQAV1@Urandom_access_iterator_tag@0@U_Range_checked_iterator_tag@0@@Z 6082c1f0 f i NMS_SceneGraph.obj
 0001:0002b260       ??$_Fill_n@PAPAVSceneGraphNode@@IPAV1@@std@@YAXPAPAVSceneGraphNode@@IABQAV1@U_Range_checked_iterator_tag@0@@Z 6082c260 f i NMS_SceneGraph.obj
 0001:0002b2b0       ??0NMS_SceneRenderer@@QAE@XZ 6082c2b0 f   NMS_SceneRenderer.obj
 0001:0002b330       ??0NMS_SceneRenderer@@QAE@PAVnms_physics@@@Z 6082c330 f   NMS_SceneRenderer.obj
 0001:0002b3c0       ?initRendering@NMS_SceneRenderer@@QAE_NXZ 6082c3c0 f   NMS_SceneRenderer.obj
 0001:0002b630       ?up@NMS_SceneRenderer@@QAEXXZ 6082c630 f   NMS_SceneRenderer.obj
 0001:0002b680       ?down@NMS_SceneRenderer@@QAEXXZ 6082c680 f   NMS_SceneRenderer.obj
 0001:0002b700       ?run@NMS_SceneRenderer@@UAEHXZ 6082c700 f   NMS_SceneRenderer.obj
 0001:0002b750       ?renderingLoop@NMS_SceneRenderer@@QAEHXZ 6082c750 f   NMS_SceneRenderer.obj
 0001:0002b7e0       ?render@NMS_SceneRenderer@@QAEXXZ 6082c7e0 f   NMS_SceneRenderer.obj
 0001:0002b920       ?setScene@NMS_SceneRenderer@@QAEXPAVSceneGraphNode@@@Z 6082c920 f   NMS_SceneRenderer.obj
 0001:0002b960       ?setCurrentCamera@NMS_SceneRenderer@@QAEXPAVCameraNode@@@Z 6082c960 f   NMS_SceneRenderer.obj
 0001:0002b9a0       ?sg_before@NMS_SceneRenderer@@UAEXVMatrix@@PAVNMS_Mesh@@PAVbtRigidBody@@@Z 6082c9a0 f   NMS_SceneRenderer.obj
 0001:0002bac0       ?sg_after@NMS_SceneRenderer@@UAEXVMatrix@@PAVNMS_Mesh@@@Z 6082cac0 f   NMS_SceneRenderer.obj
 0001:0002bb10       ?CalculateFrameRate@NMS_SceneRenderer@@QAEXXZ 6082cb10 f   NMS_SceneRenderer.obj
 0001:0002bbf0       ?applyPhysics@NMS_SceneRenderer@@QAEXPAVbtRigidBody@@@Z 6082cbf0 f   NMS_SceneRenderer.obj
 0001:0002bcd0       ??0btTransform@@QAE@XZ     6082ccd0 f i NMS_SceneRenderer.obj
 0001:0002bd20       ??0btVector3@@QAE@XZ       6082cd20 f i NMS_SceneRenderer.obj
 0001:0002bd50       ??0btMatrix3x3@@QAE@XZ     6082cd50 f i NMS_SceneRenderer.obj
 0001:0002bda0       ?getOpenGLMatrix@btTransform@@QBEXPAM@Z 6082cda0 f i NMS_SceneRenderer.obj
 0001:0002be30       ?x@btVector3@@QBEABMXZ     6082ce30 f i NMS_SceneRenderer.obj
 0001:0002be60       ?y@btVector3@@QBEABMXZ     6082ce60 f i NMS_SceneRenderer.obj
 0001:0002be90       ?z@btVector3@@QBEABMXZ     6082ce90 f i NMS_SceneRenderer.obj
 0001:0002bec0       ?getOpenGLSubMatrix@btMatrix3x3@@QBEXPAM@Z 6082cec0 f i NMS_SceneRenderer.obj
 0001:0002bfc0       ?getMotionState@btRigidBody@@QAEPAVbtMotionState@@XZ 6082cfc0 f i NMS_SceneRenderer.obj
 0001:0002c000       ??0NMS_TextureManager@@QAE@XZ 6082d000 f   NMS_TextureManager.obj
 0001:0002c050       ??1NMS_TextureManager@@QAE@XZ 6082d050 f   NMS_TextureManager.obj
 0001:0002c0a0       ??1?$map@PADUtextStruct@@U?$less@PAD@std@@V?$allocator@U?$pair@QADUtextStruct@@@std@@@3@@std@@QAE@XZ 6082d0a0 f i NMS_TextureManager.obj
 0001:0002c0e0       ?GetSingleton@NMS_TextureManager@@SAAAV1@XZ 6082d0e0 f   NMS_TextureManager.obj
 0001:0002c1b0       ?Initialize@NMS_TextureManager@@CAXXZ 6082d1b0 f   NMS_TextureManager.obj
 0001:0002c220       ?Destroy@NMS_TextureManager@@SAXXZ 6082d220 f   NMS_TextureManager.obj
 0001:0002c2e0       ??_GNMS_TextureManager@@QAEPAXI@Z 6082d2e0 f i NMS_TextureManager.obj
 0001:0002c340       ?LoadTexture@NMS_TextureManager@@QAEHPBDPAD@Z 6082d340 f   NMS_TextureManager.obj
 0001:0002c9a0       ?FreeTexture@NMS_TextureManager@@QAEXPAD@Z 6082d9a0 f   NMS_TextureManager.obj
 0001:0002cb30       ?FreeAll@NMS_TextureManager@@QAEXXZ 6082db30 f   NMS_TextureManager.obj
 0001:0002cce0       ??4iterator@?$_Tree@V?$_Tmap_traits@PADUtextStruct@@U?$less@PAD@std@@V?$allocator@U?$pair@QADUtextStruct@@@std@@@3@$0A@@std@@@std@@QAEAAV012@ABV012@@Z 6082dce0 f i NMS_TextureManager.obj
 0001:0002cd30       ??4const_iterator@?$_Tree@V?$_Tmap_traits@PADUtextStruct@@U?$less@PAD@std@@V?$allocator@U?$pair@QADUtextStruct@@@std@@@3@$0A@@std@@@std@@QAEAAV012@ABV012@@Z 6082dd30 f i NMS_TextureManager.obj
 0001:0002cd90       ??4?$_Bidit@U?$pair@QADUtextStruct@@@std@@HPBU12@ABU12@@std@@QAEAAU01@ABU01@@Z 6082dd90 f i NMS_TextureManager.obj
 0001:0002cde0       ??4?$_Iterator_with_base@Ubidirectional_iterator_tag@std@@U?$pair@QADUtextStruct@@@2@HPBU32@ABU32@V_Iterator_base@2@@std@@QAEAAU01@ABU01@@Z 6082dde0 f i NMS_TextureManager.obj
 0001:0002ce30       ?checkForHash@NMS_TextureManager@@AAE?AUtextStruct@@PAD0@Z 6082de30 f   NMS_TextureManager.obj
 0001:0002d0c0       ??0?$map@PADUtextStruct@@U?$less@PAD@std@@V?$allocator@U?$pair@QADUtextStruct@@@std@@@3@@std@@QAE@XZ 6082e0c0 f i NMS_TextureManager.obj
 0001:0002d120       ??A?$map@PADUtextStruct@@U?$less@PAD@std@@V?$allocator@U?$pair@QADUtextStruct@@@std@@@3@@std@@QAEAAUtextStruct@@ABQAD@Z 6082e120 f i NMS_TextureManager.obj
 0001:0002d340       ??1?$_Tree@V?$_Tmap_traits@PADUtextStruct@@U?$less@PAD@std@@V?$allocator@U?$pair@QADUtextStruct@@@std@@@3@$0A@@std@@@std@@QAE@XZ 6082e340 f i NMS_TextureManager.obj
 0001:0002d3c0       ?find@?$_Tree@V?$_Tmap_traits@PADUtextStruct@@U?$less@PAD@std@@V?$allocator@U?$pair@QADUtextStruct@@@std@@@3@$0A@@std@@@std@@QAE?AViterator@12@ABQAD@Z 6082e3c0 f i NMS_TextureManager.obj
 0001:0002d5d0       ??0iterator@?$_Tree@V?$_Tmap_traits@PADUtextStruct@@U?$less@PAD@std@@V?$allocator@U?$pair@QADUtextStruct@@@std@@@3@$0A@@std@@@std@@QAE@XZ 6082e5d0 f i NMS_TextureManager.obj
 0001:0002d620       ??Citerator@?$_Tree@V?$_Tmap_traits@PADUtextStruct@@U?$less@PAD@std@@V?$allocator@U?$pair@QADUtextStruct@@@std@@@3@$0A@@std@@@std@@QBEPAU?$pair@QADUtextStruct@@@2@XZ 6082e620 f i NMS_TextureManager.obj
 0001:0002d660       ??Eiterator@?$_Tree@V?$_Tmap_traits@PADUtextStruct@@U?$less@PAD@std@@V?$allocator@U?$pair@QADUtextStruct@@@std@@@3@$0A@@std@@@std@@QAEAAV012@XZ 6082e660 f i NMS_TextureManager.obj
 0001:0002d6b0       ??0const_iterator@?$_Tree@V?$_Tmap_traits@PADUtextStruct@@U?$less@PAD@std@@V?$allocator@U?$pair@QADUtextStruct@@@std@@@3@$0A@@std@@@std@@QAE@XZ 6082e6b0 f i NMS_TextureManager.obj
 0001:0002d700       ??Cconst_iterator@?$_Tree@V?$_Tmap_traits@PADUtextStruct@@U?$less@PAD@std@@V?$allocator@U?$pair@QADUtextStruct@@@std@@@3@$0A@@std@@@std@@QBEPBU?$pair@QADUtextStruct@@@2@XZ 6082e700 f i NMS_TextureManager.obj
 0001:0002d740       ?_Key@?$_Tree@V?$_Tmap_traits@PADUtextStruct@@U?$less@PAD@std@@V?$allocator@U?$pair@QADUtextStruct@@@std@@@3@$0A@@std@@@std@@KAABQADPAU_Node@?$_Tree_nod@V?$_Tmap_traits@PADUtextStruct@@U?$less@PAD@std@@V?$allocator@U?$pair@QADUtextStruct@@@std@@@3@$0A@@std@@@2@@Z 6082e740 f i NMS_TextureManager.obj
 0001:0002d790       ??0?$_Tree@V?$_Tmap_traits@PADUtextStruct@@U?$less@PAD@std@@V?$allocator@U?$pair@QADUtextStruct@@@std@@@3@$0A@@std@@@std@@QAE@ABU?$less@PAD@1@ABV?$allocator@U?$pair@QADUtextStruct@@@std@@@1@@Z 6082e790 f i NMS_TextureManager.obj
 0001:0002d830       ?insert@?$_Tree@V?$_Tmap_traits@PADUtextStruct@@U?$less@PAD@std@@V?$allocator@U?$pair@QADUtextStruct@@@std@@@3@$0A@@std@@@std@@QAE?AViterator@12@Vconst_iterator@12@ABU?$pair@QADUtextStruct@@@2@@Z 6082e830 f i NMS_TextureManager.obj
 0001:0002e410       ?lower_bound@?$_Tree@V?$_Tmap_traits@PADUtextStruct@@U?$less@PAD@std@@V?$allocator@U?$pair@QADUtextStruct@@@std@@@3@$0A@@std@@@std@@QAE?AViterator@12@ABQAD@Z 6082f410 f i NMS_TextureManager.obj
 0001:0002e480       ??0?$allocator@U?$pair@QADUtextStruct@@@std@@@std@@QAE@XZ 6082f480 f i NMS_TextureManager.obj
 0001:0002e4b0       ??R?$less@PAD@std@@QBE_NABQAD0@Z 6082f4b0 f i NMS_TextureManager.obj
 0001:0002e4f0       ??Diterator@?$_Tree@V?$_Tmap_traits@PADUtextStruct@@U?$less@PAD@std@@V?$allocator@U?$pair@QADUtextStruct@@@std@@@3@$0A@@std@@@std@@QBEAAU?$pair@QADUtextStruct@@@2@XZ 6082f4f0 f i NMS_TextureManager.obj
 0001:0002e530       ??Dconst_iterator@?$_Tree@V?$_Tmap_traits@PADUtextStruct@@U?$less@PAD@std@@V?$allocator@U?$pair@QADUtextStruct@@@std@@@3@$0A@@std@@@std@@QBEABU?$pair@QADUtextStruct@@@2@XZ 6082f530 f i NMS_TextureManager.obj
 0001:0002e610       ??0?$pair@QADUtextStruct@@@std@@QAE@ABQADABUtextStruct@@@Z 6082f610 f i NMS_TextureManager.obj
 0001:0002e660       ??1?$pair@Viterator@?$_Tree@V?$_Tmap_traits@PADUtextStruct@@U?$less@PAD@std@@V?$allocator@U?$pair@QADUtextStruct@@@std@@@3@$0A@@std@@@std@@_N@std@@QAE@XZ 6082f660 f i NMS_TextureManager.obj
 0001:0002e6a0       ?insert@?$_Tree@V?$_Tmap_traits@PADUtextStruct@@U?$less@PAD@std@@V?$allocator@U?$pair@QADUtextStruct@@@std@@@3@$0A@@std@@@std@@QAE?AU?$pair@Viterator@?$_Tree@V?$_Tmap_traits@PADUtextStruct@@U?$less@PAD@std@@V?$allocator@U?$pair@QADUtextStruct@@@std@@@3@$0A@@std@@@std@@_N@2@ABU?$pair@QADUtextStruct@@@2@@Z 6082f6a0 f i NMS_TextureManager.obj
 0001:0002ea80       ?_Insert@?$_Tree@V?$_Tmap_traits@PADUtextStruct@@U?$less@PAD@std@@V?$allocator@U?$pair@QADUtextStruct@@@std@@@3@$0A@@std@@@std@@IAE?AViterator@12@_NPAU_Node@?$_Tree_nod@V?$_Tmap_traits@PADUtextStruct@@U?$less@PAD@std@@V?$allocator@U?$pair@QADUtextStruct@@@std@@@3@$0A@@std@@@2@ABU?$pair@QADUtextStruct@@@2@@Z 6082fa80 f i NMS_TextureManager.obj
 0001:0002ef60       ?_Lbound@?$_Tree@V?$_Tmap_traits@PADUtextStruct@@U?$less@PAD@std@@V?$allocator@U?$pair@QADUtextStruct@@@std@@@3@$0A@@std@@@std@@IBEPAU_Node@?$_Tree_nod@V?$_Tmap_traits@PADUtextStruct@@U?$less@PAD@std@@V?$allocator@U?$pair@QADUtextStruct@@@std@@@3@$0A@@std@@@2@ABQAD@Z 6082ff60 f i NMS_TextureManager.obj
 0001:0002f030       ?_Kfn@?$_Tmap_traits@PADUtextStruct@@U?$less@PAD@std@@V?$allocator@U?$pair@QADUtextStruct@@@std@@@3@$0A@@std@@SAABQADABU?$pair@QADUtextStruct@@@2@@Z 60830030 f i NMS_TextureManager.obj
 0001:0002f060       ??Fconst_iterator@?$_Tree@V?$_Tmap_traits@PADUtextStruct@@U?$less@PAD@std@@V?$allocator@U?$pair@QADUtextStruct@@@std@@@3@$0A@@std@@@std@@QAEAAV012@XZ 60830060 f i NMS_TextureManager.obj
 0001:0002f0b0       ?max_size@?$_Tree@V?$_Tmap_traits@PADUtextStruct@@U?$less@PAD@std@@V?$allocator@U?$pair@QADUtextStruct@@@std@@@3@$0A@@std@@@std@@QBEIXZ 608300b0 f i NMS_TextureManager.obj
 0001:0002f100       ??Fiterator@?$_Tree@V?$_Tmap_traits@PADUtextStruct@@U?$less@PAD@std@@V?$allocator@U?$pair@QADUtextStruct@@@std@@@3@$0A@@std@@@std@@QAEAAV012@XZ 60830100 f i NMS_TextureManager.obj
 0001:0002f150       ?_Dec@const_iterator@?$_Tree@V?$_Tmap_traits@PADUtextStruct@@U?$less@PAD@std@@V?$allocator@U?$pair@QADUtextStruct@@@std@@@3@$0A@@std@@@std@@QAEXXZ 60830150 f i NMS_TextureManager.obj
 0001:0002f400       ??0?$pair@Viterator@?$_Tree@V?$_Tmap_traits@PADUtextStruct@@U?$less@PAD@std@@V?$allocator@U?$pair@QADUtextStruct@@@std@@@3@$0A@@std@@@std@@_N@std@@QAE@ABViterator@?$_Tree@V?$_Tmap_traits@PADUtextStruct@@U?$less@PAD@std@@V?$allocator@U?$pair@QADUtextStruct@@@std@@@3@$0A@@std@@@1@AB_N@Z 60830400 f i NMS_TextureManager.obj
 0001:0002f460       ?max_size@?$allocator@U?$pair@QADUtextStruct@@@std@@@std@@QBEIXZ 60830460 f i NMS_TextureManager.obj
 0001:0002f4c0       ??$_Debug_lt_pred@U?$less@PAD@std@@PADPAD@std@@YA_NU?$less@PAD@0@ABQAD1PB_WI@Z 608304c0 f i NMS_TextureManager.obj
 0001:0002f550       ??0Thread@@QAE@XZ          60830550 f   NMS_Thread.obj
 0001:0002f590       ?start@Thread@@QAEXXZ      60830590 f   NMS_Thread.obj
 0001:0002f6b0       ?getThread@Thread@@QAEPAUSDL_Thread@@XZ 608306b0 f   NMS_Thread.obj
 0001:0002f6e0       ?run@Thread@@UAEHXZ        608306e0 f   NMS_Thread.obj
 0001:0002f710       ?threadProxy@@YAHPAX@Z     60830710 f   NMS_Thread.obj
 0001:0002f866       _SDL_GL_SwapBuffers        60830866 f   sdl:SDL.dll
 0001:0002f86c       _SDL_CreateMutex           6083086c f   sdl:SDL.dll
 0001:0002f872       _SDL_mutexV                60830872 f   sdl:SDL.dll
 0001:0002f878       _SDL_PollEvent             60830878 f   sdl:SDL.dll
 0001:0002f87e       _SDL_mutexP                6083087e f   sdl:SDL.dll
 0001:0002f884       _SDL_GetRelativeMouseState 60830884 f   sdl:SDL.dll
 0001:0002f88a       _SDL_Quit                  6083088a f   sdl:SDL.dll
 0001:0002f890       _SDL_DestroyMutex          60830890 f   sdl:SDL.dll
 0001:0002f896       _SDL_SetVideoMode          60830896 f   sdl:SDL.dll
 0001:0002f89c       _SDL_WM_SetCaption         6083089c f   sdl:SDL.dll
 0001:0002f8a2       _SDL_WM_GrabInput          608308a2 f   sdl:SDL.dll
 0001:0002f8a8       _SDL_ShowCursor            608308a8 f   sdl:SDL.dll
 0001:0002f8ae       _SDL_Init                  608308ae f   sdl:SDL.dll
 0001:0002f8b4       _SDL_WaitThread            608308b4 f   sdl:SDL.dll
 0001:0002f8ba       _SDL_GetTicks              608308ba f   sdl:SDL.dll
 0001:0002f8c0       _SDL_GetError              608308c0 f   sdl:SDL.dll
 0001:0002f8c6       _SDL_CreateThread          608308c6 f   sdl:SDL.dll
 0001:0002f8cc       _glPopMatrix@0             608308cc f   opengl32:OPENGL32.dll
 0001:0002f8d2       _glPushMatrix@0            608308d2 f   opengl32:OPENGL32.dll
 0001:0002f8d8       _glEnd@0                   608308d8 f   opengl32:OPENGL32.dll
 0001:0002f8de       _glVertex3fv@4             608308de f   opengl32:OPENGL32.dll
 0001:0002f8e4       _glTexCoord2fv@4           608308e4 f   opengl32:OPENGL32.dll
 0001:0002f8ea       _glBegin@4                 608308ea f   opengl32:OPENGL32.dll
 0001:0002f8f0       _glBindTexture@8           608308f0 f   opengl32:OPENGL32.dll
 0001:0002f8f6       _glRotatef@16              608308f6 f   opengl32:OPENGL32.dll
 0001:0002f8fc       _glPopAttrib@0             608308fc f   opengl32:OPENGL32.dll
 0001:0002f902       _glDisable@4               60830902 f   opengl32:OPENGL32.dll
 0001:0002f908       _glNormal3fv@4             60830908 f   opengl32:OPENGL32.dll
 0001:0002f90e       _glTexCoord2f@8            6083090e f   opengl32:OPENGL32.dll
 0001:0002f914       _glCullFace@4              60830914 f   opengl32:OPENGL32.dll
 0001:0002f91a       _glEnable@4                6083091a f   opengl32:OPENGL32.dll
 0001:0002f920       _glFrontFace@4             60830920 f   opengl32:OPENGL32.dll
 0001:0002f926       _glPushAttrib@4            60830926 f   opengl32:OPENGL32.dll
 0001:0002f92c       _glLoadIdentity@0          6083092c f   opengl32:OPENGL32.dll
 0001:0002f932       _glMatrixMode@4            60830932 f   opengl32:OPENGL32.dll
 0001:0002f938       _glClear@4                 60830938 f   opengl32:OPENGL32.dll
 0001:0002f93e       _glPolygonMode@8           6083093e f   opengl32:OPENGL32.dll
 0001:0002f944       _glShadeModel@4            60830944 f   opengl32:OPENGL32.dll
 0001:0002f94a       _glLightModelfv@8          6083094a f   opengl32:OPENGL32.dll
 0001:0002f950       _glLightfv@12              60830950 f   opengl32:OPENGL32.dll
 0001:0002f956       _glHint@8                  60830956 f   opengl32:OPENGL32.dll
 0001:0002f95c       _glDepthFunc@4             6083095c f   opengl32:OPENGL32.dll
 0001:0002f962       _glClearDepth@8            60830962 f   opengl32:OPENGL32.dll
 0001:0002f968       _glColorMaterial@8         60830968 f   opengl32:OPENGL32.dll
 0001:0002f96e       _glViewport@16             6083096e f   opengl32:OPENGL32.dll
 0001:0002f974       _glClearColor@16           60830974 f   opengl32:OPENGL32.dll
 0001:0002f97a       _glMultMatrixf@4           6083097a f   opengl32:OPENGL32.dll
 0001:0002f980       _glTexImage2D@36           60830980 f   opengl32:OPENGL32.dll
 0001:0002f986       _glTexParameteri@12        60830986 f   opengl32:OPENGL32.dll
 0001:0002f98c       _glGenTextures@8           6083098c f   opengl32:OPENGL32.dll
 0001:0002f992       _glDeleteTextures@8        60830992 f   opengl32:OPENGL32.dll
 0001:0002f998       _gluPerspective@32         60830998 f   glu32:GLU32.dll
 0001:0002f99e       _ilGetData@0               6083099e f   Devil:DevIL.dll
 0001:0002f9a4       _ilDeleteImages@8          608309a4 f   Devil:DevIL.dll
 0001:0002f9aa       _ilConvertImage@8          608309aa f   Devil:DevIL.dll
 0001:0002f9b0       _ilLoadL@12                608309b0 f   Devil:DevIL.dll
 0001:0002f9b6       _ilBindImage@4             608309b6 f   Devil:DevIL.dll
 0001:0002f9bc       _ilGenImages@8             608309bc f   Devil:DevIL.dll
 0001:0002f9c2       _ilInit@0                  608309c2 f   Devil:DevIL.dll
 0001:0002f9c8       _ilGetInteger@4            608309c8 f   Devil:DevIL.dll
 0001:0002f9d0       ??0Vector@@QAE@XZ          608309d0 f   nms_math:Vector.obj
 0001:0002fa60       ??0Vector@@QAE@MMM@Z       60830a60 f   nms_math:Vector.obj
 0001:0002fab0       ??0Vector@@QAE@MMMM@Z      60830ab0 f   nms_math:Vector.obj
 0001:0002fb00       ??YVector@@QAEAAV0@ABV0@@Z 60830b00 f   nms_math:Vector.obj
 0001:0002fb70       ??ZVector@@QAEAAV0@ABV0@@Z 60830b70 f   nms_math:Vector.obj
 0001:0002fbe0       ??XVector@@QAEAAV0@M@Z     60830be0 f   nms_math:Vector.obj
 0001:0002fc30       ??_0Vector@@QAEAAV0@M@Z    60830c30 f   nms_math:Vector.obj
 0001:0002fc80       ??D@YA?AVVector@@ABV0@M@Z  60830c80 f   nms_math:Vector.obj
 0001:0002fd00       ??D@YA?AVVector@@MABV0@@Z  60830d00 f   nms_math:Vector.obj
 0001:0002fd50       ??XVector@@QAEAAV0@ABVMatrix@@@Z 60830d50 f   nms_math:Vector.obj
 0001:0002fed0       ??D@YA?AVVector@@AAV0@ABVMatrix@@@Z 60830ed0 f   nms_math:Vector.obj
 0001:0002ffc0       ??H@YA?AVVector@@ABV0@0@Z  60830fc0 f   nms_math:Vector.obj
 0001:00030070       ??G@YA?AVVector@@ABV0@0@Z  60831070 f   nms_math:Vector.obj
 0001:00030120       ??LVector@@QAE?AV0@ABV0@@Z 60831120 f   nms_math:Vector.obj
 0001:00030210       ??DVector@@QAEMABV0@@Z     60831210 f   nms_math:Vector.obj
 0001:00030290       ?sqmagnitude@Vector@@QAEMXZ 60831290 f   nms_math:Vector.obj
 0001:000302c0       ?magnitude@Vector@@QAEMXZ  608312c0 f   nms_math:Vector.obj
 0001:00030300       ?normal@Vector@@QAE?AV1@XZ 60831300 f   nms_math:Vector.obj
 0001:000303a0       ?sqrt@@YAMM@Z              608313a0 f i nms_math:Vector.obj
 0001:000303c0       _sqrtf                     608313c0 f i nms_math:Vector.obj
 0001:000303f0       ??APoint@@QAEAAMH@Z        608313f0 f   nms_math:Point.obj
 0001:00030490       ??APoint@@QBEABMH@Z        60831490 f   nms_math:Point.obj
 0001:00030530       ??0Point@@QAE@XZ           60831530 f   nms_math:Point.obj
 0001:00030570       ??0Point@@QAE@MMM@Z        60831570 f   nms_math:Point.obj
 0001:000305b0       ??9@YA_NABVPoint@@0@Z      608315b0 f   nms_math:Point.obj
 0001:00030650       ??8@YA_NABVPoint@@0@Z      60831650 f   nms_math:Point.obj
 0001:000306f0       ??HPoint@@QAE?AV0@ABVVector@@@Z 608316f0 f   nms_math:Point.obj
 0001:00030790       ??GPoint@@QAE?AVVector@@ABV0@@Z 60831790 f   nms_math:Point.obj
 0001:00030830       ??GPoint@@QAE?AV0@ABVVector@@@Z 60831830 f   nms_math:Point.obj
 0001:000308d0       ??XPoint@@QAEAAV0@ABVMatrix@@@Z 608318d0 f   nms_math:Point.obj
 0001:00030a50       ??D@YA?AVPoint@@AAV0@ABVMatrix@@@Z 60831a50 f   nms_math:Point.obj
 0001:00030b40       ??6@YAAAV?$basic_ostream@DU?$char_traits@D@std@@@std@@AAV01@ABVPoint@@@Z 60831b40 f   nms_math:Point.obj
 0001:00030c30       ??0Matrix@@QAE@XZ          60831c30 f   nms_math:Matrix.obj
 0001:00030d30       ??1Matrix@@QAE@XZ          60831d30 f   nms_math:Matrix.obj
 0001:00030d90       ??0Matrix@@QAE@II@Z        60831d90 f   nms_math:Matrix.obj
 0001:00030e90       ??0Matrix@@QAE@ABV0@@Z     60831e90 f   nms_math:Matrix.obj
 0001:00030fc0       ??4Matrix@@QAEABV0@ABV0@@Z 60831fc0 f   nms_math:Matrix.obj
 0001:00031120       ??RMatrix@@QAEAAMII@Z      60832120 f   nms_math:Matrix.obj
 0001:000311a0       ??RMatrix@@QBE?BMII@Z      608321a0 f   nms_math:Matrix.obj
 0001:00031220       ?getRowL@Matrix@@QBEIXZ    60832220 f   nms_math:Matrix.obj
 0001:00031240       ?getColL@Matrix@@QBEIXZ    60832240 f   nms_math:Matrix.obj
 0001:00031260       ??6@YAAAV?$basic_ostream@DU?$char_traits@D@std@@@std@@AAV01@ABVMatrix@@@Z 60832260 f   nms_math:Matrix.obj
 0001:00031310       ?getRow@Matrix@@QAE?AVVector@@I@Z 60832310 f   nms_math:Matrix.obj
 0001:00031400       ?getCol@Matrix@@QAE?AVVector@@I@Z 60832400 f   nms_math:Matrix.obj
 0001:000314f0       ?setRow@Matrix@@QAEXIABVVector@@@Z 608324f0 f   nms_math:Matrix.obj
 0001:000315b0       ?setCol@Matrix@@QAEXIABVVector@@@Z 608325b0 f   nms_math:Matrix.obj
 0001:00031670       ??S@YA?AVMatrix@@ABV0@@Z   60832670 f   nms_math:Matrix.obj
 0001:000317b0       ?swapRows@Matrix@@QAEXII@Z 608327b0 f   nms_math:Matrix.obj
 0001:00031860       ??7@YA?AVMatrix@@ABV0@@Z   60832860 f   nms_math:Matrix.obj
 0001:00031bf0       ?rotX@Matrix@@QAEXABN@Z    60832bf0 f   nms_math:Matrix.obj
 0001:00031d50       ?rotY@Matrix@@QAEXABN@Z    60832d50 f   nms_math:Matrix.obj
 0001:00031eb0       ?rotZ@Matrix@@QAEXABN@Z    60832eb0 f   nms_math:Matrix.obj
 0001:00032010       ?rotV@Matrix@@QAEXABNABVVector@@@Z 60833010 f   nms_math:Matrix.obj
 0001:00032560       ?memoryRealloc@Matrix@@AAEXIIII@Z 60833560 f   nms_math:Matrix.obj
 0001:00032750       ?resize@Matrix@@QAEXIIII@Z 60833750 f   nms_math:Matrix.obj
 0001:00032860       ??8@YA_NABVMatrix@@0@Z     60833860 f   nms_math:Matrix.obj
 0001:00032930       ??XMatrix@@QAEAAV0@ABV0@@Z 60833930 f   nms_math:Matrix.obj
 0001:00032b00       ??XMatrix@@QAEAAV0@ABM@Z   60833b00 f   nms_math:Matrix.obj
 0001:00032ba0       ??D@YA?AVMatrix@@ABV0@ABM@Z 60833ba0 f   nms_math:Matrix.obj
 0001:00032c70       ??D@YA?AVMatrix@@ABMABV0@@Z 60833c70 f   nms_math:Matrix.obj
 0001:00032cb0       ??D@YA?AVMatrix@@ABV0@0@Z  60833cb0 f   nms_math:Matrix.obj
 0001:00032d80       ?uScale@Matrix@@QAEXABM@Z  60833d80 f   nms_math:Matrix.obj
 0001:00032e50       ?translate@Matrix@@QAEXABVVector@@@Z 60833e50 f   nms_math:Matrix.obj
 0001:00032f30       ?shear@Matrix@@QAEXABMABI1@Z 60833f30 f   nms_math:Matrix.obj
 0001:00033010       ?returnPointer@Matrix@@QAEPAMXZ 60834010 f   nms_math:Matrix.obj
 0001:00033030       ?debugPrint@Matrix@@QAEXXZ 60834030 f   nms_math:Matrix.obj
 0001:00033230       ??0mat_struct@Matrix@@QAE@II@Z 60834230 f i nms_math:Matrix.obj
 0001:000332a0       ??_Gmat_struct@Matrix@@QAEPAXI@Z 608342a0 f i nms_math:Matrix.obj
 0001:000332e0       ??1mat_struct@Matrix@@QAE@XZ 608342e0 f i nms_math:Matrix.obj
 0001:00033330       ?abs@@YAMM@Z               60834330 f i nms_math:Matrix.obj
 0001:00033350       _fabsf                     60834350 f i nms_math:Matrix.obj
 0001:00033380       ??$min@I@std@@YAABIABI0@Z  60834380 f i nms_math:Matrix.obj
 0001:000333e0       ??$max@I@std@@YAABIABI0@Z  608343e0 f i nms_math:Matrix.obj
 0001:00033440       ??$_Debug_lt@II@std@@YA_NABI0PB_WI@Z 60834440 f i nms_math:Matrix.obj
 0001:00033490       ?degToRad@nmsTrig@@SANN@Z  60834490 f   nms_math:Trig.obj
 0001:000334b0       ?radToDeg@nmsTrig@@SANN@Z  608344b0 f   nms_math:Trig.obj
 0001:000334d0       ?degToRad@nmsTrig@@SAMM@Z  608344d0 f   nms_math:Trig.obj
 0001:00033500       ?radToDeg@nmsTrig@@SAMM@Z  60834500 f   nms_math:Trig.obj
 0001:00033530       ?sin@nmsTrig@@SAMN@Z       60834530 f   nms_math:Trig.obj
 0001:000335d0       ?cos@nmsTrig@@SAMN@Z       608345d0 f   nms_math:Trig.obj
 0001:00033666       ?write@NMS_LogFunctions@@SAXPADW4logLevel@@@Z 60834666 f   nms_utilities:nms_utilities.dll
 0001:0003366c       ?GetSingleton@NMS_LogFunctions@@SAAAV1@XZ 6083466c f   nms_utilities:nms_utilities.dll
 0001:00033672       ?FileExists@nmsFileManagement@@SA_NPBD@Z 60834672 f   nms_utilities:nms_utilities.dll
 0001:00033678       ?Free@nmsFileManagement@@SAXPAPAX@Z 60834678 f   nms_utilities:nms_utilities.dll
 0001:0003367e       ?Malloc@nmsFileManagement@@SAPAXI@Z 6083467e f   nms_utilities:nms_utilities.dll
 0001:00033684       ?FileSize@nmsFileManagement@@SAJPAU_iobuf@@@Z 60834684 f   nms_utilities:nms_utilities.dll
 0001:0003368a       ?returnSha1@nmsSha1@@SAPADPBXH@Z 6083468a f   nms_utilities:nms_utilities.dll
 0001:00033690       ??0nms_physics@@QAE@XZ     60834690 f   nms_physics:nms_physics.dll
 0001:00033696       ?simulatePhysics@nms_physics@@QAEXXZ 60834696 f   nms_physics:nms_physics.dll
 0001:0003369c       ??0?$basic_string@DU?$char_traits@D@std@@V?$allocator@D@2@@std@@QAE@ABV01@@Z 6083469c f   msvcprtd:MSVCP90D.dll
 0001:000336a2       ??4?$basic_string@DU?$char_traits@D@std@@V?$allocator@D@2@@std@@QAEAAV01@ABV01@@Z 608346a2 f   msvcprtd:MSVCP90D.dll
 0001:000336a8       ??0?$basic_string@DU?$char_traits@D@std@@V?$allocator@D@2@@std@@QAE@U_Has_debug_it@01@@Z 608346a8 f   msvcprtd:MSVCP90D.dll
 0001:000336ae       ??1?$basic_string@DU?$char_traits@D@std@@V?$allocator@D@2@@std@@QAE@XZ 608346ae f   msvcprtd:MSVCP90D.dll
 0001:000336b4       ?c_str@?$basic_string@DU?$char_traits@D@std@@V?$allocator@D@2@@std@@QBEPBDXZ 608346b4 f   msvcprtd:MSVCP90D.dll
 0001:000336ba       ??4?$basic_string@DU?$char_traits@D@std@@V?$allocator@D@2@@std@@QAEAAV01@PBD@Z 608346ba f   msvcprtd:MSVCP90D.dll
 0001:000336c0       ??_U@YAPAXI@Z              608346c0 f   msvcprtd:newaop_s.obj
 0001:000336d4       ?_Orphan_all@_Container_base_secure@std@@QBEXXZ 608346d4 f   msvcprtd:MSVCP90D.dll
 0001:000336da       ?_Debug_message@std@@YAXPB_W0I@Z 608346da f   msvcprtd:MSVCP90D.dll
 0001:000336e0       ??1_Lockit@std@@QAE@XZ     608346e0 f   msvcprtd:MSVCP90D.dll
 0001:000336e6       ??0_Lockit@std@@QAE@H@Z    608346e6 f   msvcprtd:MSVCP90D.dll
 0001:000336ec       ??1_Container_base_secure@std@@QAE@XZ 608346ec f   msvcprtd:MSVCP90D.dll
 0001:000336f2       ??0?$basic_string@DU?$char_traits@D@std@@V?$allocator@D@2@@std@@QAE@PBD@Z 608346f2 f   msvcprtd:MSVCP90D.dll
 0001:000336f8       ??0_Container_base_secure@std@@QAE@XZ 608346f8 f   msvcprtd:MSVCP90D.dll
 0001:000336fe       ?setstate@?$basic_ios@DU?$char_traits@D@std@@@std@@QAEXH_N@Z 608346fe f   msvcprtd:MSVCP90D.dll
 0001:00033704       ?width@ios_base@std@@QAEHH@Z 60834704 f   msvcprtd:MSVCP90D.dll
 0001:0003370a       ?sputn@?$basic_streambuf@DU?$char_traits@D@std@@@std@@QAEHPBDH@Z 6083470a f   msvcprtd:MSVCP90D.dll
 0001:00033710       ?eq_int_type@?$char_traits@D@std@@SA_NABH0@Z 60834710 f   msvcprtd:MSVCP90D.dll
 0001:00033716       ?eof@?$char_traits@D@std@@SAHXZ 60834716 f   msvcprtd:MSVCP90D.dll
 0001:0003371c       ?sputc@?$basic_streambuf@DU?$char_traits@D@std@@@std@@QAEHD@Z 6083471c f   msvcprtd:MSVCP90D.dll
 0001:00033722       ?rdbuf@?$basic_ios@DU?$char_traits@D@std@@@std@@QBEPAV?$basic_streambuf@DU?$char_traits@D@std@@@2@XZ 60834722 f   msvcprtd:MSVCP90D.dll
 0001:00033728       ?fill@?$basic_ios@DU?$char_traits@D@std@@@std@@QBEDXZ 60834728 f   msvcprtd:MSVCP90D.dll
 0001:0003372e       ?flags@ios_base@std@@QBEHXZ 6083472e f   msvcprtd:MSVCP90D.dll
 0001:00033734       ?width@ios_base@std@@QBEHXZ 60834734 f   msvcprtd:MSVCP90D.dll
 0001:0003373a       ?length@?$char_traits@D@std@@SAIPBD@Z 6083473a f   msvcprtd:MSVCP90D.dll
 0001:00033740       ?flush@?$basic_ostream@DU?$char_traits@D@std@@@std@@QAEAAV12@XZ 60834740 f   msvcprtd:MSVCP90D.dll
 0001:00033746       ?tie@?$basic_ios@DU?$char_traits@D@std@@@std@@QBEPAV?$basic_ostream@DU?$char_traits@D@std@@@2@XZ 60834746 f   msvcprtd:MSVCP90D.dll
 0001:0003374c       ?good@ios_base@std@@QBE_NXZ 6083474c f   msvcprtd:MSVCP90D.dll
 0001:00033752       ?_Osfx@?$basic_ostream@DU?$char_traits@D@std@@@std@@QAEXXZ 60834752 f   msvcprtd:MSVCP90D.dll
 0001:00033758       ?uncaught_exception@std@@YA_NXZ 60834758 f   msvcprtd:MSVCP90D.dll
 0001:0003375e       ?_Lock@?$basic_streambuf@DU?$char_traits@D@std@@@std@@QAEXXZ 6083475e f   msvcprtd:MSVCP90D.dll
 0001:00033764       ?_Unlock@?$basic_streambuf@DU?$char_traits@D@std@@@std@@QAEXXZ 60834764 f   msvcprtd:MSVCP90D.dll
 0001:0003376a       ??6?$basic_ostream@DU?$char_traits@D@std@@@std@@QAEAAV01@P6AAAV01@AAV01@@Z@Z 6083476a f   msvcprtd:MSVCP90D.dll
 0001:00033770       ?endl@std@@YAAAV?$basic_ostream@DU?$char_traits@D@std@@@1@AAV21@@Z 60834770 f   msvcprtd:MSVCP90D.dll
 0001:00033776       ??6?$basic_ostream@DU?$char_traits@D@std@@@std@@QAEAAV01@M@Z 60834776 f   msvcprtd:MSVCP90D.dll
 0001:00033780       __RTC_CheckEsp             60834780 f   MSVCRTD:_stack_.obj
 0001:000337b0       @_RTC_CheckStackVars@8     608347b0 f   MSVCRTD:_stack_.obj
 0001:00033810       @_RTC_AllocaHelper@12      60834810 f   MSVCRTD:_stack_.obj
 0001:00033850       @_RTC_CheckStackVars2@12   60834850 f   MSVCRTD:_stack_.obj
 0001:00033930       __RTC_InitBase             60834930 f   MSVCRTD:_init_.obj
 0001:00033960       __RTC_Shutdown             60834960 f   MSVCRTD:_init_.obj
 0001:00033980       ??0type_info@@AAE@ABV0@@Z  60834980 f   MSVCRTD:ti_inst.obj
 0001:000339a0       ??_Etype_info@@UAEPAXI@Z   608349a0 f i MSVCRTD:ti_inst.obj
 0001:00033a10       ??4type_info@@AAEAAV0@ABV0@@Z 60834a10 f   MSVCRTD:ti_inst.obj
 0001:00033a22       __purecall                 60834a22 f   MSVCRTD:MSVCR90D.dll
 0001:00033a28       ___CxxFrameHandler3        60834a28 f   MSVCRTD:MSVCR90D.dll
 0001:00033a30       @__security_check_cookie@4 60834a30 f   MSVCRTD:secchk.obj
 0001:00033a40       _DebuggerKnownHandle       60834a40 f   MSVCRTD:_error_.obj
 0001:00033b00       ?_RTC_Failure@@YAXPAXH@Z   60834b00 f   MSVCRTD:_error_.obj
 0001:00033e10       ?_RTC_StackFailure@@YAXPAXPBD@Z 60834e10 f   MSVCRTD:_error_.obj
 0001:00033f10       ?_RTC_AllocaFailure@@YAXPAXPAU_RTC_ALLOCA_NODE@@H@Z 60834f10 f   MSVCRTD:_error_.obj
 0001:000340c0       __RTC_UninitUse            608350c0 f   MSVCRTD:_error_.obj
 0001:000341aa       _strcmp                    608351aa f   MSVCRTD:MSVCR90D.dll
 0001:000341b0       _strtod                    608351b0 f   MSVCRTD:MSVCR90D.dll
 0001:000341b6       _strtol                    608351b6 f   MSVCRTD:MSVCR90D.dll
 0001:000341bc       __CxxThrowException@8      608351bc f   MSVCRTD:MSVCR90D.dll
 0001:000341c2       ??_V@YAXPAX@Z              608351c2 f   MSVCRTD:MSVCR90D.dll
 0001:000341c8       __invalid_parameter        608351c8 f   MSVCRTD:MSVCR90D.dll
 0001:000341ce       __CrtDbgReportW            608351ce f   MSVCRTD:MSVCR90D.dll
 0001:000341d4       ??3@YAXPAX@Z               608351d4 f   MSVCRTD:MSVCR90D.dll
 0001:000341da       ??0exception@std@@QAE@ABV01@@Z 608351da f   MSVCRTD:MSVCR90D.dll
 0001:000341e0       ??1exception@std@@UAE@XZ   608351e0 f   MSVCRTD:MSVCR90D.dll
 0001:000341e6       ??0exception@std@@QAE@XZ   608351e6 f   MSVCRTD:MSVCR90D.dll
 0001:000341ec       ??2@YAPAXI@Z               608351ec f   MSVCRTD:MSVCR90D.dll
 0001:000341f2       ??0exception@std@@QAE@ABQBD@Z 608351f2 f   MSVCRTD:MSVCR90D.dll
 0001:000341f8       ?what@exception@std@@UBEPBDXZ 608351f8 f   MSVCRTD:MSVCR90D.dll
 0001:000341fe       _fclose                    608351fe f   MSVCRTD:MSVCR90D.dll
 0001:00034204       _fread                     60835204 f   MSVCRTD:MSVCR90D.dll
 0001:0003420a       _fopen_s                   6083520a f   MSVCRTD:MSVCR90D.dll
 0001:00034210       _memcpy                    60835210 f   MSVCRTD:MSVCR90D.dll
 0001:00034216       _sprintf_s                 60835216 f   MSVCRTD:MSVCR90D.dll
 0001:0003421c       _memmove_s                 6083521c f   MSVCRTD:MSVCR90D.dll
 0001:00034222       ??8type_info@@QBE_NABV0@@Z 60835222 f   MSVCRTD:MSVCR90D.dll
 0001:00034230       __onexit                   60835230 f   MSVCRTD:atonexit.obj
 0001:00034340       _atexit                    60835340 f   MSVCRTD:atonexit.obj
 0001:00034360       __ftol2_sse                60835360 f   MSVCRTD:ftol2.obj
 0001:00034369       __ftol2_pentium4           60835369 f   MSVCRTD:ftol2.obj
 0001:0003437c       __ftol2_sse_excpt          6083537c f   MSVCRTD:ftol2.obj
 0001:00034396       __ftol2                    60835396 f   MSVCRTD:ftol2.obj
 0001:0003440c       _free                      6083540c f   MSVCRTD:MSVCR90D.dll
 0001:00034412       _fseek                     60835412 f   MSVCRTD:MSVCR90D.dll
 0001:00034418       _malloc                    60835418 f   MSVCRTD:MSVCR90D.dll
 0001:0003441e       __wassert                  6083541e f   MSVCRTD:MSVCR90D.dll
 0001:000344b0       __CRT_INIT@12              608354b0 f   MSVCRTD:crtdll.obj
 0001:000347c0       _NtCurrentTeb              608357c0 f i MSVCRTD:crtdll.obj
 0001:000347d0       __DllMainCRTStartup@12     608357d0 f   MSVCRTD:crtdll.obj
 0001:000349c2       _sqrt                      608359c2 f   MSVCRTD:MSVCR90D.dll
 0001:000349c8       _fabs                      608359c8 f   MSVCRTD:MSVCR90D.dll
 0001:000349ce       _fwrite                    608359ce f   MSVCRTD:MSVCR90D.dll
 0001:000349d4       _strlen                    608359d4 f   MSVCRTD:MSVCR90D.dll
 0001:000349da       _sin                       608359da f   MSVCRTD:MSVCR90D.dll
 0001:000349e0       _cos                       608359e0 f   MSVCRTD:MSVCR90D.dll
 0001:000349f0       ??_M@YGXPAXIHP6EX0@Z@Z     608359f0 f   MSVCRTD:ehvecdtr.obj
 0001:00034aa0       ?__ArrayUnwind@@YGXPAXIHP6EX0@Z@Z 60835aa0 f   MSVCRTD:ehvecdtr.obj
 0001:00034b5e       _fopen                     60835b5e f   MSVCRTD:MSVCR90D.dll
 0001:00034b70       ??_L@YGXPAXIHP6EX0@Z1@Z    60835b70 f   MSVCRTD:ehvecctr.obj
 0001:00034c20       _ftell                     60835c20 f   MSVCRTD:MSVCR90D.dll
 0001:00034c30       __RTC_NumErrors            60835c30 f   MSVCRTD:_userapi_.obj
 0001:00034c40       __RTC_GetErrDesc           60835c40 f   MSVCRTD:_userapi_.obj
 0001:00034c60       __RTC_SetErrorType         60835c60 f   MSVCRTD:_userapi_.obj
 0001:00034c90       __RTC_SetErrorFunc         60835c90 f   MSVCRTD:_userapi_.obj
 0001:00034cb0       __RTC_SetErrorFuncW        60835cb0 f   MSVCRTD:_userapi_.obj
 0001:00034cd0       ?_RTC_GetErrorFunc@@YAP6AHHPBDH00ZZPBX@Z 60835cd0 f   MSVCRTD:_userapi_.obj
 0001:00034ce0       ?_RTC_GetErrorFuncW@@YAP6AHHPB_WH00ZZPBX@Z 60835ce0 f   MSVCRTD:_userapi_.obj
 0001:00034ce6       __CRT_RTC_INITW            60835ce6 f   MSVCRTD:MSVCR90D.dll
 0001:00034cf0       ___report_gsfailure        60835cf0 f   MSVCRTD:gs_report.obj
 0001:00034e00       __except_handler4          60835e00 f   MSVCRTD:chandler4gs.obj
 0001:00034e30       ?_RTC_GetSrcLine@@YAHPAEPA_WKPAH1K@Z 60835e30 f   MSVCRTD:_pdblkup_.obj
 0001:000352c6       __unlock                   608362c6 f   MSVCRTD:MSVCR90D.dll
 0001:000352cc       ___dllonexit               608362cc f   MSVCRTD:MSVCR90D.dll
 0001:000352d2       __encode_pointer           608362d2 f   MSVCRTD:MSVCR90D.dll
 0001:000352d8       __lock                     608362d8 f   MSVCRTD:MSVCR90D.dll
 0001:000352de       __decode_pointer           608362de f   MSVCRTD:MSVCR90D.dll
 0001:000352f0       __get_sse2_info            608362f0 f   MSVCRTD:cpu_disp.obj
 0001:00035420       ___sse2_available_init     60836420 f   MSVCRTD:cpu_disp.obj
 0001:00035440       ___clean_type_info_names   60836440 f   MSVCRTD:tncleanup.obj
 0001:00035460       __RTC_Initialize           60836460 f   MSVCRTD:_initsect_.obj
 0001:00035490       __RTC_Terminate            60836490 f   MSVCRTD:_initsect_.obj
 0001:000354b6       __malloc_dbg               608364b6 f   MSVCRTD:MSVCR90D.dll
 0001:000354bc       __free_dbg                 608364bc f   MSVCRTD:MSVCR90D.dll
 0001:000354c2       __encoded_null             608364c2 f   MSVCRTD:MSVCR90D.dll
 0001:000354c8       __CrtSetCheckCount         608364c8 f   MSVCRTD:MSVCR90D.dll
 0001:000354d0       __ValidateImageBase        608364d0 f   MSVCRTD:pesect.obj
 0001:00035530       __FindPESection            60836530 f   MSVCRTD:pesect.obj
 0001:000355b0       __IsNonwritableInCurrentImage 608365b0 f   MSVCRTD:pesect.obj
 0001:000356c2       __initterm                 608366c2 f   MSVCRTD:MSVCR90D.dll
 0001:000356c8       __initterm_e               608366c8 f   MSVCRTD:MSVCR90D.dll
 0001:000356ce       __amsg_exit                608366ce f   MSVCRTD:MSVCR90D.dll
 0001:000356e0       ___security_init_cookie    608366e0 f   MSVCRTD:gs_support.obj
 0001:000357bc       ___CppXcptFilter           608367bc f   MSVCRTD:MSVCR90D.dll
 0001:000357d0       _DllMain@12                608367d0 f   MSVCRTD:dllmain.obj
 0001:000357f8       ?terminate@@YAXXZ          608367f8 f   MSVCRTD:MSVCR90D.dll
 0001:000357fe       ??1type_info@@UAE@XZ       608367fe f   MSVCRTD:MSVCR90D.dll
 0001:000357fe       ?_type_info_dtor_internal_method@type_info@@QAEXXZ 608367fe f   MSVCRTD:MSVCR90D.dll
 0001:00035804       __crt_debugger_hook        60836804 f   MSVCRTD:MSVCR90D.dll
 0001:0003580a       __except_handler4_common   6083680a f   MSVCRTD:MSVCR90D.dll
 0001:00035810       ___clean_type_info_names_internal 60836810 f   MSVCRTD:MSVCR90D.dll
 0001:00035816       _IsDebuggerPresent@0       60836816 f   kernel32:KERNEL32.dll
 0001:0003581c       _RaiseException@16         6083681c f   kernel32:KERNEL32.dll
 0001:00035822       _DebugBreak@0              60836822 f   kernel32:KERNEL32.dll
 0001:00035828       _WideCharToMultiByte@32    60836828 f   kernel32:KERNEL32.dll
 0001:0003582e       _MultiByteToWideChar@24    6083682e f   kernel32:KERNEL32.dll
 0001:00035834       _lstrlenA@4                60836834 f   kernel32:KERNEL32.dll
 0001:0003583a       _GetProcAddress@8          6083683a f   kernel32:KERNEL32.dll
 0001:00035840       _LoadLibraryA@4            60836840 f   kernel32:KERNEL32.dll
 0001:00035846       _InterlockedExchange@8     60836846 f   kernel32:KERNEL32.dll
 0001:0003584c       _Sleep@4                   6083684c f   kernel32:KERNEL32.dll
 0001:00035852       _InterlockedCompareExchange@12 60836852 f   kernel32:KERNEL32.dll
 0001:00035858       _TerminateProcess@8        60836858 f   kernel32:KERNEL32.dll
 0001:0003585e       _GetCurrentProcess@0       6083685e f   kernel32:KERNEL32.dll
 0001:00035864       _UnhandledExceptionFilter@4 60836864 f   kernel32:KERNEL32.dll
 0001:0003586a       _SetUnhandledExceptionFilter@4 6083686a f   kernel32:KERNEL32.dll
 0001:00035870       _HeapFree@12               60836870 f   kernel32:KERNEL32.dll
 0001:00035876       _HeapAlloc@12              60836876 f   kernel32:KERNEL32.dll
 0001:0003587c       _GetProcessHeap@0          6083687c f   kernel32:KERNEL32.dll
 0001:00035882       _GetModuleFileNameW@12     60836882 f   kernel32:KERNEL32.dll
 0001:00035888       _VirtualQuery@12           60836888 f   kernel32:KERNEL32.dll
 0001:0003588e       _FreeLibrary@4             6083688e f   kernel32:KERNEL32.dll
 0001:00035894       _QueryPerformanceCounter@4 60836894 f   kernel32:KERNEL32.dll
 0001:0003589a       _GetTickCount@0            6083689a f   kernel32:KERNEL32.dll
 0001:000358a0       _GetCurrentThreadId@0      608368a0 f   kernel32:KERNEL32.dll
 0001:000358a6       _GetCurrentProcessId@0     608368a6 f   kernel32:KERNEL32.dll
 0001:000358ac       _GetSystemTimeAsFileTime@4 608368ac f   kernel32:KERNEL32.dll
 0001:000358b2       _DisableThreadLibraryCalls@4 608368b2 f   kernel32:KERNEL32.dll
 0001:000358b8       __CIpow                    608368b8 f   MSVCRTD:MSVCR90D.dll
 0002:00000000       __imp__ilDeleteImages@8    6083b000     Devil:DevIL.dll
 0002:00000004       __imp__ilGetInteger@4      6083b004     Devil:DevIL.dll
 0002:00000008       __imp__ilInit@0            6083b008     Devil:DevIL.dll
 0002:0000000c       __imp__ilGenImages@8       6083b00c     Devil:DevIL.dll
 0002:00000010       __imp__ilBindImage@4       6083b010     Devil:DevIL.dll
 0002:00000014       __imp__ilLoadL@12          6083b014     Devil:DevIL.dll
 0002:00000018       __imp__ilConvertImage@8    6083b018     Devil:DevIL.dll
 0002:0000001c       __imp__ilGetData@0         6083b01c     Devil:DevIL.dll
 0002:00000020       \177DevIL_NULL_THUNK_DATA  6083b020     Devil:DevIL.dll
 0002:00000024       __imp__gluPerspective@32   6083b024     glu32:GLU32.dll
 0002:00000028       \177GLU32_NULL_THUNK_DATA  6083b028     glu32:GLU32.dll
 0002:0000002c       __imp__GetProcessHeap@0    6083b02c     kernel32:KERNEL32.dll
 0002:00000030       __imp__HeapAlloc@12        6083b030     kernel32:KERNEL32.dll
 0002:00000034       __imp__HeapFree@12         6083b034     kernel32:KERNEL32.dll
 0002:00000038       __imp__SetUnhandledExceptionFilter@4 6083b038     kernel32:KERNEL32.dll
 0002:0000003c       __imp__UnhandledExceptionFilter@4 6083b03c     kernel32:KERNEL32.dll
 0002:00000040       __imp__GetCurrentProcess@0 6083b040     kernel32:KERNEL32.dll
 0002:00000044       __imp__TerminateProcess@8  6083b044     kernel32:KERNEL32.dll
 0002:00000048       __imp__InterlockedCompareExchange@12 6083b048     kernel32:KERNEL32.dll
 0002:0000004c       __imp__Sleep@4             6083b04c     kernel32:KERNEL32.dll
 0002:00000050       __imp__InterlockedExchange@8 6083b050     kernel32:KERNEL32.dll
 0002:00000054       __imp__LoadLibraryA@4      6083b054     kernel32:KERNEL32.dll
 0002:00000058       __imp__GetProcAddress@8    6083b058     kernel32:KERNEL32.dll
 0002:0000005c       __imp__GetModuleFileNameW@12 6083b05c     kernel32:KERNEL32.dll
 0002:00000060       __imp__MultiByteToWideChar@24 6083b060     kernel32:KERNEL32.dll
 0002:00000064       __imp__WideCharToMultiByte@32 6083b064     kernel32:KERNEL32.dll
 0002:00000068       __imp__DebugBreak@0        6083b068     kernel32:KERNEL32.dll
 0002:0000006c       __imp__RaiseException@16   6083b06c     kernel32:KERNEL32.dll
 0002:00000070       __imp__IsDebuggerPresent@0 6083b070     kernel32:KERNEL32.dll
 0002:00000074       __imp__DisableThreadLibraryCalls@4 6083b074     kernel32:KERNEL32.dll
 0002:00000078       __imp__GetSystemTimeAsFileTime@4 6083b078     kernel32:KERNEL32.dll
 0002:0000007c       __imp__GetCurrentProcessId@0 6083b07c     kernel32:KERNEL32.dll
 0002:00000080       __imp__FreeLibrary@4       6083b080     kernel32:KERNEL32.dll
 0002:00000084       __imp__GetCurrentThreadId@0 6083b084     kernel32:KERNEL32.dll
 0002:00000088       __imp__GetTickCount@0      6083b088     kernel32:KERNEL32.dll
 0002:0000008c       __imp__QueryPerformanceCounter@4 6083b08c     kernel32:KERNEL32.dll
 0002:00000090       __imp__lstrlenA@4          6083b090     kernel32:KERNEL32.dll
 0002:00000094       __imp__VirtualQuery@12     6083b094     kernel32:KERNEL32.dll
 0002:00000098       \177KERNEL32_NULL_THUNK_DATA 6083b098     kernel32:KERNEL32.dll
 0002:0000009c       __imp_?tie@?$basic_ios@DU?$char_traits@D@std@@@std@@QBEPAV?$basic_ostream@DU?$char_traits@D@std@@@2@XZ 6083b09c     msvcprtd:MSVCP90D.dll
 0002:000000a0       __imp_?length@?$char_traits@D@std@@SAIPBD@Z 6083b0a0     msvcprtd:MSVCP90D.dll
 0002:000000a4       __imp_?width@ios_base@std@@QBEHXZ 6083b0a4     msvcprtd:MSVCP90D.dll
 0002:000000a8       __imp_?flags@ios_base@std@@QBEHXZ 6083b0a8     msvcprtd:MSVCP90D.dll
 0002:000000ac       __imp_?fill@?$basic_ios@DU?$char_traits@D@std@@@std@@QBEDXZ 6083b0ac     msvcprtd:MSVCP90D.dll
 0002:000000b0       __imp_?rdbuf@?$basic_ios@DU?$char_traits@D@std@@@std@@QBEPAV?$basic_streambuf@DU?$char_traits@D@std@@@2@XZ 6083b0b0     msvcprtd:MSVCP90D.dll
 0002:000000b4       __imp_?sputc@?$basic_streambuf@DU?$char_traits@D@std@@@std@@QAEHD@Z 6083b0b4     msvcprtd:MSVCP90D.dll
 0002:000000b8       __imp_?eof@?$char_traits@D@std@@SAHXZ 6083b0b8     msvcprtd:MSVCP90D.dll
 0002:000000bc       __imp_?eq_int_type@?$char_traits@D@std@@SA_NABH0@Z 6083b0bc     msvcprtd:MSVCP90D.dll
 0002:000000c0       __imp_?sputn@?$basic_streambuf@DU?$char_traits@D@std@@@std@@QAEHPBDH@Z 6083b0c0     msvcprtd:MSVCP90D.dll
 0002:000000c4       __imp_?width@ios_base@std@@QAEHH@Z 6083b0c4     msvcprtd:MSVCP90D.dll
 0002:000000c8       __imp_?setstate@?$basic_ios@DU?$char_traits@D@std@@@std@@QAEXH_N@Z 6083b0c8     msvcprtd:MSVCP90D.dll
 0002:000000cc       __imp_??0_Container_base_secure@std@@QAE@XZ 6083b0cc     msvcprtd:MSVCP90D.dll
 0002:000000d0       __imp_??0?$basic_string@DU?$char_traits@D@std@@V?$allocator@D@2@@std@@QAE@PBD@Z 6083b0d0     msvcprtd:MSVCP90D.dll
 0002:000000d4       __imp_?good@ios_base@std@@QBE_NXZ 6083b0d4     msvcprtd:MSVCP90D.dll
 0002:000000d8       __imp_?_Osfx@?$basic_ostream@DU?$char_traits@D@std@@@std@@QAEXXZ 6083b0d8     msvcprtd:MSVCP90D.dll
 0002:000000dc       __imp_?_Lock@?$basic_streambuf@DU?$char_traits@D@std@@@std@@QAEXXZ 6083b0dc     msvcprtd:MSVCP90D.dll
 0002:000000e0       __imp_?flush@?$basic_ostream@DU?$char_traits@D@std@@@std@@QAEAAV12@XZ 6083b0e0     msvcprtd:MSVCP90D.dll
 0002:000000e4       __imp_?_Unlock@?$basic_streambuf@DU?$char_traits@D@std@@@std@@QAEXXZ 6083b0e4     msvcprtd:MSVCP90D.dll
 0002:000000e8       __imp_??6?$basic_ostream@DU?$char_traits@D@std@@@std@@QAEAAV01@P6AAAV01@AAV01@@Z@Z 6083b0e8     msvcprtd:MSVCP90D.dll
 0002:000000ec       __imp_?endl@std@@YAAAV?$basic_ostream@DU?$char_traits@D@std@@@1@AAV21@@Z 6083b0ec     msvcprtd:MSVCP90D.dll
 0002:000000f0       __imp_??6?$basic_ostream@DU?$char_traits@D@std@@@std@@QAEAAV01@M@Z 6083b0f0     msvcprtd:MSVCP90D.dll
 0002:000000f4       __imp_?cout@std@@3V?$basic_ostream@DU?$char_traits@D@std@@@1@A 6083b0f4     msvcprtd:MSVCP90D.dll
 0002:000000f8       __imp_?uncaught_exception@std@@YA_NXZ 6083b0f8     msvcprtd:MSVCP90D.dll
 0002:000000fc       __imp_?cerr@std@@3V?$basic_ostream@DU?$char_traits@D@std@@@1@A 6083b0fc     msvcprtd:MSVCP90D.dll
 0002:00000100       __imp_??1_Container_base_secure@std@@QAE@XZ 6083b100     msvcprtd:MSVCP90D.dll
 0002:00000104       __imp_??0_Lockit@std@@QAE@H@Z 6083b104     msvcprtd:MSVCP90D.dll
 0002:00000108       __imp_??1_Lockit@std@@QAE@XZ 6083b108     msvcprtd:MSVCP90D.dll
 0002:0000010c       __imp_?_Debug_message@std@@YAXPB_W0I@Z 6083b10c     msvcprtd:MSVCP90D.dll
 0002:00000110       __imp_?_Orphan_all@_Container_base_secure@std@@QBEXXZ 6083b110     msvcprtd:MSVCP90D.dll
 0002:00000114       __imp_??4?$basic_string@DU?$char_traits@D@std@@V?$allocator@D@2@@std@@QAEAAV01@PBD@Z 6083b114     msvcprtd:MSVCP90D.dll
 0002:00000118       __imp_?c_str@?$basic_string@DU?$char_traits@D@std@@V?$allocator@D@2@@std@@QBEPBDXZ 6083b118     msvcprtd:MSVCP90D.dll
 0002:0000011c       __imp_??1?$basic_string@DU?$char_traits@D@std@@V?$allocator@D@2@@std@@QAE@XZ 6083b11c     msvcprtd:MSVCP90D.dll
 0002:00000120       __imp_??0?$basic_string@DU?$char_traits@D@std@@V?$allocator@D@2@@std@@QAE@U_Has_debug_it@01@@Z 6083b120     msvcprtd:MSVCP90D.dll
 0002:00000124       __imp_??4?$basic_string@DU?$char_traits@D@std@@V?$allocator@D@2@@std@@QAEAAV01@ABV01@@Z 6083b124     msvcprtd:MSVCP90D.dll
 0002:00000128       __imp_??0?$basic_string@DU?$char_traits@D@std@@V?$allocator@D@2@@std@@QAE@ABV01@@Z 6083b128     msvcprtd:MSVCP90D.dll
 0002:0000012c       \177MSVCP90D_NULL_THUNK_DATA 6083b12c     msvcprtd:MSVCP90D.dll
 0002:00000130       __imp__free                6083b130     MSVCRTD:MSVCR90D.dll
 0002:00000134       __imp__fseek               6083b134     MSVCRTD:MSVCR90D.dll
 0002:00000138       __imp__malloc              6083b138     MSVCRTD:MSVCR90D.dll
 0002:0000013c       __imp___wassert            6083b13c     MSVCRTD:MSVCR90D.dll
 0002:00000140       __imp__sqrt                6083b140     MSVCRTD:MSVCR90D.dll
 0002:00000144       __imp__fabs                6083b144     MSVCRTD:MSVCR90D.dll
 0002:00000148       __imp__fwrite              6083b148     MSVCRTD:MSVCR90D.dll
 0002:0000014c       __imp__strlen              6083b14c     MSVCRTD:MSVCR90D.dll
 0002:00000150       __imp__sin                 6083b150     MSVCRTD:MSVCR90D.dll
 0002:00000154       __imp__cos                 6083b154     MSVCRTD:MSVCR90D.dll
 0002:00000158       __imp__fopen               6083b158     MSVCRTD:MSVCR90D.dll
 0002:0000015c       __imp__ftell               6083b15c     MSVCRTD:MSVCR90D.dll
 0002:00000160       __imp___CRT_RTC_INITW      6083b160     MSVCRTD:MSVCR90D.dll
 0002:00000164       __imp___unlock             6083b164     MSVCRTD:MSVCR90D.dll
 0002:00000168       __imp____dllonexit         6083b168     MSVCRTD:MSVCR90D.dll
 0002:0000016c       __imp___encode_pointer     6083b16c     MSVCRTD:MSVCR90D.dll
 0002:00000170       __imp___lock               6083b170     MSVCRTD:MSVCR90D.dll
 0002:00000174       __imp___onexit             6083b174     MSVCRTD:MSVCR90D.dll
 0002:00000178       __imp___decode_pointer     6083b178     MSVCRTD:MSVCR90D.dll
 0002:0000017c       __imp___malloc_dbg         6083b17c     MSVCRTD:MSVCR90D.dll
 0002:00000180       __imp___free_dbg           6083b180     MSVCRTD:MSVCR90D.dll
 0002:00000184       __imp___encoded_null       6083b184     MSVCRTD:MSVCR90D.dll
 0002:00000188       __imp___CrtSetCheckCount   6083b188     MSVCRTD:MSVCR90D.dll
 0002:0000018c       __imp___CIpow              6083b18c     MSVCRTD:MSVCR90D.dll
 0002:00000190       __imp___initterm           6083b190     MSVCRTD:MSVCR90D.dll
 0002:00000194       __imp___initterm_e         6083b194     MSVCRTD:MSVCR90D.dll
 0002:00000198       __imp___amsg_exit          6083b198     MSVCRTD:MSVCR90D.dll
 0002:0000019c       __imp___adjust_fdiv        6083b19c     MSVCRTD:MSVCR90D.dll
 0002:000001a0       __imp____CppXcptFilter     6083b1a0     MSVCRTD:MSVCR90D.dll
 0002:000001a4       __imp_?terminate@@YAXXZ    6083b1a4     MSVCRTD:MSVCR90D.dll
 0002:000001a8       __imp_?_type_info_dtor_internal_method@type_info@@QAEXXZ 6083b1a8     MSVCRTD:MSVCR90D.dll
 0002:000001ac       __imp___crt_debugger_hook  6083b1ac     MSVCRTD:MSVCR90D.dll
 0002:000001b0       __imp___except_handler4_common 6083b1b0     MSVCRTD:MSVCR90D.dll
 0002:000001b4       __imp____clean_type_info_names_internal 6083b1b4     MSVCRTD:MSVCR90D.dll
 0002:000001b8       __imp_??8type_info@@QBE_NABV0@@Z 6083b1b8     MSVCRTD:MSVCR90D.dll
 0002:000001bc       __imp___purecall           6083b1bc     MSVCRTD:MSVCR90D.dll
 0002:000001c0       __imp____CxxFrameHandler3  6083b1c0     MSVCRTD:MSVCR90D.dll
 0002:000001c4       __imp__strcmp              6083b1c4     MSVCRTD:MSVCR90D.dll
 0002:000001c8       __imp__strtod              6083b1c8     MSVCRTD:MSVCR90D.dll
 0002:000001cc       __imp__strtol              6083b1cc     MSVCRTD:MSVCR90D.dll
 0002:000001d0       __imp___CxxThrowException@8 6083b1d0     MSVCRTD:MSVCR90D.dll
 0002:000001d4       __imp_??_V@YAXPAX@Z        6083b1d4     MSVCRTD:MSVCR90D.dll
 0002:000001d8       __imp___invalid_parameter  6083b1d8     MSVCRTD:MSVCR90D.dll
 0002:000001dc       __imp___CrtDbgReportW      6083b1dc     MSVCRTD:MSVCR90D.dll
 0002:000001e0       __imp_??3@YAXPAX@Z         6083b1e0     MSVCRTD:MSVCR90D.dll
 0002:000001e4       __imp_??0exception@std@@QAE@ABV01@@Z 6083b1e4     MSVCRTD:MSVCR90D.dll
 0002:000001e8       __imp_??1exception@std@@UAE@XZ 6083b1e8     MSVCRTD:MSVCR90D.dll
 0002:000001ec       __imp_??0exception@std@@QAE@XZ 6083b1ec     MSVCRTD:MSVCR90D.dll
 0002:000001f0       __imp_??2@YAPAXI@Z         6083b1f0     MSVCRTD:MSVCR90D.dll
 0002:000001f4       __imp_??0exception@std@@QAE@ABQBD@Z 6083b1f4     MSVCRTD:MSVCR90D.dll
 0002:000001f8       __imp_?what@exception@std@@UBEPBDXZ 6083b1f8     MSVCRTD:MSVCR90D.dll
 0002:000001fc       __imp__fclose              6083b1fc     MSVCRTD:MSVCR90D.dll
 0002:00000200       __imp__fread               6083b200     MSVCRTD:MSVCR90D.dll
 0002:00000204       __imp__fopen_s             6083b204     MSVCRTD:MSVCR90D.dll
 0002:00000208       __imp__memcpy              6083b208     MSVCRTD:MSVCR90D.dll
 0002:0000020c       __imp__sprintf_s           6083b20c     MSVCRTD:MSVCR90D.dll
 0002:00000210       __imp__memmove_s           6083b210     MSVCRTD:MSVCR90D.dll
 0002:00000214       \177MSVCR90D_NULL_THUNK_DATA 6083b214     MSVCRTD:MSVCR90D.dll
 0002:00000218       __imp__glEnable@4          6083b218     opengl32:OPENGL32.dll
 0002:0000021c       __imp__glPushMatrix@0      6083b21c     opengl32:OPENGL32.dll
 0002:00000220       __imp__glEnd@0             6083b220     opengl32:OPENGL32.dll
 0002:00000224       __imp__glVertex3fv@4       6083b224     opengl32:OPENGL32.dll
 0002:00000228       __imp__glTexCoord2fv@4     6083b228     opengl32:OPENGL32.dll
 0002:0000022c       __imp__glBegin@4           6083b22c     opengl32:OPENGL32.dll
 0002:00000230       __imp__glBindTexture@8     6083b230     opengl32:OPENGL32.dll
 0002:00000234       __imp__glRotatef@16        6083b234     opengl32:OPENGL32.dll
 0002:00000238       __imp__glPopAttrib@0       6083b238     opengl32:OPENGL32.dll
 0002:0000023c       __imp__glDisable@4         6083b23c     opengl32:OPENGL32.dll
 0002:00000240       __imp__glNormal3fv@4       6083b240     opengl32:OPENGL32.dll
 0002:00000244       __imp__glDeleteTextures@8  6083b244     opengl32:OPENGL32.dll
 0002:00000248       __imp__glGenTextures@8     6083b248     opengl32:OPENGL32.dll
 0002:0000024c       __imp__glTexParameteri@12  6083b24c     opengl32:OPENGL32.dll
 0002:00000250       __imp__glTexImage2D@36     6083b250     opengl32:OPENGL32.dll
 0002:00000254       __imp__glMultMatrixf@4     6083b254     opengl32:OPENGL32.dll
 0002:00000258       __imp__glClearColor@16     6083b258     opengl32:OPENGL32.dll
 0002:0000025c       __imp__glViewport@16       6083b25c     opengl32:OPENGL32.dll
 0002:00000260       __imp__glColorMaterial@8   6083b260     opengl32:OPENGL32.dll
 0002:00000264       __imp__glClearDepth@8      6083b264     opengl32:OPENGL32.dll
 0002:00000268       __imp__glDepthFunc@4       6083b268     opengl32:OPENGL32.dll
 0002:0000026c       __imp__glHint@8            6083b26c     opengl32:OPENGL32.dll
 0002:00000270       __imp__glLightfv@12        6083b270     opengl32:OPENGL32.dll
 0002:00000274       __imp__glLightModelfv@8    6083b274     opengl32:OPENGL32.dll
 0002:00000278       __imp__glShadeModel@4      6083b278     opengl32:OPENGL32.dll
 0002:0000027c       __imp__glPolygonMode@8     6083b27c     opengl32:OPENGL32.dll
 0002:00000280       __imp__glClear@4           6083b280     opengl32:OPENGL32.dll
 0002:00000284       __imp__glMatrixMode@4      6083b284     opengl32:OPENGL32.dll
 0002:00000288       __imp__glLoadIdentity@0    6083b288     opengl32:OPENGL32.dll
 0002:0000028c       __imp__glPushAttrib@4      6083b28c     opengl32:OPENGL32.dll
 0002:00000290       __imp__glFrontFace@4       6083b290     opengl32:OPENGL32.dll
 0002:00000294       __imp__glTexCoord2f@8      6083b294     opengl32:OPENGL32.dll
 0002:00000298       __imp__glCullFace@4        6083b298     opengl32:OPENGL32.dll
 0002:0000029c       __imp__glPopMatrix@0       6083b29c     opengl32:OPENGL32.dll
 0002:000002a0       \177OPENGL32_NULL_THUNK_DATA 6083b2a0     opengl32:OPENGL32.dll
 0002:000002a4       __imp__SDL_WM_GrabInput    6083b2a4     sdl:SDL.dll
 0002:000002a8       __imp__SDL_WM_SetCaption   6083b2a8     sdl:SDL.dll
 0002:000002ac       __imp__SDL_SetVideoMode    6083b2ac     sdl:SDL.dll
 0002:000002b0       __imp__SDL_DestroyMutex    6083b2b0     sdl:SDL.dll
 0002:000002b4       __imp__SDL_Quit            6083b2b4     sdl:SDL.dll
 0002:000002b8       __imp__SDL_GetRelativeMouseState 6083b2b8     sdl:SDL.dll
 0002:000002bc       __imp__SDL_mutexP          6083b2bc     sdl:SDL.dll
 0002:000002c0       __imp__SDL_PollEvent       6083b2c0     sdl:SDL.dll
 0002:000002c4       __imp__SDL_mutexV          6083b2c4     sdl:SDL.dll
 0002:000002c8       __imp__SDL_CreateMutex     6083b2c8     sdl:SDL.dll
 0002:000002cc       __imp__SDL_GL_SwapBuffers  6083b2cc     sdl:SDL.dll
 0002:000002d0       __imp__SDL_CreateThread    6083b2d0     sdl:SDL.dll
 0002:000002d4       __imp__SDL_GetError        6083b2d4     sdl:SDL.dll
 0002:000002d8       __imp__SDL_GetTicks        6083b2d8     sdl:SDL.dll
 0002:000002dc       __imp__SDL_WaitThread      6083b2dc     sdl:SDL.dll
 0002:000002e0       __imp__SDL_Init            6083b2e0     sdl:SDL.dll
 0002:000002e4       __imp__SDL_ShowCursor      6083b2e4     sdl:SDL.dll
 0002:000002e8       \177SDL_NULL_THUNK_DATA    6083b2e8     sdl:SDL.dll
 0002:000002ec       __imp_??0nms_physics@@QAE@XZ 6083b2ec     nms_physics:nms_physics.dll
 0002:000002f0       __imp_?simulatePhysics@nms_physics@@QAEXXZ 6083b2f0     nms_physics:nms_physics.dll
 0002:000002f4       \177nms_physics_NULL_THUNK_DATA 6083b2f4     nms_physics:nms_physics.dll
 0002:000002f8       __imp_?Malloc@nmsFileManagement@@SAPAXI@Z 6083b2f8     nms_utilities:nms_utilities.dll
 0002:000002fc       __imp_?FileExists@nmsFileManagement@@SA_NPBD@Z 6083b2fc     nms_utilities:nms_utilities.dll
 0002:00000300       __imp_?returnSha1@nmsSha1@@SAPADPBXH@Z 6083b300     nms_utilities:nms_utilities.dll
 0002:00000304       __imp_?GetSingleton@NMS_LogFunctions@@SAAAV1@XZ 6083b304     nms_utilities:nms_utilities.dll
 0002:00000308       __imp_?FileSize@nmsFileManagement@@SAJPAU_iobuf@@@Z 6083b308     nms_utilities:nms_utilities.dll
 0002:0000030c       __imp_?Free@nmsFileManagement@@SAXPAPAX@Z 6083b30c     nms_utilities:nms_utilities.dll
 0002:00000310       __imp_?write@NMS_LogFunctions@@SAXPADW4logLevel@@@Z 6083b310     nms_utilities:nms_utilities.dll
 0002:00000314       \177nms_utilities_NULL_THUNK_DATA 6083b314     nms_utilities:nms_utilities.dll
 0002:00000318       ___xc_a                    6083b318     MSVCRTD:cinitexe.obj
 0002:00000320       ___xc_z                    6083b320     MSVCRTD:cinitexe.obj
 0002:00000324       ___xi_a                    6083b324     MSVCRTD:cinitexe.obj
 0002:00000330       ___xi_z                    6083b330     MSVCRTD:cinitexe.obj
 0002:0000035c       ??_C@_0P@GHFPNOJB@bad?5allocation?$AA@ 6083b35c     ColladaModel.obj
 0002:0000036c       ?collate@?$_Locbase@H@std@@2HB 6083b36c     ColladaModel.obj
 0002:00000370       ?ctype@?$_Locbase@H@std@@2HB 6083b370     ColladaModel.obj
 0002:00000374       ?monetary@?$_Locbase@H@std@@2HB 6083b374     ColladaModel.obj
 0002:00000378       ?numeric@?$_Locbase@H@std@@2HB 6083b378     ColladaModel.obj
 0002:0000037c       ?time@?$_Locbase@H@std@@2HB 6083b37c     ColladaModel.obj
 0002:00000380       ?messages@?$_Locbase@H@std@@2HB 6083b380     ColladaModel.obj
 0002:00000384       ?all@?$_Locbase@H@std@@2HB 6083b384     ColladaModel.obj
 0002:00000388       ?none@?$_Locbase@H@std@@2HB 6083b388     ColladaModel.obj
 0002:0000038c       ?skipws@?$_Iosb@H@std@@2W4_Fmtflags@12@B 6083b38c     ColladaModel.obj
 0002:00000390       ?unitbuf@?$_Iosb@H@std@@2W4_Fmtflags@12@B 6083b390     ColladaModel.obj
 0002:00000394       ?uppercase@?$_Iosb@H@std@@2W4_Fmtflags@12@B 6083b394     ColladaModel.obj
 0002:00000398       ?showbase@?$_Iosb@H@std@@2W4_Fmtflags@12@B 6083b398     ColladaModel.obj
 0002:0000039c       ?showpoint@?$_Iosb@H@std@@2W4_Fmtflags@12@B 6083b39c     ColladaModel.obj
 0002:000003a0       ?showpos@?$_Iosb@H@std@@2W4_Fmtflags@12@B 6083b3a0     ColladaModel.obj
 0002:000003a4       ?left@?$_Iosb@H@std@@2W4_Fmtflags@12@B 6083b3a4     ColladaModel.obj
 0002:000003a8       ?right@?$_Iosb@H@std@@2W4_Fmtflags@12@B 6083b3a8     ColladaModel.obj
 0002:000003ac       ?internal@?$_Iosb@H@std@@2W4_Fmtflags@12@B 6083b3ac     ColladaModel.obj
 0002:000003b0       ?dec@?$_Iosb@H@std@@2W4_Fmtflags@12@B 6083b3b0     ColladaModel.obj
 0002:000003b4       ?oct@?$_Iosb@H@std@@2W4_Fmtflags@12@B 6083b3b4     ColladaModel.obj
 0002:000003b8       ?hex@?$_Iosb@H@std@@2W4_Fmtflags@12@B 6083b3b8     ColladaModel.obj
 0002:000003bc       ?scientific@?$_Iosb@H@std@@2W4_Fmtflags@12@B 6083b3bc     ColladaModel.obj
 0002:000003c0       ?fixed@?$_Iosb@H@std@@2W4_Fmtflags@12@B 6083b3c0     ColladaModel.obj
 0002:000003c4       ?hexfloat@?$_Iosb@H@std@@2W4_Fmtflags@12@B 6083b3c4     ColladaModel.obj
 0002:000003c8       ?boolalpha@?$_Iosb@H@std@@2W4_Fmtflags@12@B 6083b3c8     ColladaModel.obj
 0002:000003cc       ?_Stdio@?$_Iosb@H@std@@2W4_Fmtflags@12@B 6083b3cc     ColladaModel.obj
 0002:000003d0       ?adjustfield@?$_Iosb@H@std@@2W4_Fmtflags@12@B 6083b3d0     ColladaModel.obj
 0002:000003d4       ?basefield@?$_Iosb@H@std@@2W4_Fmtflags@12@B 6083b3d4     ColladaModel.obj
 0002:000003d8       ?floatfield@?$_Iosb@H@std@@2W4_Fmtflags@12@B 6083b3d8     ColladaModel.obj
 0002:000003dc       ?goodbit@?$_Iosb@H@std@@2W4_Iostate@12@B 6083b3dc     ColladaModel.obj
 0002:000003e0       ?eofbit@?$_Iosb@H@std@@2W4_Iostate@12@B 6083b3e0     ColladaModel.obj
 0002:000003e4       ?failbit@?$_Iosb@H@std@@2W4_Iostate@12@B 6083b3e4     ColladaModel.obj
 0002:000003e8       ?badbit@?$_Iosb@H@std@@2W4_Iostate@12@B 6083b3e8     ColladaModel.obj
 0002:000003ec       ?_Hardfail@?$_Iosb@H@std@@2W4_Iostate@12@B 6083b3ec     ColladaModel.obj
 0002:000003f0       ?in@?$_Iosb@H@std@@2W4_Openmode@12@B 6083b3f0     ColladaModel.obj
 0002:000003f4       ?out@?$_Iosb@H@std@@2W4_Openmode@12@B 6083b3f4     ColladaModel.obj
 0002:000003f8       ?ate@?$_Iosb@H@std@@2W4_Openmode@12@B 6083b3f8     ColladaModel.obj
 0002:000003fc       ?app@?$_Iosb@H@std@@2W4_Openmode@12@B 6083b3fc     ColladaModel.obj
 0002:00000400       ?trunc@?$_Iosb@H@std@@2W4_Openmode@12@B 6083b400     ColladaModel.obj
 0002:00000404       ?_Nocreate@?$_Iosb@H@std@@2W4_Openmode@12@B 6083b404     ColladaModel.obj
 0002:00000408       ?_Noreplace@?$_Iosb@H@std@@2W4_Openmode@12@B 6083b408     ColladaModel.obj
 0002:0000040c       ?binary@?$_Iosb@H@std@@2W4_Openmode@12@B 6083b40c     ColladaModel.obj
 0002:00000410       ?beg@?$_Iosb@H@std@@2W4_Seekdir@12@B 6083b410     ColladaModel.obj
 0002:00000414       ?cur@?$_Iosb@H@std@@2W4_Seekdir@12@B 6083b414     ColladaModel.obj
 0002:00000418       ?end@?$_Iosb@H@std@@2W4_Seekdir@12@B 6083b418     ColladaModel.obj
 0002:00000460       ?m_iMessageSize@NMS_TextureManager@@0IB 6083b460     ColladaModel.obj
 0002:00000464       ?szErrorMessageSize@NMS_AssetManager@@0IB 6083b464     ColladaModel.obj
 0002:0000046c       ??_7NMS_Mesh@@6B@          6083b46c     ColladaModel.obj
 0002:00000474       ??_7ColladaModel@@6B@      6083b474     ColladaModel.obj
 0002:00000478       ??_C@_0FA@BKLGKFBB@MD2Model?3?3DrawModel?5?9?$DO?5The?5model@ 6083b478     ColladaModel.obj
 0002:000004c8       ??_C@_07NHEMPLFH@COLLADA?$AA@ 6083b4c8     ColladaModel.obj
 0002:000004d0       ??_C@_09MLOBGEIC@init_from?$AA@ 6083b4d0     ColladaModel.obj
 0002:000004dc       ??_C@_05NGOMGBBD@image?$AA@ 6083b4dc     ColladaModel.obj
 0002:000004e4       ??_C@_01JBBJJEPG@p?$AA@    6083b4e4     ColladaModel.obj
 0002:000004e8       ??_C@_08CMDKBPJM@TEXCOORD?$AA@ 6083b4e8     ColladaModel.obj
 0002:000004f4       ??_C@_06IOJAGNKJ@NORMAL?$AA@ 6083b4f4     ColladaModel.obj
 0002:000004fc       ??_C@_06HPIMPLPK@VERTEX?$AA@ 6083b4fc     ColladaModel.obj
 0002:00000504       ??_C@_08KNOEMJMM@material?$AA@ 6083b504     ColladaModel.obj
 0002:00000510       ??_C@_09PNPFALML@triangles?$AA@ 6083b510     ColladaModel.obj
 0002:0000051c       ??_C@_08JPMAAECC@POSITION?$AA@ 6083b51c     ColladaModel.obj
 0002:00000528       ??_C@_08KKJDHNGI@semantic?$AA@ 6083b528     ColladaModel.obj
 0002:00000534       ??_C@_05DFJCHPDH@input?$AA@ 6083b534     ColladaModel.obj
 0002:0000053c       ??_C@_08BOLPBPCL@vertices?$AA@ 6083b53c     ColladaModel.obj
 0002:00000548       ??_C@_06LNMIFCNI@stride?$AA@ 6083b548     ColladaModel.obj
 0002:00000550       ??_C@_06KLHHMIGM@offset?$AA@ 6083b550     ColladaModel.obj
 0002:00000558       ??_C@_08HHJHBDHL@accessor?$AA@ 6083b558     ColladaModel.obj
 0002:00000564       ??_C@_05IOMEMJEC@count?$AA@ 6083b564     ColladaModel.obj
 0002:0000056c       ??_C@_0M@LJJMFMEG@float_array?$AA@ 6083b56c     ColladaModel.obj
 0002:00000578       ??_C@_02EGCJHIOB@id?$AA@   6083b578     ColladaModel.obj
 0002:0000057c       ??_C@_04MEMAJGDJ@name?$AA@ 6083b57c     ColladaModel.obj
 0002:00000584       ??_C@_06OEKOLKIL@source?$AA@ 6083b584     ColladaModel.obj
 0002:0000058c       ??_C@_04KPBEILIJ@mesh?$AA@ 6083b58c     ColladaModel.obj
 0002:00000594       ??_C@_08GMGMDIBM@geometry?$AA@ 6083b594     ColladaModel.obj
 0002:000005a0       ??_C@_0BD@INDFNEOK@library_geometries?$AA@ 6083b5a0     ColladaModel.obj
 0002:000005b4       ??_C@_0P@PKLLDPLK@library_images?$AA@ 6083b5b4     ColladaModel.obj
 0002:000005c4       ??_C@_03ILLHFMNI@?5?7?6?$AA@ 6083b5c4     ColladaModel.obj
 0002:000005c8       ??_C@_1CK@POGJDOKA@?$AA?$CI?$AA?$CC?$AA_?$AAP?$AAo?$AAs?$AA?5?$AA?$DM?$AA?5?$AAs?$AAi?$AAz?$AAe?$AA?$CI?$AA?$CJ?$AA?$CC?$AA?0?$AA?5?$AA0?$AA?$CJ?$AA?$AA@ 6083b5c8     ColladaModel.obj
 0002:000005f4       ??_C@_1BO@MEPPHOO@?$AA?$CC?$AAo?$AAu?$AAt?$AA?5?$AAo?$AAf?$AA?5?$AAr?$AAa?$AAn?$AAg?$AAe?$AA?$CC?$AA?$AA@ 6083b5f4     ColladaModel.obj
 0002:00000618       ??_C@_1JG@IOFKJGKA@?$AAs?$AAt?$AAd?$AA?3?$AA?3?$AAv?$AAe?$AAc?$AAt?$AAo?$AAr?$AA?$DM?$AAc?$AAl?$AAa?$AAs?$AAs?$AA?5?$AAS?$AAo?$AAu?$AAr?$AAc?$AAe?$AA?0?$AAc?$AAl?$AAa?$AAs?$AAs?$AA?5?$AAs@ 6083b618     ColladaModel.obj
 0002:000006b0       ??_C@_1FG@CMLDHNON@?$AA?$CI?$AA?$CC?$AAS?$AAt?$AAa?$AAn?$AAd?$AAa?$AAr?$AAd?$AA?5?$AAC?$AA?$CL?$AA?$CL?$AA?5?$AAL?$AAi?$AAb?$AAr?$AAa?$AAr?$AAi?$AAe?$AAs?$AA?5?$AAO?$AAu?$AAt?$AA?5?$AAo?$AAf?$AA?5@ 6083b6b0     ColladaModel.obj
 0002:00000708       ??_C@_1DM@LHGCHCBA@?$AAv?$AAe?$AAc?$AAt?$AAo?$AAr?$AA?5?$AAs?$AAu?$AAb?$AAs?$AAc?$AAr?$AAi?$AAp?$AAt?$AA?5?$AAo?$AAu?$AAt?$AA?5?$AAo?$AAf?$AA?5?$AAr?$AAa?$AAn?$AAg?$AAe?$AA?$AA@ 6083b708     ColladaModel.obj
 0002:00000748       ??_C@_1HO@CONDIOEO@?$AAc?$AA?3?$AA?2?$AAp?$AAr?$AAo?$AAg?$AAr?$AAa?$AAm?$AA?5?$AAf?$AAi?$AAl?$AAe?$AAs?$AA?2?$AAm?$AAi?$AAc?$AAr?$AAo?$AAs?$AAo?$AAf?$AAt?$AA?5?$AAv?$AAi?$AAs?$AAu?$AAa@ 6083b748     ColladaModel.obj
 0002:000007c8       ??_C@_1JO@MNABEBKO@?$AAs?$AAt?$AAd?$AA?3?$AA?3?$AAv?$AAe?$AAc?$AAt?$AAo?$AAr?$AA?$DM?$AAc?$AAl?$AAa?$AAs?$AAs?$AA?5?$AAT?$AAr?$AAi?$AAa?$AAn?$AAg?$AAl?$AAe?$AA?0?$AAc?$AAl?$AAa?$AAs?$AAs@ 6083b7c8     ColladaModel.obj
 0002:00000868       ??_C@_1JK@MMBDOFIP@?$AAs?$AAt?$AAd?$AA?3?$AA?3?$AAv?$AAe?$AAc?$AAt?$AAo?$AAr?$AA?$DM?$AAc?$AAl?$AAa?$AAs?$AAs?$AA?5?$AAC?$AAo?$AAl?$AAM?$AAe?$AAs?$AAh?$AA?0?$AAc?$AAl?$AAa?$AAs?$AAs?$AA?5@ 6083b868     ColladaModel.obj
 0002:00000904       ??_C@_1DC@POOIKBAO@?$AAI?$AAT?$AAE?$AAR?$AAA?$AAT?$AAO?$AAR?$AA?5?$AAL?$AAI?$AAS?$AAT?$AA?5?$AAC?$AAO?$AAR?$AAR?$AAU?$AAP?$AAT?$AAE?$AAD?$AA?$CB?$AA?$AA@ 6083b904     ColladaModel.obj
 0002:00000938       ??_C@_1IC@MEADOCIB@?$AAc?$AA?3?$AA?2?$AAp?$AAr?$AAo?$AAg?$AAr?$AAa?$AAm?$AA?5?$AAf?$AAi?$AAl?$AAe?$AAs?$AA?2?$AAm?$AAi?$AAc?$AAr?$AAo?$AAs?$AAo?$AAf?$AAt?$AA?5?$AAv?$AAi?$AAs?$AAu?$AAa@ 6083b938     ColladaModel.obj
 0002:000009c0       ??_C@_1EK@PPDBPCAN@?$AAm?$AAa?$AAp?$AA?1?$AAs?$AAe?$AAt?$AA?5?$AAe?$AAr?$AAa?$AAs?$AAe?$AA?5?$AAi?$AAt?$AAe?$AAr?$AAa?$AAt?$AAo?$AAr?$AA?5?$AAo?$AAu?$AAt?$AAs?$AAi?$AAd?$AAe?$AA?5?$AAr@ 6083b9c0     ColladaModel.obj
 0002:00000a10       ??_C@_1HM@HFPHJDMI@?$AAc?$AA?3?$AA?2?$AAp?$AAr?$AAo?$AAg?$AAr?$AAa?$AAm?$AA?5?$AAf?$AAi?$AAl?$AAe?$AAs?$AA?2?$AAm?$AAi?$AAc?$AAr?$AAo?$AAs?$AAo?$AAf?$AAt?$AA?5?$AAv?$AAi?$AAs?$AAu?$AAa@ 6083ba10     ColladaModel.obj
 0002:00000a90       ??_C@_1EI@HGIDLLCM@?$AAv?$AAe?$AAc?$AAt?$AAo?$AAr?$AA?5?$AAe?$AAr?$AAa?$AAs?$AAe?$AA?5?$AAi?$AAt?$AAe?$AAr?$AAa?$AAt?$AAo?$AAr?$AA?5?$AAo?$AAu?$AAt?$AAs?$AAi?$AAd?$AAe?$AA?5?$AAr?$AAa@ 6083ba90     ColladaModel.obj
 0002:00000ad8       ??_C@_1EK@EEHFMKDC@?$AAv?$AAe?$AAc?$AAt?$AAo?$AAr?$AA?5?$AAi?$AAn?$AAs?$AAe?$AAr?$AAt?$AA?5?$AAi?$AAt?$AAe?$AAr?$AAa?$AAt?$AAo?$AAr?$AA?5?$AAo?$AAu?$AAt?$AAs?$AAi?$AAd?$AAe?$AA?5?$AAr@ 6083bad8     ColladaModel.obj
 0002:00000b24       ??_C@_0BD@OLBABOEK@vector?$DMT?$DO?5too?5long?$AA@ 6083bb24     ColladaModel.obj
 0002:00000b3c       ??_7length_error@std@@6B@  6083bb3c     ColladaModel.obj
 0002:00000b48       ??_7logic_error@std@@6B@   6083bb48     ColladaModel.obj
 0002:00000b50       ??_C@_1CG@JNLFBNGN@?$AA?$CC?$AAi?$AAn?$AAv?$AAa?$AAl?$AAi?$AAd?$AA?5?$AAa?$AAr?$AAg?$AAu?$AAm?$AAe?$AAn?$AAt?$AA?$CC?$AA?$AA@ 6083bb50     ColladaModel.obj
 0002:00000b78       ??_C@_1BHO@CICFLHJF@?$AAs?$AAt?$AAd?$AA?3?$AA?3?$AA_?$AAT?$AAr?$AAe?$AAe?$AA?$DM?$AAc?$AAl?$AAa?$AAs?$AAs?$AA?5?$AAs?$AAt?$AAd?$AA?3?$AA?3?$AA_?$AAT?$AAm?$AAa?$AAp?$AA_?$AAt?$AAr?$AAa?$AAi@ 6083bb78     ColladaModel.obj
 0002:00000cf8       ??_C@_1FO@OCPOOAIA@?$AA?$CI?$AA?$CC?$AAS?$AAt?$AAa?$AAn?$AAd?$AAa?$AAr?$AAd?$AA?5?$AAC?$AA?$CL?$AA?$CL?$AA?5?$AAL?$AAi?$AAb?$AAr?$AAa?$AAr?$AAi?$AAe?$AAs?$AA?5?$AAI?$AAn?$AAv?$AAa?$AAl?$AAi?$AAd@ 6083bcf8     ColladaModel.obj
 0002:00000d58       ??_C@_1DO@CFEEPGGJ@?$AAm?$AAa?$AAp?$AA?1?$AAs?$AAe?$AAt?$AA?5?$AAi?$AAt?$AAe?$AAr?$AAa?$AAt?$AAo?$AAr?$AAs?$AA?5?$AAi?$AAn?$AAc?$AAo?$AAm?$AAp?$AAa?$AAt?$AAi?$AAb?$AAl?$AAe?$AA?$AA@ 6083bd58     ColladaModel.obj
 0002:00000d98       ??_C@_1MM@NFKFDHJL@?$AAs?$AAt?$AAd?$AA?3?$AA?3?$AA_?$AAV?$AAe?$AAc?$AAt?$AAo?$AAr?$AA_?$AAc?$AAo?$AAn?$AAs?$AAt?$AA_?$AAi?$AAt?$AAe?$AAr?$AAa?$AAt?$AAo?$AAr?$AA?$DM?$AAc?$AAl?$AAa?$AAs@ 6083bd98     ColladaModel.obj
 0002:00000e68       ??_C@_1NK@JLHOCNGO@?$AA?$CI?$AA?$CC?$AA_?$AAP?$AAv?$AAe?$AAc?$AAt?$AAo?$AAr?$AA?5?$AA?$DN?$AA?$DN?$AA?5?$AAN?$AAU?$AAL?$AAL?$AA?5?$AA?$HM?$AA?$HM?$AA?5?$AA?$CI?$AA?$CI?$AA?$CI?$AA_?$AAM?$AAy?$AAv?$AAe?$AAc?$AA?5@ 6083be68     ColladaModel.obj
 0002:00000f48       ??_C@_1LE@FLBLCPK@?$AAs?$AAt?$AAd?$AA?3?$AA?3?$AA_?$AAV?$AAe?$AAc?$AAt?$AAo?$AAr?$AA_?$AAc?$AAo?$AAn?$AAs?$AAt?$AA_?$AAi?$AAt?$AAe?$AAr?$AAa?$AAt?$AAo?$AAr?$AA?$DM?$AAc?$AAl?$AAa?$AAs@ 6083bf48     ColladaModel.obj
 0002:00001000       ??_C@_1EG@FOHJJHAC@?$AAv?$AAe?$AAc?$AAt?$AAo?$AAr?$AA?5?$AAi?$AAt?$AAe?$AAr?$AAa?$AAt?$AAo?$AAr?$AA?5?$AAn?$AAo?$AAt?$AA?5?$AAd?$AAe?$AAr?$AAe?$AAf?$AAe?$AAr?$AAe?$AAn?$AAc?$AAa?$AAb@ 6083c000     ColladaModel.obj
 0002:00001048       ??_C@_1NE@EHOBDHLM@?$AAs?$AAt?$AAd?$AA?3?$AA?3?$AA_?$AAV?$AAe?$AAc?$AAt?$AAo?$AAr?$AA_?$AAc?$AAo?$AAn?$AAs?$AAt?$AA_?$AAi?$AAt?$AAe?$AAr?$AAa?$AAt?$AAo?$AAr?$AA?$DM?$AAc?$AAl?$AAa?$AAs@ 6083c048     ColladaModel.obj
 0002:00001120       ??_C@_1NA@JHCAPHFD@?$AAs?$AAt?$AAd?$AA?3?$AA?3?$AA_?$AAV?$AAe?$AAc?$AAt?$AAo?$AAr?$AA_?$AAc?$AAo?$AAn?$AAs?$AAt?$AA_?$AAi?$AAt?$AAe?$AAr?$AAa?$AAt?$AAo?$AAr?$AA?$DM?$AAc?$AAl?$AAa?$AAs@ 6083c120     ColladaModel.obj
 0002:000011f0       ??_C@_1LI@FBDLAHBN@?$AAs?$AAt?$AAd?$AA?3?$AA?3?$AA_?$AAV?$AAe?$AAc?$AAt?$AAo?$AAr?$AA_?$AAc?$AAo?$AAn?$AAs?$AAt?$AA_?$AAi?$AAt?$AAe?$AAr?$AAa?$AAt?$AAo?$AAr?$AA?$DM?$AAc?$AAl?$AAa?$AAs@ 6083c1f0     ColladaModel.obj
 0002:000012a8       ??_C@_1KO@LHINIIGB@?$AAs?$AAt?$AAd?$AA?3?$AA?3?$AA_?$AAV?$AAe?$AAc?$AAt?$AAo?$AAr?$AA_?$AAc?$AAo?$AAn?$AAs?$AAt?$AA_?$AAi?$AAt?$AAe?$AAr?$AAa?$AAt?$AAo?$AAr?$AA?$DM?$AAc?$AAl?$AAa?$AAs@ 6083c2a8     ColladaModel.obj
 0002:00001358       ??_C@_1DM@HINDPMBP@?$AAv?$AAe?$AAc?$AAt?$AAo?$AAr?$AA?5?$AAi?$AAt?$AAe?$AAr?$AAa?$AAt?$AAo?$AAr?$AAs?$AA?5?$AAi?$AAn?$AAc?$AAo?$AAm?$AAp?$AAa?$AAt?$AAi?$AAb?$AAl?$AAe?$AA?$AA@ 6083c358     ColladaModel.obj
 0002:00001398       ??_C@_1LG@GICPNKPD@?$AAs?$AAt?$AAd?$AA?3?$AA?3?$AA_?$AAV?$AAe?$AAc?$AAt?$AAo?$AAr?$AA_?$AAc?$AAo?$AAn?$AAs?$AAt?$AA_?$AAi?$AAt?$AAe?$AAr?$AAa?$AAt?$AAo?$AAr?$AA?$DM?$AAc?$AAl?$AAa?$AAs@ 6083c398     ColladaModel.obj
 0002:00001450       ??_C@_1LC@LPJAPJK@?$AAs?$AAt?$AAd?$AA?3?$AA?3?$AA_?$AAV?$AAe?$AAc?$AAt?$AAo?$AAr?$AA_?$AAc?$AAo?$AAn?$AAs?$AAt?$AA_?$AAi?$AAt?$AAe?$AAr?$AAa?$AAt?$AAo?$AAr?$AA?$DM?$AAc?$AAl?$AAa?$AAs@ 6083c450     ColladaModel.obj
 0002:00001508       ??_C@_1BHA@PMJLMDKM@?$AAs?$AAt?$AAd?$AA?3?$AA?3?$AA_?$AAT?$AAr?$AAe?$AAe?$AA?$DM?$AAc?$AAl?$AAa?$AAs?$AAs?$AA?5?$AAs?$AAt?$AAd?$AA?3?$AA?3?$AA_?$AAT?$AAm?$AAa?$AAp?$AA_?$AAt?$AAr?$AAa?$AAi@ 6083c508     ColladaModel.obj
 0002:00001678       ??_C@_1EG@EHJFMBHJ@?$AAm?$AAa?$AAp?$AA?1?$AAs?$AAe?$AAt?$AA?5?$AAi?$AAt?$AAe?$AAr?$AAa?$AAt?$AAo?$AAr?$AA?5?$AAn?$AAo?$AAt?$AA?5?$AAi?$AAn?$AAc?$AAr?$AAe?$AAm?$AAe?$AAn?$AAt?$AAa?$AAb@ 6083c678     ColladaModel.obj
 0002:000016c0       ??_C@_1BAC@KBDNDJPK@?$AA?$CI?$AA?$CC?$AA_?$AAM?$AAy?$AAp?$AAt?$AAr?$AA?5?$AA?$CL?$AA?5?$AA_?$AAO?$AAf?$AAf?$AA?5?$AA?$DM?$AA?$DN?$AA?5?$AA?$CI?$AA?$CI?$AA_?$AAM?$AAy?$AAv?$AAe?$AAc?$AA?5?$AA?$CK?$AA?$CJ?$AA?$CI?$AAt@ 6083c6c0     ColladaModel.obj
 0002:000017c8       ??_C@_1LG@CCBCNPP@?$AAs?$AAt?$AAd?$AA?3?$AA?3?$AA_?$AAV?$AAe?$AAc?$AAt?$AAo?$AAr?$AA_?$AAc?$AAo?$AAn?$AAs?$AAt?$AA_?$AAi?$AAt?$AAe?$AAr?$AAa?$AAt?$AAo?$AAr?$AA?$DM?$AAc?$AAl?$AAa?$AAs@ 6083c7c8     ColladaModel.obj
 0002:00001880       ??_C@_1DM@LBMEEJPP@?$AA?$CI?$AA?$CC?$AAt?$AAh?$AAi?$AAs?$AA?9?$AA?$DO?$AA_?$AAH?$AAa?$AAs?$AA_?$AAc?$AAo?$AAn?$AAt?$AAa?$AAi?$AAn?$AAe?$AAr?$AA?$CI?$AA?$CJ?$AA?$CC?$AA?0?$AA?5?$AA0?$AA?$CJ?$AA?$AA@ 6083c880     ColladaModel.obj
 0002:000018c0       ??_C@_1LO@IELPDOIA@?$AAs?$AAt?$AAd?$AA?3?$AA?3?$AA_?$AAV?$AAe?$AAc?$AAt?$AAo?$AAr?$AA_?$AAc?$AAo?$AAn?$AAs?$AAt?$AA_?$AAi?$AAt?$AAe?$AAr?$AAa?$AAt?$AAo?$AAr?$AA?$DM?$AAc?$AAl?$AAa?$AAs@ 6083c8c0     ColladaModel.obj
 0002:00001980       ??_C@_1LK@KIBFFLFN@?$AAs?$AAt?$AAd?$AA?3?$AA?3?$AA_?$AAV?$AAe?$AAc?$AAt?$AAo?$AAr?$AA_?$AAc?$AAo?$AAn?$AAs?$AAt?$AA_?$AAi?$AAt?$AAe?$AAr?$AAa?$AAt?$AAo?$AAr?$AA?$DM?$AAc?$AAl?$AAa?$AAs@ 6083c980     ColladaModel.obj
 0002:00001a40       ??_7bad_alloc@std@@6B@     6083ca40     ColladaModel.obj
 0002:00001a48       ??_C@_1HO@FAAIACEF@?$AAc?$AA?3?$AA?2?$AAp?$AAr?$AAo?$AAg?$AAr?$AAa?$AAm?$AA?5?$AAf?$AAi?$AAl?$AAe?$AAs?$AA?2?$AAm?$AAi?$AAc?$AAr?$AAo?$AAs?$AAo?$AAf?$AAt?$AA?5?$AAv?$AAi?$AAs?$AAu?$AAa@ 6083ca48     ColladaModel.obj
 0002:00001ac8       ??_C@_1EE@EJDKCLKB@?$AAv?$AAe?$AAc?$AAt?$AAo?$AAr?$AA?5?$AAi?$AAt?$AAe?$AAr?$AAa?$AAt?$AAo?$AAr?$AA?5?$AAn?$AAo?$AAt?$AA?5?$AAi?$AAn?$AAc?$AAr?$AAe?$AAm?$AAe?$AAn?$AAt?$AAa?$AAb?$AAl@ 6083cac8     ColladaModel.obj
 0002:00001b10       ??_C@_1HE@NMBDDEHP@?$AA?$CI?$AA?$CC?$AA_?$AAM?$AAy?$AAp?$AAt?$AAr?$AA?5?$AA?$DM?$AA?5?$AA?$CI?$AA?$CI?$AA_?$AAM?$AAy?$AAv?$AAe?$AAc?$AA?5?$AA?$CK?$AA?$CJ?$AA?$CI?$AAt?$AAh?$AAi?$AAs?$AA?9?$AA?$DO?$AA_?$AAG?$AAe@ 6083cb10     ColladaModel.obj
 0002:00001b88       ??_C@_1LG@HHFDCFLM@?$AAs?$AAt?$AAd?$AA?3?$AA?3?$AA_?$AAV?$AAe?$AAc?$AAt?$AAo?$AAr?$AA_?$AAc?$AAo?$AAn?$AAs?$AAt?$AA_?$AAi?$AAt?$AAe?$AAr?$AAa?$AAt?$AAo?$AAr?$AA?$DM?$AAc?$AAl?$AAa?$AAs@ 6083cb88     ColladaModel.obj
 0002:00001c40       ??_C@_1LM@HGHLDKJK@?$AAs?$AAt?$AAd?$AA?3?$AA?3?$AA_?$AAV?$AAe?$AAc?$AAt?$AAo?$AAr?$AA_?$AAc?$AAo?$AAn?$AAs?$AAt?$AA_?$AAi?$AAt?$AAe?$AAr?$AAa?$AAt?$AAo?$AAr?$AA?$DM?$AAc?$AAl?$AAa?$AAs@ 6083cc40     ColladaModel.obj
 0002:00001d00       ??_C@_1LO@PBMNDGMD@?$AAs?$AAt?$AAd?$AA?3?$AA?3?$AA_?$AAV?$AAe?$AAc?$AAt?$AAo?$AAr?$AA_?$AAc?$AAo?$AAn?$AAs?$AAt?$AA_?$AAi?$AAt?$AAe?$AAr?$AAa?$AAt?$AAo?$AAr?$AA?$DM?$AAc?$AAl?$AAa?$AAs@ 6083cd00     ColladaModel.obj
 0002:00001dc0       ??_C@_1LK@NNGHFDBO@?$AAs?$AAt?$AAd?$AA?3?$AA?3?$AA_?$AAV?$AAe?$AAc?$AAt?$AAo?$AAr?$AA_?$AAc?$AAo?$AAn?$AAs?$AAt?$AA_?$AAi?$AAt?$AAe?$AAr?$AAa?$AAt?$AAo?$AAr?$AA?$DM?$AAc?$AAl?$AAa?$AAs@ 6083cdc0     ColladaModel.obj
 0002:00001e7c       ??_C@_1CK@EOPGIILJ@?$AAi?$AAn?$AAv?$AAa?$AAl?$AAi?$AAd?$AA?5?$AAn?$AAu?$AAl?$AAl?$AA?5?$AAp?$AAo?$AAi?$AAn?$AAt?$AAe?$AAr?$AA?$AA@ 6083ce7c     ColladaModel.obj
 0002:00001ea8       ??_C@_1CO@DGLIKNHI@?$AAi?$AAn?$AAv?$AAa?$AAl?$AAi?$AAd?$AA?5?$AAi?$AAt?$AAe?$AAr?$AAa?$AAt?$AAo?$AAr?$AA?5?$AAr?$AAa?$AAn?$AAg?$AAe?$AA?$AA@ 6083cea8     ColladaModel.obj
 0002:00001edc       ??_7MD2Model@@6B@          6083cedc     MD2Model.obj
 0002:00001ee0       ??_C@_0EB@MPJEPGMF@MD2Model?3?3LoadModel?5?9?$DO?5The?5model@ 6083cee0     MD2Model.obj
 0002:00001f24       __real@3f800000            6083cf24     MD2Model.obj
 0002:00001f28       __real@43340000            6083cf28     MD2Model.obj
 0002:00001f2c       __real@c2b40000            6083cf2c     MD2Model.obj
 0002:00001f30       __real@0000000000000000    6083cf30     MD2Model.obj
 0002:00001f38       ??_C@_0EN@PLABKIJF@MD2Model?3?3SetAnim?5?9?$DOThe?5model?5ha@ 6083cf38     MD2Model.obj
 0002:00001f88       __real@3ff0000000000000    6083cf88     MD2Model.obj
 0002:00001f94       ??_7NMS_3DObject@@6B@      6083cf94     NMS_3DObject.obj
 0002:00001f98       ??_C@_0L@CDCPJNNN@Direction?3?$AA@ 6083cf98     NMS_3DObject.obj
 0002:00001fa4       ??_C@_09BKHOEFBM@Position?3?$AA@ 6083cfa4     NMS_3DObject.obj
 0002:00001fb0       ??_C@_0BL@KMPDDKFB@Asset?5Manager?5Initialized?$CB?$AA@ 6083cfb0     NMS_AssetManager.obj
 0002:00001fd0       ??_7SceneGraphVisitor@@6B@ 6083cfd0     NMS_Camera.obj
 0002:00001fdc       ??_7EmptySceneVisitor@@6B@ 6083cfdc     NMS_Camera.obj
 0002:00001fe8       ??_7SceneGraphNode@@6B@    6083cfe8     NMS_Camera.obj
 0002:00001ff4       ??_7TransformationNode@@6B@ 6083cff4     NMS_Camera.obj
 0002:00002000       ??_7GeometryNode@@6B@      6083d000     NMS_Camera.obj
 0002:0000200c       ??_7CameraNode@@6B@        6083d00c     NMS_Camera.obj
 0002:00002018       ??_7NMSCameraController@@6B@ 6083d018     NMS_Camera.obj
 0002:0000202c       ??_7NMSCameraFPS@@6B@      6083d02c     NMS_Camera.obj
 0002:00002040       __real@c056800000000000    6083d040     NMS_Camera.obj
 0002:00002048       __real@42b40000            6083d048     NMS_Camera.obj
 0002:00002050       __real@4056800000000000    6083d050     NMS_Camera.obj
 0002:00002058       __real@c076800000000000    6083d058     NMS_Camera.obj
 0002:00002060       __real@4076800000000000    6083d060     NMS_Camera.obj
 0002:00002068       ??_C@_1PE@PNPNNFC@?$AAs?$AAt?$AAd?$AA?3?$AA?3?$AA_?$AAV?$AAe?$AAc?$AAt?$AAo?$AAr?$AA_?$AAc?$AAo?$AAn?$AAs?$AAt?$AA_?$AAi?$AAt?$AAe?$AAr?$AAa?$AAt?$AAo?$AAr?$AA?$DM?$AAc?$AAl?$AAa?$AAs@ 6083d068     NMS_Camera.obj
 0002:00002160       ??_C@_1NG@IJJIKHMB@?$AAs?$AAt?$AAd?$AA?3?$AA?3?$AA_?$AAV?$AAe?$AAc?$AAt?$AAo?$AAr?$AA_?$AAc?$AAo?$AAn?$AAs?$AAt?$AA_?$AAi?$AAt?$AAe?$AAr?$AAa?$AAt?$AAo?$AAr?$AA?$DM?$AAc?$AAl?$AAa?$AAs@ 6083d160     NMS_Camera.obj
 0002:00002238       ??_C@_1NM@BGAOHEPG@?$AAs?$AAt?$AAd?$AA?3?$AA?3?$AA_?$AAV?$AAe?$AAc?$AAt?$AAo?$AAr?$AA_?$AAc?$AAo?$AAn?$AAs?$AAt?$AA_?$AAi?$AAt?$AAe?$AAr?$AAa?$AAt?$AAo?$AAr?$AA?$DM?$AAc?$AAl?$AAa?$AAs@ 6083d238     NMS_Camera.obj
 0002:00002314       ?is_integral@?$integer_traits_base@_N$0A@$00@detail@boost@@2_NB 6083d314     NMS_Engine.obj
 0002:00002315       ?const_min@?$integer_traits_base@_N$0A@$00@detail@boost@@2_NB 6083d315     NMS_Engine.obj
 0002:00002316       ?const_max@?$integer_traits_base@_N$0A@$00@detail@boost@@2_NB 6083d316     NMS_Engine.obj
 0002:00002317       ?is_integral@?$integer_traits_base@D$0?IA@$0HP@@detail@boost@@2_NB 6083d317     NMS_Engine.obj
 0002:00002318       ?const_min@?$integer_traits_base@D$0?IA@$0HP@@detail@boost@@2DB 6083d318     NMS_Engine.obj
 0002:00002319       ?const_max@?$integer_traits_base@D$0?IA@$0HP@@detail@boost@@2DB 6083d319     NMS_Engine.obj
 0002:0000231a       ?is_integral@?$integer_traits_base@C$0?IA@$0HP@@detail@boost@@2_NB 6083d31a     NMS_Engine.obj
 0002:0000231b       ?const_min@?$integer_traits_base@C$0?IA@$0HP@@detail@boost@@2CB 6083d31b     NMS_Engine.obj
 0002:0000231c       ?const_max@?$integer_traits_base@C$0?IA@$0HP@@detail@boost@@2CB 6083d31c     NMS_Engine.obj
 0002:0000231d       ?is_integral@?$integer_traits_base@E$0A@$0PP@@detail@boost@@2_NB 6083d31d     NMS_Engine.obj
 0002:0000231e       ?const_min@?$integer_traits_base@E$0A@$0PP@@detail@boost@@2EB 6083d31e     NMS_Engine.obj
 0002:0000231f       ?const_max@?$integer_traits_base@E$0A@$0PP@@detail@boost@@2EB 6083d31f     NMS_Engine.obj
 0002:00002320       ?is_integral@?$integer_traits_base@_W$0A@$0PPPP@@detail@boost@@2_NB 6083d320     NMS_Engine.obj
 0002:00002324       ?const_min@?$integer_traits_base@_W$0A@$0PPPP@@detail@boost@@2_WB 6083d324     NMS_Engine.obj
 0002:00002328       ?const_max@?$integer_traits_base@_W$0A@$0PPPP@@detail@boost@@2_WB 6083d328     NMS_Engine.obj
 0002:0000232a       ?is_integral@?$integer_traits_base@F$0?IAAA@$0HPPP@@detail@boost@@2_NB 6083d32a     NMS_Engine.obj
 0002:0000232c       ?const_min@?$integer_traits_base@F$0?IAAA@$0HPPP@@detail@boost@@2FB 6083d32c     NMS_Engine.obj
 0002:00002330       ?const_max@?$integer_traits_base@F$0?IAAA@$0HPPP@@detail@boost@@2FB 6083d330     NMS_Engine.obj
 0002:00002332       ?is_integral@?$integer_traits_base@G$0A@$0PPPP@@detail@boost@@2_NB 6083d332     NMS_Engine.obj
 0002:00002334       ?const_min@?$integer_traits_base@G$0A@$0PPPP@@detail@boost@@2GB 6083d334     NMS_Engine.obj
 0002:00002338       ?const_max@?$integer_traits_base@G$0A@$0PPPP@@detail@boost@@2GB 6083d338     NMS_Engine.obj
 0002:0000233a       ?is_integral@?$integer_traits_base@H$0?IAAAAAAA@$0HPPPPPPP@@detail@boost@@2_NB 6083d33a     NMS_Engine.obj
 0002:0000233c       ?const_min@?$integer_traits_base@H$0?IAAAAAAA@$0HPPPPPPP@@detail@boost@@2HB 6083d33c     NMS_Engine.obj
 0002:00002340       ?const_max@?$integer_traits_base@H$0?IAAAAAAA@$0HPPPPPPP@@detail@boost@@2HB 6083d340     NMS_Engine.obj
 0002:00002344       ?is_integral@?$integer_traits_base@I$0A@$0PPPPPPPP@@detail@boost@@2_NB 6083d344     NMS_Engine.obj
 0002:00002348       ?const_min@?$integer_traits_base@I$0A@$0PPPPPPPP@@detail@boost@@2IB 6083d348     NMS_Engine.obj
 0002:0000234c       ?const_max@?$integer_traits_base@I$0A@$0PPPPPPPP@@detail@boost@@2IB 6083d34c     NMS_Engine.obj
 0002:00002350       ?is_integral@?$integer_traits_base@J$0?IAAAAAAA@$0HPPPPPPP@@detail@boost@@2_NB 6083d350     NMS_Engine.obj
 0002:00002354       ?const_min@?$integer_traits_base@J$0?IAAAAAAA@$0HPPPPPPP@@detail@boost@@2JB 6083d354     NMS_Engine.obj
 0002:00002358       ?const_max@?$integer_traits_base@J$0?IAAAAAAA@$0HPPPPPPP@@detail@boost@@2JB 6083d358     NMS_Engine.obj
 0002:0000235c       ?is_integral@?$integer_traits_base@K$0A@$0PPPPPPPP@@detail@boost@@2_NB 6083d35c     NMS_Engine.obj
 0002:00002360       ?const_min@?$integer_traits_base@K$0A@$0PPPPPPPP@@detail@boost@@2KB 6083d360     NMS_Engine.obj
 0002:00002364       ?const_max@?$integer_traits_base@K$0A@$0PPPPPPPP@@detail@boost@@2KB 6083d364     NMS_Engine.obj
 0002:00002368       ?is_integral@?$integer_traits_base@_J$0?IAAAAAAAAAAAAAAA@$0HPPPPPPPPPPPPPPP@@detail@boost@@2_NB 6083d368     NMS_Engine.obj
 0002:00002370       ?const_min@?$integer_traits_base@_J$0?IAAAAAAAAAAAAAAA@$0HPPPPPPPPPPPPPPP@@detail@boost@@2_JB 6083d370     NMS_Engine.obj
 0002:00002378       ?const_max@?$integer_traits_base@_J$0?IAAAAAAAAAAAAAAA@$0HPPPPPPPPPPPPPPP@@detail@boost@@2_JB 6083d378     NMS_Engine.obj
 0002:00002380       ?is_integral@?$integer_traits_base@_K$0A@$0?0@detail@boost@@2_NB 6083d380     NMS_Engine.obj
 0002:00002388       ?const_min@?$integer_traits_base@_K$0A@$0?0@detail@boost@@2_KB 6083d388     NMS_Engine.obj
 0002:00002390       ?const_max@?$integer_traits_base@_K$0A@$0?0@detail@boost@@2_KB 6083d390     NMS_Engine.obj
 0002:00002398       ?value@integral_c_tag@mpl@boost@@2HB 6083d398     NMS_Engine.obj
 0002:0000239c       ?value@?$bool_@$00@mpl@boost@@2_NB 6083d39c     NMS_Engine.obj
 0002:0000239d       ?value@?$bool_@$0A@@mpl@boost@@2_NB 6083d39d     NMS_Engine.obj
 0002:0000239e       ?value@?$ice_or@$0A@$0A@$0A@$0A@$0A@$0A@$0A@@type_traits@boost@@2_NB 6083d39e     NMS_Engine.obj
 0002:0000239f       ?value@?$ice_and@$00$00$00$00$00$00$00@type_traits@boost@@2_NB 6083d39f     NMS_Engine.obj
 0002:000023a0       ?value@?$ice_not@$00@type_traits@boost@@2_NB 6083d3a0     NMS_Engine.obj
 0002:000023a1       ?value@?$is_member_function_pointer_impl@X@detail@boost@@2_NB 6083d3a1     NMS_Engine.obj
 0002:000023a2       ?value@?$is_member_function_pointer_impl@$$CBX@detail@boost@@2_NB 6083d3a2     NMS_Engine.obj
 0002:000023a3       ?value@?$is_member_function_pointer_impl@$$CCX@detail@boost@@2_NB 6083d3a3     NMS_Engine.obj
 0002:000023a4       ?value@?$is_member_function_pointer_impl@$$CDX@detail@boost@@2_NB 6083d3a4     NMS_Engine.obj
 0002:000023a5       ?value@?$is_scalar_impl@X@detail@boost@@2_NB 6083d3a5     NMS_Engine.obj
 0002:000023a6       ?value@?$is_scalar_impl@$$CBX@detail@boost@@2_NB 6083d3a6     NMS_Engine.obj
 0002:000023a7       ?value@?$is_scalar_impl@$$CCX@detail@boost@@2_NB 6083d3a7     NMS_Engine.obj
 0002:000023a8       ?value@?$is_scalar_impl@$$CDX@detail@boost@@2_NB 6083d3a8     NMS_Engine.obj
 0002:000023a9       ?value@?$is_pod_impl@X@detail@boost@@2_NB 6083d3a9     NMS_Engine.obj
 0002:000023aa       ?value@?$is_pod_impl@$$CBX@detail@boost@@2_NB 6083d3aa     NMS_Engine.obj
 0002:000023ab       ?value@?$is_pod_impl@$$CCX@detail@boost@@2_NB 6083d3ab     NMS_Engine.obj
 0002:000023ac       ?value@?$is_pod_impl@$$CDX@detail@boost@@2_NB 6083d3ac     NMS_Engine.obj
 0002:000023b0       ?value@?$integral_c@I$0A@@mpl@boost@@2IB 6083d3b0     NMS_Engine.obj
 0002:000023b4       ?args@?$function1@XH@boost@@2HB 6083d3b4     NMS_Engine.obj
 0002:000023b8       ?arity@?$function1@XH@boost@@2HB 6083d3b8     NMS_Engine.obj
 0002:000023bc       ?args@?$function1@XW4SDLKey@@@boost@@2HB 6083d3bc     NMS_Engine.obj
 0002:000023c0       ?arity@?$function1@XW4SDLKey@@@boost@@2HB 6083d3c0     NMS_Engine.obj
 0002:000023c4       ?args@?$function2@XHH@boost@@2HB 6083d3c4     NMS_Engine.obj
 0002:000023c8       ?arity@?$function2@XHH@boost@@2HB 6083d3c8     NMS_Engine.obj
 0002:000023cc       ?value@?$ice_not@$0A@@type_traits@boost@@2_NB 6083d3cc     NMS_Engine.obj
 0002:000023cd       ?is_const@?$cv_traits_imp@PAP6AXH@Z@detail@boost@@2_NB 6083d3cd     NMS_Engine.obj
 0002:000023ce       ?is_volatile@?$cv_traits_imp@PAP6AXH@Z@detail@boost@@2_NB 6083d3ce     NMS_Engine.obj
 0002:000023cf       ?value@?$is_pointer_helper@P6AXH@Z@detail@boost@@2_NB 6083d3cf     NMS_Engine.obj
 0002:000023d0       ?value@?$is_reference_impl@P6AXH@Z@detail@boost@@2_NB 6083d3d0     NMS_Engine.obj
 0002:000023d1       ?value@?$result_@P6AXH@Z@?$is_mem_fun_pointer_select@$0A@@detail@boost@@2_NB 6083d3d1     NMS_Engine.obj
 0002:000023d2       ?value@?$is_pointer_impl@P6AXH@Z@detail@boost@@2_NB 6083d3d2     NMS_Engine.obj
 0002:000023d3       ?value@?$is_arithmetic_impl@P6AXH@Z@detail@boost@@2_NB 6083d3d3     NMS_Engine.obj
 0002:000023d4       ?value@?$ice_or@$0A@$0A@$00$0A@$0A@$0A@$0A@@type_traits@boost@@2_NB 6083d3d4     NMS_Engine.obj
 0002:000023d5       ?value@?$is_scalar_impl@P6AXH@Z@detail@boost@@2_NB 6083d3d5     NMS_Engine.obj
 0002:000023d6       ?value@?$ice_or@$00$0A@$0A@$0A@$0A@$0A@$0A@@type_traits@boost@@2_NB 6083d3d6     NMS_Engine.obj
 0002:000023d7       ?value@?$is_pod_impl@P6AXH@Z@detail@boost@@2_NB 6083d3d7     NMS_Engine.obj
 0002:000023d8       ?value@?$is_volatile_rval_filter@P6AXH@Z@detail@boost@@2_NB 6083d3d8     NMS_Engine.obj
 0002:000023d9       ?value@?$has_trivial_copy_impl@P6AXH@Z@detail@boost@@2_NB 6083d3d9     NMS_Engine.obj
 0002:000023da       ?value@?$has_trivial_dtor_impl@P6AXH@Z@detail@boost@@2_NB 6083d3da     NMS_Engine.obj
 0002:000023dc       ?value@?$alignment_logic@$07$07@detail@boost@@2IB 6083d3dc     NMS_Engine.obj
 0002:000023e0       ?value@?$alignment_of_impl@Tfunction_buffer@function@detail@boost@@@detail@boost@@2IB 6083d3e0     NMS_Engine.obj
 0002:000023e4       ?value@?$integral_c@I$07@mpl@boost@@2IB 6083d3e4     NMS_Engine.obj
 0002:000023e8       ?value@?$alignment_logic@$03$03@detail@boost@@2IB 6083d3e8     NMS_Engine.obj
 0002:000023ec       ?value@?$alignment_of_impl@P6AXH@Z@detail@boost@@2IB 6083d3ec     NMS_Engine.obj
 0002:000023f0       ?value@?$integral_c@I$03@mpl@boost@@2IB 6083d3f0     NMS_Engine.obj
 0002:000023f4       ?value@?$function_allows_small_object_optimization@P6AXH@Z@function@detail@boost@@2_NB 6083d3f4     NMS_Engine.obj
 0002:000023f5       ?is_const@?$cv_traits_imp@PAP6AXW4SDLKey@@@Z@detail@boost@@2_NB 6083d3f5     NMS_Engine.obj
 0002:000023f6       ?is_volatile@?$cv_traits_imp@PAP6AXW4SDLKey@@@Z@detail@boost@@2_NB 6083d3f6     NMS_Engine.obj
 0002:000023f7       ?value@?$is_pointer_helper@P6AXW4SDLKey@@@Z@detail@boost@@2_NB 6083d3f7     NMS_Engine.obj
 0002:000023f8       ?value@?$is_reference_impl@P6AXW4SDLKey@@@Z@detail@boost@@2_NB 6083d3f8     NMS_Engine.obj
 0002:000023f9       ?value@?$result_@P6AXW4SDLKey@@@Z@?$is_mem_fun_pointer_select@$0A@@detail@boost@@2_NB 6083d3f9     NMS_Engine.obj
 0002:000023fa       ?value@?$is_pointer_impl@P6AXW4SDLKey@@@Z@detail@boost@@2_NB 6083d3fa     NMS_Engine.obj
 0002:000023fb       ?value@?$is_arithmetic_impl@P6AXW4SDLKey@@@Z@detail@boost@@2_NB 6083d3fb     NMS_Engine.obj
 0002:000023fc       ?value@?$is_scalar_impl@P6AXW4SDLKey@@@Z@detail@boost@@2_NB 6083d3fc     NMS_Engine.obj
 0002:000023fd       ?value@?$is_pod_impl@P6AXW4SDLKey@@@Z@detail@boost@@2_NB 6083d3fd     NMS_Engine.obj
 0002:000023fe       ?value@?$is_volatile_rval_filter@P6AXW4SDLKey@@@Z@detail@boost@@2_NB 6083d3fe     NMS_Engine.obj
 0002:000023ff       ?value@?$has_trivial_copy_impl@P6AXW4SDLKey@@@Z@detail@boost@@2_NB 6083d3ff     NMS_Engine.obj
 0002:00002400       ?value@?$has_trivial_dtor_impl@P6AXW4SDLKey@@@Z@detail@boost@@2_NB 6083d400     NMS_Engine.obj
 0002:00002404       ?value@?$alignment_of_impl@P6AXW4SDLKey@@@Z@detail@boost@@2IB 6083d404     NMS_Engine.obj
 0002:00002408       ?value@?$function_allows_small_object_optimization@P6AXW4SDLKey@@@Z@function@detail@boost@@2_NB 6083d408     NMS_Engine.obj
 0002:00002409       ?is_const@?$cv_traits_imp@PAP6AXHH@Z@detail@boost@@2_NB 6083d409     NMS_Engine.obj
 0002:0000240a       ?is_volatile@?$cv_traits_imp@PAP6AXHH@Z@detail@boost@@2_NB 6083d40a     NMS_Engine.obj
 0002:0000240b       ?value@?$is_pointer_helper@P6AXHH@Z@detail@boost@@2_NB 6083d40b     NMS_Engine.obj
 0002:0000240c       ?value@?$is_reference_impl@P6AXHH@Z@detail@boost@@2_NB 6083d40c     NMS_Engine.obj
 0002:0000240d       ?value@?$result_@P6AXHH@Z@?$is_mem_fun_pointer_select@$0A@@detail@boost@@2_NB 6083d40d     NMS_Engine.obj
 0002:0000240e       ?value@?$is_pointer_impl@P6AXHH@Z@detail@boost@@2_NB 6083d40e     NMS_Engine.obj
 0002:0000240f       ?value@?$is_arithmetic_impl@P6AXHH@Z@detail@boost@@2_NB 6083d40f     NMS_Engine.obj
 0002:00002410       ?value@?$is_scalar_impl@P6AXHH@Z@detail@boost@@2_NB 6083d410     NMS_Engine.obj
 0002:00002411       ?value@?$is_pod_impl@P6AXHH@Z@detail@boost@@2_NB 6083d411     NMS_Engine.obj
 0002:00002412       ?value@?$is_volatile_rval_filter@P6AXHH@Z@detail@boost@@2_NB 6083d412     NMS_Engine.obj
 0002:00002413       ?value@?$has_trivial_copy_impl@P6AXHH@Z@detail@boost@@2_NB 6083d413     NMS_Engine.obj
 0002:00002414       ?value@?$has_trivial_dtor_impl@P6AXHH@Z@detail@boost@@2_NB 6083d414     NMS_Engine.obj
 0002:00002418       ?value@?$alignment_of_impl@P6AXHH@Z@detail@boost@@2IB 6083d418     NMS_Engine.obj
 0002:0000241c       ?value@?$function_allows_small_object_optimization@P6AXHH@Z@function@detail@boost@@2_NB 6083d41c     NMS_Engine.obj
 0002:00002424       ??_7Thread@@6B@            6083d424     NMS_Engine.obj
 0002:0000242c       ??_7NMS_SceneRenderer@@6BThread@@@ 6083d42c     NMS_Engine.obj
 0002:00002434       ??_7NMS_SceneRenderer@@6BSceneGraphVisitor@@@ 6083d434     NMS_Engine.obj
 0002:00002440       ??_7AmbientLight@@6B@      6083d440     NMS_Engine.obj
 0002:00002448       ??_7LightSource@@6B@       6083d448     NMS_Engine.obj
 0002:00002450       ??_C@_1HK@BAKLBEFA@?$AAc?$AA?3?$AA?2?$AAp?$AAr?$AAo?$AAg?$AAr?$AAa?$AAm?$AA?5?$AAf?$AAi?$AAl?$AAe?$AAs?$AA?2?$AAm?$AAi?$AAc?$AAr?$AAo?$AAs?$AAo?$AAf?$AAt?$AA?5?$AAv?$AAi?$AAs?$AAu?$AAa@ 6083d450     NMS_Engine.obj
 0002:000024d0       ??_C@_1EG@BPNHNPIG@?$AAl?$AAi?$AAs?$AAt?$AA?5?$AAi?$AAn?$AAs?$AAe?$AAr?$AAt?$AA?5?$AAi?$AAt?$AAe?$AAr?$AAa?$AAt?$AAo?$AAr?$AA?5?$AAo?$AAu?$AAt?$AAs?$AAi?$AAd?$AAe?$AA?5?$AAr?$AAa?$AAn@ 6083d4d0     NMS_Engine.obj
 0002:00002518       ??_C@_1EE@BBMFLDOC@?$AAl?$AAi?$AAs?$AAt?$AA?5?$AAe?$AAr?$AAa?$AAs?$AAe?$AA?5?$AAi?$AAt?$AAe?$AAr?$AAa?$AAt?$AAo?$AAr?$AA?5?$AAo?$AAu?$AAt?$AAs?$AAi?$AAd?$AAe?$AA?5?$AAr?$AAa?$AAn?$AAg@ 6083d518     NMS_Engine.obj
 0002:00002560       ??_C@_1ME@POMLPPMP@?$AAs?$AAt?$AAd?$AA?3?$AA?3?$AAl?$AAi?$AAs?$AAt?$AA?$DM?$AAu?$AAn?$AAi?$AAo?$AAn?$AA?5?$AAS?$AAD?$AAL?$AA_?$AAE?$AAv?$AAe?$AAn?$AAt?$AA?0?$AAc?$AAl?$AAa?$AAs?$AAs?$AA?5@ 6083d560     NMS_Engine.obj
 0002:00002628       ??_C@_1EC@HILJLMMC@?$AAl?$AAi?$AAs?$AAt?$AA?5?$AAi?$AAt?$AAe?$AAr?$AAa?$AAt?$AAo?$AAr?$AA?5?$AAn?$AAo?$AAt?$AA?5?$AAd?$AAe?$AAr?$AAe?$AAf?$AAe?$AAr?$AAe?$AAn?$AAc?$AAa?$AAb?$AAl?$AAe@ 6083d628     NMS_Engine.obj
 0002:00002670       ??_C@_1MG@NNAPCBFN@?$AAs?$AAt?$AAd?$AA?3?$AA?3?$AAl?$AAi?$AAs?$AAt?$AA?$DM?$AAu?$AAn?$AAi?$AAo?$AAn?$AA?5?$AAS?$AAD?$AAL?$AA_?$AAE?$AAv?$AAe?$AAn?$AAt?$AA?0?$AAc?$AAl?$AAa?$AAs?$AAs?$AA?5@ 6083d670     NMS_Engine.obj
 0002:00002738       ??_C@_1EA@DOGAGKDH@?$AAl?$AAi?$AAs?$AAt?$AA?5?$AAi?$AAt?$AAe?$AAr?$AAa?$AAt?$AAo?$AAr?$AA?5?$AAn?$AAo?$AAt?$AA?5?$AAi?$AAn?$AAc?$AAr?$AAe?$AAm?$AAe?$AAn?$AAt?$AAa?$AAb?$AAl?$AAe?$AA?$AA@ 6083d738     NMS_Engine.obj
 0002:00002778       ??_C@_1MG@CODNJNJM@?$AAs?$AAt?$AAd?$AA?3?$AA?3?$AAl?$AAi?$AAs?$AAt?$AA?$DM?$AAu?$AAn?$AAi?$AAo?$AAn?$AA?5?$AAS?$AAD?$AAL?$AA_?$AAE?$AAv?$AAe?$AAn?$AAt?$AA?0?$AAc?$AAl?$AAa?$AAs?$AAs?$AA?5@ 6083d778     NMS_Engine.obj
 0002:00002840       ??_C@_1EA@JDNDELPC@?$AAl?$AAi?$AAs?$AAt?$AA?5?$AAi?$AAt?$AAe?$AAr?$AAa?$AAt?$AAo?$AAr?$AA?5?$AAn?$AAo?$AAt?$AA?5?$AAd?$AAe?$AAc?$AAr?$AAe?$AAm?$AAe?$AAn?$AAt?$AAa?$AAb?$AAl?$AAe?$AA?$AA@ 6083d840     NMS_Engine.obj
 0002:00002880       ??_C@_0BB@MOGOBHAF@list?$DMT?$DO?5too?5long?$AA@ 6083d880     NMS_Engine.obj
 0002:00002898       ??_C@_1LO@CACNFNCB@?$AAs?$AAt?$AAd?$AA?3?$AA?3?$AAl?$AAi?$AAs?$AAt?$AA?$DM?$AAu?$AAn?$AAi?$AAo?$AAn?$AA?5?$AAS?$AAD?$AAL?$AA_?$AAE?$AAv?$AAe?$AAn?$AAt?$AA?0?$AAc?$AAl?$AAa?$AAs?$AAs?$AA?5@ 6083d898     NMS_Engine.obj
 0002:00002958       ??_C@_1DI@MDELDGPI@?$AAl?$AAi?$AAs?$AAt?$AA?5?$AAi?$AAt?$AAe?$AAr?$AAa?$AAt?$AAo?$AAr?$AAs?$AA?5?$AAi?$AAn?$AAc?$AAo?$AAm?$AAp?$AAa?$AAt?$AAi?$AAb?$AAl?$AAe?$AA?$AA@ 6083d958     NMS_Engine.obj
 0002:00002994       ??_7bad_function_call@boost@@6B@ 6083d994     NMS_Event.obj
 0002:0000299c       ??_C@_0BO@HKHPGMPA@call?5to?5empty?5boost?3?3function?$AA@ 6083d99c     NMS_Event.obj
 0002:000029c0       ??_7runtime_error@std@@6B@ 6083d9c0     NMS_Event.obj
 0002:000029cc       ??_7?$clone_impl@U?$error_info_injector@Vbad_function_call@boost@@@exception_detail@boost@@@exception_detail@boost@@6B@ 6083d9cc     NMS_Event.obj
 0002:000029dc       ??_7?$clone_impl@U?$error_info_injector@Vbad_function_call@boost@@@exception_detail@boost@@@exception_detail@boost@@6Bexception@2@@ 6083d9dc     NMS_Event.obj
 0002:000029e4       ??_7?$clone_impl@U?$error_info_injector@Vbad_function_call@boost@@@exception_detail@boost@@@exception_detail@boost@@6Bbad_function_call@2@@ 6083d9e4     NMS_Event.obj
 0002:000029f0       ??_7?$error_info_injector@Vbad_function_call@boost@@@exception_detail@boost@@6Bexception@2@@ 6083d9f0     NMS_Event.obj
 0002:000029f8       ??_7?$error_info_injector@Vbad_function_call@boost@@@exception_detail@boost@@6Bbad_function_call@2@@ 6083d9f8     NMS_Event.obj
 0002:00002a04       ??_7exception@boost@@6B@   6083da04     NMS_Event.obj
 0002:00002a0c       ??_7clone_base@exception_detail@boost@@6B@ 6083da0c     NMS_Event.obj
 0002:00002a18       ?is_const@?$cv_traits_imp@PAV?$binder1st@V?$mem_fun1_t@XVNMS_Framework@@H@std@@@std@@@detail@boost@@2_NB 6083da18     NMS_Framework.obj
 0002:00002a19       ?is_volatile@?$cv_traits_imp@PAV?$binder1st@V?$mem_fun1_t@XVNMS_Framework@@H@std@@@std@@@detail@boost@@2_NB 6083da19     NMS_Framework.obj
 0002:00002a1a       ?value@?$is_pointer_helper@V?$binder1st@V?$mem_fun1_t@XVNMS_Framework@@H@std@@@std@@@detail@boost@@2_NB 6083da1a     NMS_Framework.obj
 0002:00002a1b       ?value@?$is_reference_impl@V?$binder1st@V?$mem_fun1_t@XVNMS_Framework@@H@std@@@std@@@detail@boost@@2_NB 6083da1b     NMS_Framework.obj
 0002:00002a1c       ?value@?$result_@V?$binder1st@V?$mem_fun1_t@XVNMS_Framework@@H@std@@@std@@@?$is_mem_fun_pointer_select@$0A@@detail@boost@@2_NB 6083da1c     NMS_Framework.obj
 0002:00002a1d       ?value@?$ice_and@$0A@$00$00$00$00$00$00@type_traits@boost@@2_NB 6083da1d     NMS_Framework.obj
 0002:00002a1e       ?value@?$is_pointer_impl@V?$binder1st@V?$mem_fun1_t@XVNMS_Framework@@H@std@@@std@@@detail@boost@@2_NB 6083da1e     NMS_Framework.obj
 0002:00002a1f       ?value@?$is_arithmetic_impl@V?$binder1st@V?$mem_fun1_t@XVNMS_Framework@@H@std@@@std@@@detail@boost@@2_NB 6083da1f     NMS_Framework.obj
 0002:00002a20       ?value@?$is_scalar_impl@V?$binder1st@V?$mem_fun1_t@XVNMS_Framework@@H@std@@@std@@@detail@boost@@2_NB 6083da20     NMS_Framework.obj
 0002:00002a21       ?value@?$is_pod_impl@V?$binder1st@V?$mem_fun1_t@XVNMS_Framework@@H@std@@@std@@@detail@boost@@2_NB 6083da21     NMS_Framework.obj
 0002:00002a22       ?value@?$ice_or@$0A@$00$0A@$0A@$0A@$0A@$0A@@type_traits@boost@@2_NB 6083da22     NMS_Framework.obj
 0002:00002a23       ?value@?$is_volatile_rval_filter@V?$binder1st@V?$mem_fun1_t@XVNMS_Framework@@H@std@@@std@@@detail@boost@@2_NB 6083da23     NMS_Framework.obj
 0002:00002a24       ?value@?$has_trivial_copy_impl@V?$binder1st@V?$mem_fun1_t@XVNMS_Framework@@H@std@@@std@@@detail@boost@@2_NB 6083da24     NMS_Framework.obj
 0002:00002a25       ?value@?$has_trivial_dtor_impl@V?$binder1st@V?$mem_fun1_t@XVNMS_Framework@@H@std@@@std@@@detail@boost@@2_NB 6083da25     NMS_Framework.obj
 0002:00002a28       ?value@?$alignment_of_impl@V?$binder1st@V?$mem_fun1_t@XVNMS_Framework@@H@std@@@std@@@detail@boost@@2IB 6083da28     NMS_Framework.obj
 0002:00002a2c       ?value@?$function_allows_small_object_optimization@V?$binder1st@V?$mem_fun1_t@XVNMS_Framework@@H@std@@@std@@@function@detail@boost@@2_NB 6083da2c     NMS_Framework.obj
 0002:00002a30       __real@c0a00000            6083da30     NMS_Framework.obj
 0002:00002a38       ??_C@_1LO@PLBPCKMA@?$AAs?$AAt?$AAd?$AA?3?$AA?3?$AAv?$AAe?$AAc?$AAt?$AAo?$AAr?$AA?$DM?$AAc?$AAl?$AAa?$AAs?$AAs?$AA?5?$AAS?$AAc?$AAe?$AAn?$AAe?$AAG?$AAr?$AAa?$AAp?$AAh?$AAN?$AAo?$AAd?$AAe@ 6083da38     NMS_SceneGraph.obj
 0002:00002af8       ??_C@_1NO@NMJDBGMJ@?$AAs?$AAt?$AAd?$AA?3?$AA?3?$AA_?$AAV?$AAe?$AAc?$AAt?$AAo?$AAr?$AA_?$AAc?$AAo?$AAn?$AAs?$AAt?$AA_?$AAi?$AAt?$AAe?$AAr?$AAa?$AAt?$AAo?$AAr?$AA?$DM?$AAc?$AAl?$AAa?$AAs@ 6083daf8     NMS_SceneGraph.obj
 0002:00002bd8       __real@404e000000000000    6083dbd8     NMS_SceneRenderer.obj
 0002:00002be0       ??_C@_06FNDEKJDK@Demo?52?$AA@ 6083dbe0     NMS_SceneRenderer.obj
 0002:00002be8       __real@3f4a36e2e0000000    6083dbe8     NMS_SceneRenderer.obj
 0002:00002bf0       ??_C@_0BG@FMNAMHHI@Frames?5per?5Second?3?5?$CFd?$AA@ 6083dbf0     NMS_SceneRenderer.obj
 0002:00002c08       __real@3f50624de0000000    6083dc08     NMS_SceneRenderer.obj
 0002:00002c10       ??_C@_0DC@OBEJEBLB@NMS_TextureManager?3?3Texture?5Mana@ 6083dc10     NMS_TextureManager.obj
 0002:00002c44       ??_C@_0DA@HBCDNIKB@NMS_TextureManager?3?3Texture?5Mana@ 6083dc44     NMS_TextureManager.obj
 0002:00002c74       ??_C@_0DB@DMLBJBA@NMS_TextureManager?3?3Loaded?5?$FL?$CFs?$FN?5@ 6083dc74     NMS_TextureManager.obj
 0002:00002ca8       ??_C@_0EB@HNIMEFAO@NMS_TextureManager?3?3Error?5in?5loa@ 6083dca8     NMS_TextureManager.obj
 0002:00002cec       ??_C@_0CP@GPBNKFIH@NMS_TextureManager?3?3Texture?5load@ 6083dcec     NMS_TextureManager.obj
 0002:00002d20       ??_C@_0EL@GAOAJNLB@NMS_TextureManager?3?3Error?5in?5con@ 6083dd20     NMS_TextureManager.obj
 0002:00002d6c       ??_C@_0CN@GONGHAIC@NMS_TextureManager?3?3Lump?5created@ 6083dd6c     NMS_TextureManager.obj
 0002:00002d9c       ??_C@_0DJ@PBFOEIMF@NMS_TextureManager?3?3Negative?5fil@ 6083dd9c     NMS_TextureManager.obj
 0002:00002dd8       ??_C@_0DD@OOBHJDDB@NMS_TextureManager?3?3Cannot?5open?5@ 6083ddd8     NMS_TextureManager.obj
 0002:00002e0c       ??_C@_0CK@ILCMOJFP@NMS_TextureManager?3?3Wrong?5DevIL?5@ 6083de0c     NMS_TextureManager.obj
 0002:00002e38       ??_C@_0CJ@EIPBBGP@NMS_TextureManager?3?3Trying?5to?5lo@ 6083de38     NMS_TextureManager.obj
 0002:00002e64       ??_C@_0DI@EKGOHON@NMS_TextureManager?3?3Deleted?5imag@ 6083de64     NMS_TextureManager.obj
 0002:00002e9c       ??_C@_0CN@JIILIIFB@NMS_TextureManager?3?3Freed?5the?5wh@ 6083de9c     NMS_TextureManager.obj
 0002:00002ed0       ??_C@_0FD@KLBINAPJ@NMS_TextureManager?3?3Impossible?5t@ 6083ded0     NMS_TextureManager.obj
 0002:00002f28       ??_C@_1EM@MHOKKPFH@?$AAm?$AAa?$AAp?$AA?1?$AAs?$AAe?$AAt?$AA?5?$AAi?$AAn?$AAs?$AAe?$AAr?$AAt?$AA?5?$AAi?$AAt?$AAe?$AAr?$AAa?$AAt?$AAo?$AAr?$AA?5?$AAo?$AAu?$AAt?$AAs?$AAi?$AAd?$AAe?$AA?5@ 6083df28     NMS_TextureManager.obj
 0002:00002f78       ??_C@_1BHM@KKGMLFOJ@?$AAs?$AAt?$AAd?$AA?3?$AA?3?$AA_?$AAT?$AAr?$AAe?$AAe?$AA?$DM?$AAc?$AAl?$AAa?$AAs?$AAs?$AA?5?$AAs?$AAt?$AAd?$AA?3?$AA?3?$AA_?$AAT?$AAm?$AAa?$AAp?$AA_?$AAt?$AAr?$AAa?$AAi@ 6083df78     NMS_TextureManager.obj
 0002:000030f8       ??_C@_1EI@FHEHNNNM@?$AAm?$AAa?$AAp?$AA?1?$AAs?$AAe?$AAt?$AA?5?$AAi?$AAt?$AAe?$AAr?$AAa?$AAt?$AAo?$AAr?$AA?5?$AAn?$AAo?$AAt?$AA?5?$AAd?$AAe?$AAr?$AAe?$AAf?$AAe?$AAr?$AAe?$AAn?$AAc?$AAa@ 6083e0f8     NMS_TextureManager.obj
 0002:00003140       ??_C@_0BE@JONHPENG@map?1set?$DMT?$DO?5too?5long?$AA@ 6083e140     NMS_TextureManager.obj
 0002:00003158       ??_C@_1BHA@NFJCGLO@?$AAs?$AAt?$AAd?$AA?3?$AA?3?$AA_?$AAT?$AAr?$AAe?$AAe?$AA?$DM?$AAc?$AAl?$AAa?$AAs?$AAs?$AA?5?$AAs?$AAt?$AAd?$AA?3?$AA?3?$AA_?$AAT?$AAm?$AAa?$AAp?$AA_?$AAt?$AAr?$AAa?$AAi@ 6083e158     NMS_TextureManager.obj
 0002:000032c8       ??_C@_1EG@OKCGOALM@?$AAm?$AAa?$AAp?$AA?1?$AAs?$AAe?$AAt?$AA?5?$AAi?$AAt?$AAe?$AAr?$AAa?$AAt?$AAo?$AAr?$AA?5?$AAn?$AAo?$AAt?$AA?5?$AAd?$AAe?$AAc?$AAr?$AAe?$AAm?$AAe?$AAn?$AAt?$AAa?$AAb@ 6083e2c8     NMS_TextureManager.obj
 0002:00003310       ??_C@_1CE@IGJMOCCK@?$AAi?$AAn?$AAv?$AAa?$AAl?$AAi?$AAd?$AA?5?$AAo?$AAp?$AAe?$AAr?$AAa?$AAt?$AAo?$AAr?$AA?$DM?$AA?$AA@ 6083e310     NMS_TextureManager.obj
 0002:00003334       ??_C@_1BA@GKNFDPDP@?$AA?$CB?$AAt?$AAh?$AAr?$AAe?$AAa?$AAd?$AA?$AA@ 6083e334     NMS_Thread.obj
 0002:00003348       ??_C@_1KA@GOCAJHOJ@?$AAc?$AA?3?$AA?2?$AAu?$AAs?$AAe?$AAr?$AAs?$AA?2?$AAl?$AAe?$AAy?$AAa?$AAr?$AAt?$AA?2?$AAd?$AAo?$AAc?$AAu?$AAm?$AAe?$AAn?$AAt?$AAs?$AA?2?$AAi?$AAt?$AAu?$AA?2?$AAg?$AAa@ 6083e348     NMS_Thread.obj
 0002:000033e8       ??_C@_0BH@HNIBKGCA@Unknown?5object?5thrown?6?$AA@ 6083e3e8     NMS_Thread.obj
 0002:00003638       ??_C@_1IC@OEHKPAAJ@?$AAc?$AA?3?$AA?2?$AAP?$AAr?$AAo?$AAg?$AAr?$AAa?$AAm?$AA?5?$AAF?$AAi?$AAl?$AAe?$AAs?$AA?2?$AAM?$AAi?$AAc?$AAr?$AAo?$AAs?$AAo?$AAf?$AAt?$AA?5?$AAV?$AAi?$AAs?$AAu?$AAa@ 6083e638     nms_math:Matrix.obj
 0002:000036c0       __real@4066800000000000    6083e6c0     nms_math:Trig.obj
 0002:000036c8       __real@400921fb54442d18    6083e6c8     nms_math:Trig.obj
 0002:000036d0       __real@4070e00000000000    6083e6d0     nms_math:Trig.obj
 0002:000036dc       ??_7type_info@@6B@         6083e6dc     MSVCRTD:ti_inst.obj
 0002:000036e0       ??_C@_0BO@GNIAFIKK@Unknown?5Runtime?5Check?5Error?6?$AN?$AA@ 6083e6e0     MSVCRTD:_error_.obj
 0002:00003700       ??_C@_0CM@NGINOKPC@Stack?5memory?5around?5_alloca?5was?5@ 6083e700     MSVCRTD:_error_.obj
 0002:0000372c       ??_C@_0DG@HKJMLLLP@A?5local?5variable?5was?5used?5before@ 6083e72c     MSVCRTD:_error_.obj
 0002:00003764       ??_C@_0BN@FFOINMNJ@Stack?5memory?5was?5corrupted?6?$AN?$AA@ 6083e764     MSVCRTD:_error_.obj
 0002:00003788       ??_C@_0BBN@GPMLNJCF@A?5cast?5to?5a?5smaller?5data?5type?5ha@ 6083e788     MSVCRTD:_error_.obj
 0002:000038a8       ??_C@_0NN@NGPKDKPD@The?5value?5of?5ESP?5was?5not?5properl@ 6083e8a8     MSVCRTD:_error_.obj
 0002:00003a24       ??_C@_0CA@IODNCDPG@Run?9Time?5Check?5Failure?5?$CD?$CFd?5?9?5?$CFs?$AA@ 6083ea24     MSVCRTD:_error_.obj
 0002:00003a44       ??_C@_0BE@GNBOBNCK@Unknown?5Module?5Name?$AA@ 6083ea44     MSVCRTD:_error_.obj
 0002:00003a58       ??_C@_0BB@PFFGGCJP@Unknown?5Filename?$AA@ 6083ea58     MSVCRTD:_error_.obj
 0002:00003a70       ??_C@_1EA@NFKNIFJP@?$AAR?$AAu?$AAn?$AA?9?$AAT?$AAi?$AAm?$AAe?$AA?5?$AAC?$AAh?$AAe?$AAc?$AAk?$AA?5?$AAF?$AAa?$AAi?$AAl?$AAu?$AAr?$AAe?$AA?5?$AA?$CD?$AA?$CF?$AAd?$AA?5?$AA?9?$AA?5?$AA?$CF?$AAs?$AA?$AA@ 6083ea70     MSVCRTD:_error_.obj
 0002:00003ab0       ??_C@_1GM@OLMCBDMB@?$AAR?$AAu?$AAn?$AAt?$AAi?$AAm?$AAe?$AA?5?$AAC?$AAh?$AAe?$AAc?$AAk?$AA?5?$AAE?$AAr?$AAr?$AAo?$AAr?$AA?4?$AA?6?$AA?$AN?$AA?5?$AAU?$AAn?$AAa?$AAb?$AAl?$AAe?$AA?5?$AAt?$AAo@ 6083eab0     MSVCRTD:_error_.obj
 0002:00003b1c       ??_C@_0CG@IAFNJNEE@Stack?5corrupted?5near?5unknown?5var@ 6083eb1c     MSVCRTD:_error_.obj
 0002:00003b48       ??_C@_0EJ@LJKNEOLN@Stack?5area?5around?5_alloca?5memory@ 6083eb48     MSVCRTD:_error_.obj
 0002:00003b94       ??_C@_08KJEDNCKC@?$CFs?$CFs?$CFs?$CFs?$AA@ 6083eb94     MSVCRTD:_error_.obj
 0002:00003ba0       ??_C@_02LLMPMKNF@?$DO?5?$AA@ 6083eba0     MSVCRTD:_error_.obj
 0002:00003ba4       ??_C@_01EEMJAFIK@?6?$AA@   6083eba4     MSVCRTD:_error_.obj
 0002:00003ba8       ??_C@_0BC@KIBAILCI@?$CFs?$CFs?$CFp?$CFs?$CFld?$CFs?$CFd?$CFs?$AA@ 6083eba8     MSVCRTD:_error_.obj
 0002:00003bc0       ??_C@_0EI@CLEPFNGI@Stack?5area?5around?5_alloca?5memory@ 6083ebc0     MSVCRTD:_error_.obj
 0002:00003c08       ??_C@_0N@MHFFIMFG@?6Address?3?50x?$AA@ 6083ec08     MSVCRTD:_error_.obj
 0002:00003c18       ??_C@_07DFDJCKFN@?6Size?3?5?$AA@ 6083ec18     MSVCRTD:_error_.obj
 0002:00003c20       ??_C@_0CK@DKGBICFE@?6Allocation?5number?5within?5this?5f@ 6083ec20     MSVCRTD:_error_.obj
 0002:00003c4c       ??_C@_08OMAHNMHJ@?6Data?3?5?$DM?$AA@ 6083ec4c     MSVCRTD:_error_.obj
 0002:00003c58       ??_C@_09FOPFMPEJ@wsprintfA?$AA@ 6083ec58     MSVCRTD:_error_.obj
 0002:00003c64       ??_C@_0L@GMPLCCII@user32?4dll?$AA@ 6083ec64     MSVCRTD:_error_.obj
 0002:00003c70       ??_C@_05MKKEDADM@?$CF?42X?5?$AA@ 6083ec70     MSVCRTD:_error_.obj
 0002:00003c78       ??_C@_0DE@OHJBPMBP@A?5variable?5is?5being?5used?5without@ 6083ec78     MSVCRTD:_error_.obj
 0002:00003cac       __pRawDllMain              6083ecac     MSVCRTD:crtdll.obj
 0002:00003cac       __pDefaultRawDllMain       6083ecac     MSVCRTD:crtdll.obj
 0002:00003cb0       ??_C@_0DA@FJPPCPEH@f?3?2dd?2vctools?2crt_bld?2self_x86?2c@ 6083ecb0     MSVCRTD:crtdll.obj
 0002:00003ce0       ??_C@_0BP@OGBCLIBO@Stack?5around?5_alloca?5corrupted?$AA@ 6083ece0     MSVCRTD:_userapi_.obj
 0002:00003d00       ??_C@_0CK@CNLNOEPB@Local?5variable?5used?5before?5initi@ 6083ed00     MSVCRTD:_userapi_.obj
 0002:00003d2c       ??_C@_0BI@CIGMDCBH@Stack?5memory?5corruption?$AA@ 6083ed2c     MSVCRTD:_userapi_.obj
 0002:00003d44       ??_C@_0CK@FEGOIOPB@Cast?5to?5smaller?5type?5causing?5los@ 6083ed44     MSVCRTD:_userapi_.obj
 0002:00003d70       ??_C@_0BJ@HEGAHDFO@Stack?5pointer?5corruption?$AA@ 6083ed70     MSVCRTD:_userapi_.obj
 0002:00003da8       ??_C@_0M@EKFFODEC@MSPDB80?4DLL?$AA@ 6083eda8     MSVCRTD:_pdblkup_.obj
 0002:00003db4       ??_C@_01KDCPPGHE@r?$AA@    6083edb4     MSVCRTD:_pdblkup_.obj
 0002:00003db8       ??_C@_0BB@KCIACLNC@PDBOpenValidate5?$AA@ 6083edb8     MSVCRTD:_pdblkup_.obj
 0002:00003dcc       ??_C@_0BF@BMIHBHCA@EnvironmentDirectory?$AA@ 6083edcc     MSVCRTD:_pdblkup_.obj
 0002:00003de4       ??_C@_0CN@JNNIHDGH@SOFTWARE?2Microsoft?2VisualStudio?2@ 6083ede4     MSVCRTD:_pdblkup_.obj
 0002:00003e14       ??_C@_0M@HLOHPNFA@RegCloseKey?$AA@ 6083ee14     MSVCRTD:_pdblkup_.obj
 0002:00003e20       ??_C@_0BB@HHEIPGME@RegQueryValueExA?$AA@ 6083ee20     MSVCRTD:_pdblkup_.obj
 0002:00003e34       ??_C@_0O@DCOGKJGG@RegOpenKeyExA?$AA@ 6083ee34     MSVCRTD:_pdblkup_.obj
 0002:00003e44       ??_C@_0N@JJPEKNFO@ADVAPI32?4DLL?$AA@ 6083ee44     MSVCRTD:_pdblkup_.obj
 0002:00003e54       ?ProcessDetach@NativeDll@<CrtImplementationDetails>@@0IB 6083ee54     MSVCRTD:tncleanup.obj
 0002:00003e58       ?ProcessAttach@NativeDll@<CrtImplementationDetails>@@0IB 6083ee58     MSVCRTD:tncleanup.obj
 0002:00003e5c       ?ThreadAttach@NativeDll@<CrtImplementationDetails>@@0IB 6083ee5c     MSVCRTD:tncleanup.obj
 0002:00003e60       ?ThreadDetach@NativeDll@<CrtImplementationDetails>@@0IB 6083ee60     MSVCRTD:tncleanup.obj
 0002:00003e64       ?ProcessVerifier@NativeDll@<CrtImplementationDetails>@@0IB 6083ee64     MSVCRTD:tncleanup.obj
 0002:00003ea8       ??_C@_02JDPG@rb?$AA@       6083eea8     irrXML:irrXML.obj
 0002:00003eac       ??_C@_05JKJFEODM@?$CGamp?$DL?$AA@ 6083eeac     irrXML:irrXML.obj
 0002:00003eb4       ??_C@_04EDLGDKGK@?$DMlt?$DL?$AA@ 6083eeb4     irrXML:irrXML.obj
 0002:00003ebc       ??_C@_04OOHHOOAL@?$DOgt?$DL?$AA@ 6083eebc     irrXML:irrXML.obj
 0002:00003ec4       ??_C@_06MHPCHBAO@?$CCquot?$DL?$AA@ 6083eec4     irrXML:irrXML.obj
 0002:00003ecc       ??_C@_06FLLDMFMH@?8apos?$DL?$AA@ 6083eecc     irrXML:irrXML.obj
 0002:00003ed3       ??_C@_00CNPNBAHC@?$AA@     6083eed3     irrXML:irrXML.obj
 0002:00003ed8       ??_7IFileReadCallBack@io@irr@@6B@ 6083eed8     irrXML:irrXML.obj
 0002:00003eec       ??_7?$IIrrXMLReader@DVIXMLBase@io@irr@@@io@irr@@6B@ 6083eeec     irrXML:irrXML.obj
 0002:00003f34       ??_7?$IIrrXMLReader@GVIXMLBase@io@irr@@@io@irr@@6B@ 6083ef34     irrXML:irrXML.obj
 0002:00003f7c       ??_7?$IIrrXMLReader@KVIXMLBase@io@irr@@@io@irr@@6B@ 6083ef7c     irrXML:irrXML.obj
 0002:00003fc4       ??_7CFileReadCallBack@io@irr@@6B@ 6083efc4     irrXML:irrXML.obj
 0002:00003fd4       ??_7?$CXMLReaderImpl@DVIXMLBase@io@irr@@@io@irr@@6B@ 6083efd4     irrXML:irrXML.obj
 0002:0000401c       ??_7?$CXMLReaderImpl@GVIXMLBase@io@irr@@@io@irr@@6B@ 6083f01c     irrXML:irrXML.obj
 0002:00004064       ??_7?$CXMLReaderImpl@KVIXMLBase@io@irr@@@io@irr@@6B@ 6083f064     irrXML:irrXML.obj
 0002:000040a8       __real@bff0000000000000    6083f0a8      CIL library: CIL module
 0002:000040b0       __real@4024000000000000    6083f0b0      CIL library: CIL module
 0002:000040b8       __real@00000000            6083f0b8      CIL library: CIL module
 0002:000040c0       __load_config_used         6083f0c0     MSVCRTD:loadcfg.obj
 0002:0000416c       ??_R4NMS_Mesh@@6B@         6083f16c     ColladaModel.obj
 0002:00004180       ??_R3NMS_Mesh@@8           6083f180     ColladaModel.obj
 0002:00004190       ??_R2NMS_Mesh@@8           6083f190     ColladaModel.obj
 0002:00004198       ??_R1A@?0A@EA@NMS_Mesh@@8  6083f198     ColladaModel.obj
 0002:000041b4       ??_R4ColladaModel@@6B@     6083f1b4     ColladaModel.obj
 0002:000041c8       ??_R3ColladaModel@@8       6083f1c8     ColladaModel.obj
 0002:000041d8       ??_R2ColladaModel@@8       6083f1d8     ColladaModel.obj
 0002:000041e4       ??_R1A@?0A@EA@ColladaModel@@8 6083f1e4     ColladaModel.obj
 0002:00004200       ??_R4length_error@std@@6B@ 6083f200     ColladaModel.obj
 0002:00004214       ??_R3length_error@std@@8   6083f214     ColladaModel.obj
 0002:00004224       ??_R2length_error@std@@8   6083f224     ColladaModel.obj
 0002:00004234       ??_R1A@?0A@EA@length_error@std@@8 6083f234     ColladaModel.obj
 0002:00004250       ??_R1A@?0A@EA@logic_error@std@@8 6083f250     ColladaModel.obj
 0002:0000426c       ??_R3logic_error@std@@8    6083f26c     ColladaModel.obj
 0002:0000427c       ??_R2logic_error@std@@8    6083f27c     ColladaModel.obj
 0002:00004288       ??_R1A@?0A@EA@exception@std@@8 6083f288     ColladaModel.obj
 0002:000042a4       ??_R3exception@std@@8      6083f2a4     ColladaModel.obj
 0002:000042b4       ??_R2exception@std@@8      6083f2b4     ColladaModel.obj
 0002:000042bc       ??_R4logic_error@std@@6B@  6083f2bc     ColladaModel.obj
 0002:000042d0       ??_R4bad_alloc@std@@6B@    6083f2d0     ColladaModel.obj
 0002:000042e4       ??_R3bad_alloc@std@@8      6083f2e4     ColladaModel.obj
 0002:000042f4       ??_R2bad_alloc@std@@8      6083f2f4     ColladaModel.obj
 0002:00004300       ??_R1A@?0A@EA@bad_alloc@std@@8 6083f300     ColladaModel.obj
 0002:0000431c       ??_R4MD2Model@@6B@         6083f31c     MD2Model.obj
 0002:00004330       ??_R3MD2Model@@8           6083f330     MD2Model.obj
 0002:00004340       ??_R2MD2Model@@8           6083f340     MD2Model.obj
 0002:0000434c       ??_R1A@?0A@EA@MD2Model@@8  6083f34c     MD2Model.obj
 0002:00004368       ??_R4NMS_3DObject@@6B@     6083f368     NMS_3DObject.obj
 0002:0000437c       ??_R3NMS_3DObject@@8       6083f37c     NMS_3DObject.obj
 0002:0000438c       ??_R2NMS_3DObject@@8       6083f38c     NMS_3DObject.obj
 0002:00004398       ??_R1A@?0A@EA@NMS_3DObject@@8 6083f398     NMS_3DObject.obj
 0002:000043b4       ??_R4SceneGraphVisitor@@6B@ 6083f3b4     NMS_Camera.obj
 0002:000043c8       ??_R3SceneGraphVisitor@@8  6083f3c8     NMS_Camera.obj
 0002:000043d8       ??_R2SceneGraphVisitor@@8  6083f3d8     NMS_Camera.obj
 0002:000043e0       ??_R1A@?0A@EA@SceneGraphVisitor@@8 6083f3e0     NMS_Camera.obj
 0002:000043fc       ??_R4EmptySceneVisitor@@6B@ 6083f3fc     NMS_Camera.obj
 0002:00004410       ??_R3EmptySceneVisitor@@8  6083f410     NMS_Camera.obj
 0002:00004420       ??_R2EmptySceneVisitor@@8  6083f420     NMS_Camera.obj
 0002:0000442c       ??_R1A@?0A@EA@EmptySceneVisitor@@8 6083f42c     NMS_Camera.obj
 0002:00004448       ??_R4SceneGraphNode@@6B@   6083f448     NMS_Camera.obj
 0002:0000445c       ??_R3SceneGraphNode@@8     6083f45c     NMS_Camera.obj
 0002:0000446c       ??_R2SceneGraphNode@@8     6083f46c     NMS_Camera.obj
 0002:00004474       ??_R1A@?0A@EA@SceneGraphNode@@8 6083f474     NMS_Camera.obj
 0002:00004490       ??_R4TransformationNode@@6B@ 6083f490     NMS_Camera.obj
 0002:000044a4       ??_R3TransformationNode@@8 6083f4a4     NMS_Camera.obj
 0002:000044b4       ??_R2TransformationNode@@8 6083f4b4     NMS_Camera.obj
 0002:000044c0       ??_R1A@?0A@EA@TransformationNode@@8 6083f4c0     NMS_Camera.obj
 0002:000044dc       ??_R4GeometryNode@@6B@     6083f4dc     NMS_Camera.obj
 0002:000044f0       ??_R3GeometryNode@@8       6083f4f0     NMS_Camera.obj
 0002:00004500       ??_R2GeometryNode@@8       6083f500     NMS_Camera.obj
 0002:00004510       ??_R1A@?0A@EA@GeometryNode@@8 6083f510     NMS_Camera.obj
 0002:0000452c       ??_R4CameraNode@@6B@       6083f52c     NMS_Camera.obj
 0002:00004540       ??_R3CameraNode@@8         6083f540     NMS_Camera.obj
 0002:00004550       ??_R2CameraNode@@8         6083f550     NMS_Camera.obj
 0002:00004560       ??_R1A@?0A@EA@CameraNode@@8 6083f560     NMS_Camera.obj
 0002:0000457c       ??_R4NMSCameraController@@6B@ 6083f57c     NMS_Camera.obj
 0002:00004590       ??_R3NMSCameraController@@8 6083f590     NMS_Camera.obj
 0002:000045a0       ??_R2NMSCameraController@@8 6083f5a0     NMS_Camera.obj
 0002:000045b4       ??_R1A@?0A@EA@NMSCameraController@@8 6083f5b4     NMS_Camera.obj
 0002:000045d0       ??_R4NMSCameraFPS@@6B@     6083f5d0     NMS_Camera.obj
 0002:000045e4       ??_R3NMSCameraFPS@@8       6083f5e4     NMS_Camera.obj
 0002:000045f4       ??_R2NMSCameraFPS@@8       6083f5f4     NMS_Camera.obj
 0002:0000460c       ??_R1A@?0A@EA@NMSCameraFPS@@8 6083f60c     NMS_Camera.obj
 0002:00004628       ??_R4Thread@@6B@           6083f628     NMS_Engine.obj
 0002:0000463c       ??_R3Thread@@8             6083f63c     NMS_Engine.obj
 0002:0000464c       ??_R2Thread@@8             6083f64c     NMS_Engine.obj
 0002:00004654       ??_R1A@?0A@EA@Thread@@8    6083f654     NMS_Engine.obj
 0002:00004670       ??_R4NMS_SceneRenderer@@6BSceneGraphVisitor@@@ 6083f670     NMS_Engine.obj
 0002:00004684       ??_R3NMS_SceneRenderer@@8  6083f684     NMS_Engine.obj
 0002:00004694       ??_R2NMS_SceneRenderer@@8  6083f694     NMS_Engine.obj
 0002:000046a4       ??_R1A@?0A@EA@NMS_SceneRenderer@@8 6083f6a4     NMS_Engine.obj
 0002:000046c0       ??_R13?0A@EA@Thread@@8     6083f6c0     NMS_Engine.obj
 0002:000046dc       ??_R4NMS_SceneRenderer@@6BThread@@@ 6083f6dc     NMS_Engine.obj
 0002:000046f0       ??_R4AmbientLight@@6B@     6083f6f0     NMS_Engine.obj
 0002:00004704       ??_R3AmbientLight@@8       6083f704     NMS_Engine.obj
 0002:00004714       ??_R2AmbientLight@@8       6083f714     NMS_Engine.obj
 0002:00004724       ??_R1A@?0A@EA@AmbientLight@@8 6083f724     NMS_Engine.obj
 0002:00004740       ??_R4LightSource@@6B@      6083f740     NMS_Engine.obj
 0002:00004754       ??_R3LightSource@@8        6083f754     NMS_Engine.obj
 0002:00004764       ??_R2LightSource@@8        6083f764     NMS_Engine.obj
 0002:00004774       ??_R1A@?0A@EA@LightSource@@8 6083f774     NMS_Engine.obj
 0002:00004790       ??_R4bad_function_call@boost@@6B@ 6083f790     NMS_Event.obj
 0002:000047a4       ??_R3bad_function_call@boost@@8 6083f7a4     NMS_Event.obj
 0002:000047b4       ??_R2bad_function_call@boost@@8 6083f7b4     NMS_Event.obj
 0002:000047c4       ??_R1A@?0A@EA@bad_function_call@boost@@8 6083f7c4     NMS_Event.obj
 0002:000047e0       ??_R1A@?0A@EA@runtime_error@std@@8 6083f7e0     NMS_Event.obj
 0002:000047fc       ??_R3runtime_error@std@@8  6083f7fc     NMS_Event.obj
 0002:0000480c       ??_R2runtime_error@std@@8  6083f80c     NMS_Event.obj
 0002:00004818       ??_R4runtime_error@std@@6B@ 6083f818     NMS_Event.obj
 0002:0000482c       ??_R4?$clone_impl@U?$error_info_injector@Vbad_function_call@boost@@@exception_detail@boost@@@exception_detail@boost@@6Bbad_function_call@2@@ 6083f82c     NMS_Event.obj
 0002:00004840       ??_R3?$clone_impl@U?$error_info_injector@Vbad_function_call@boost@@@exception_detail@boost@@@exception_detail@boost@@8 6083f840     NMS_Event.obj
 0002:00004850       ??_R2?$clone_impl@U?$error_info_injector@Vbad_function_call@boost@@@exception_detail@boost@@@exception_detail@boost@@8 6083f850     NMS_Event.obj
 0002:00004870       ??_R1A@?0A@EA@?$clone_impl@U?$error_info_injector@Vbad_function_call@boost@@@exception_detail@boost@@@exception_detail@boost@@8 6083f870     NMS_Event.obj
 0002:0000488c       ??_R1A@?0A@EA@?$error_info_injector@Vbad_function_call@boost@@@exception_detail@boost@@8 6083f88c     NMS_Event.obj
 0002:000048a8       ??_R3?$error_info_injector@Vbad_function_call@boost@@@exception_detail@boost@@8 6083f8a8     NMS_Event.obj
 0002:000048b8       ??_R2?$error_info_injector@Vbad_function_call@boost@@@exception_detail@boost@@8 6083f8b8     NMS_Event.obj
 0002:000048d0       ??_R1CM@?0A@EA@exception@boost@@8 6083f8d0     NMS_Event.obj
 0002:000048ec       ??_R3exception@boost@@8    6083f8ec     NMS_Event.obj
 0002:000048fc       ??_R2exception@boost@@8    6083f8fc     NMS_Event.obj
 0002:00004904       ??_R1A@?0A@EA@exception@boost@@8 6083f904     NMS_Event.obj
 0002:00004920       ??_R1EA@?0A@EA@clone_base@exception_detail@boost@@8 6083f920     NMS_Event.obj
 0002:0000493c       ??_R3clone_base@exception_detail@boost@@8 6083f93c     NMS_Event.obj
 0002:0000494c       ??_R2clone_base@exception_detail@boost@@8 6083f94c     NMS_Event.obj
 0002:00004954       ??_R1A@?0A@EA@clone_base@exception_detail@boost@@8 6083f954     NMS_Event.obj
 0002:00004970       ??_R4?$clone_impl@U?$error_info_injector@Vbad_function_call@boost@@@exception_detail@boost@@@exception_detail@boost@@6Bexception@2@@ 6083f970     NMS_Event.obj
 0002:00004984       ??_R4?$clone_impl@U?$error_info_injector@Vbad_function_call@boost@@@exception_detail@boost@@@exception_detail@boost@@6B@ 6083f984     NMS_Event.obj
 0002:00004998       ??_R4?$error_info_injector@Vbad_function_call@boost@@@exception_detail@boost@@6Bbad_function_call@2@@ 6083f998     NMS_Event.obj
 0002:000049ac       ??_R4?$error_info_injector@Vbad_function_call@boost@@@exception_detail@boost@@6Bexception@2@@ 6083f9ac     NMS_Event.obj
 0002:000049c0       ??_R4exception@boost@@6B@  6083f9c0     NMS_Event.obj
 0002:000049d4       ??_R4clone_base@exception_detail@boost@@6B@ 6083f9d4     NMS_Event.obj
 0002:000049e8       ??_R4type_info@@6B@        6083f9e8     MSVCRTD:ti_inst.obj
 0002:000049fc       ??_R3type_info@@8          6083f9fc     MSVCRTD:ti_inst.obj
 0002:00004a0c       ??_R2type_info@@8          6083fa0c     MSVCRTD:ti_inst.obj
 0002:00004a14       ??_R1A@?0A@EA@type_info@@8 6083fa14     MSVCRTD:ti_inst.obj
 0002:00004a30       ??_R4?$CXMLReaderImpl@KVIXMLBase@io@irr@@@io@irr@@6B@ 6083fa30     irrXML:irrXML.obj
 0002:00004a44       ??_R3?$CXMLReaderImpl@KVIXMLBase@io@irr@@@io@irr@@8 6083fa44     irrXML:irrXML.obj
 0002:00004a54       ??_R2?$CXMLReaderImpl@KVIXMLBase@io@irr@@@io@irr@@8 6083fa54     irrXML:irrXML.obj
 0002:00004a64       ??_R1A@?0A@EA@?$CXMLReaderImpl@KVIXMLBase@io@irr@@@io@irr@@8 6083fa64     irrXML:irrXML.obj
 0002:00004a80       ??_R4?$CXMLReaderImpl@GVIXMLBase@io@irr@@@io@irr@@6B@ 6083fa80     irrXML:irrXML.obj
 0002:00004a94       ??_R3?$CXMLReaderImpl@GVIXMLBase@io@irr@@@io@irr@@8 6083fa94     irrXML:irrXML.obj
 0002:00004aa4       ??_R2?$CXMLReaderImpl@GVIXMLBase@io@irr@@@io@irr@@8 6083faa4     irrXML:irrXML.obj
 0002:00004ab4       ??_R1A@?0A@EA@?$CXMLReaderImpl@GVIXMLBase@io@irr@@@io@irr@@8 6083fab4     irrXML:irrXML.obj
 0002:00004ad0       ??_R4?$CXMLReaderImpl@DVIXMLBase@io@irr@@@io@irr@@6B@ 6083fad0     irrXML:irrXML.obj
 0002:00004ae4       ??_R3?$CXMLReaderImpl@DVIXMLBase@io@irr@@@io@irr@@8 6083fae4     irrXML:irrXML.obj
 0002:00004af4       ??_R2?$CXMLReaderImpl@DVIXMLBase@io@irr@@@io@irr@@8 6083faf4     irrXML:irrXML.obj
 0002:00004b04       ??_R1A@?0A@EA@?$CXMLReaderImpl@DVIXMLBase@io@irr@@@io@irr@@8 6083fb04     irrXML:irrXML.obj
 0002:00004b20       ??_R4CFileReadCallBack@io@irr@@6B@ 6083fb20     irrXML:irrXML.obj
 0002:00004b34       ??_R3CFileReadCallBack@io@irr@@8 6083fb34     irrXML:irrXML.obj
 0002:00004b44       ??_R2CFileReadCallBack@io@irr@@8 6083fb44     irrXML:irrXML.obj
 0002:00004b50       ??_R1A@?0A@EA@CFileReadCallBack@io@irr@@8 6083fb50     irrXML:irrXML.obj
 0002:00004b6c       ??_R4?$IIrrXMLReader@KVIXMLBase@io@irr@@@io@irr@@6B@ 6083fb6c     irrXML:irrXML.obj
 0002:00004b80       ??_R3?$IIrrXMLReader@KVIXMLBase@io@irr@@@io@irr@@8 6083fb80     irrXML:irrXML.obj
 0002:00004b90       ??_R2?$IIrrXMLReader@KVIXMLBase@io@irr@@@io@irr@@8 6083fb90     irrXML:irrXML.obj
 0002:00004b9c       ??_R1A@?0A@EA@?$IIrrXMLReader@KVIXMLBase@io@irr@@@io@irr@@8 6083fb9c     irrXML:irrXML.obj
 0002:00004bb8       ??_R4?$IIrrXMLReader@GVIXMLBase@io@irr@@@io@irr@@6B@ 6083fbb8     irrXML:irrXML.obj
 0002:00004bcc       ??_R3?$IIrrXMLReader@GVIXMLBase@io@irr@@@io@irr@@8 6083fbcc     irrXML:irrXML.obj
 0002:00004bdc       ??_R2?$IIrrXMLReader@GVIXMLBase@io@irr@@@io@irr@@8 6083fbdc     irrXML:irrXML.obj
 0002:00004be8       ??_R1A@?0A@EA@?$IIrrXMLReader@GVIXMLBase@io@irr@@@io@irr@@8 6083fbe8     irrXML:irrXML.obj
 0002:00004c04       ??_R4?$IIrrXMLReader@DVIXMLBase@io@irr@@@io@irr@@6B@ 6083fc04     irrXML:irrXML.obj
 0002:00004c18       ??_R3?$IIrrXMLReader@DVIXMLBase@io@irr@@@io@irr@@8 6083fc18     irrXML:irrXML.obj
 0002:00004c28       ??_R2?$IIrrXMLReader@DVIXMLBase@io@irr@@@io@irr@@8 6083fc28     irrXML:irrXML.obj
 0002:00004c34       ??_R13?0A@EA@IXMLBase@io@irr@@8 6083fc34     irrXML:irrXML.obj
 0002:00004c50       ??_R3IXMLBase@io@irr@@8    6083fc50     irrXML:irrXML.obj
 0002:00004c60       ??_R2IXMLBase@io@irr@@8    6083fc60     irrXML:irrXML.obj
 0002:00004c68       ??_R1A@?0A@EA@IXMLBase@io@irr@@8 6083fc68     irrXML:irrXML.obj
 0002:00004c84       ??_R1A@?0A@EA@?$IIrrXMLReader@DVIXMLBase@io@irr@@@io@irr@@8 6083fc84     irrXML:irrXML.obj
 0002:00004ca0       ??_R4IFileReadCallBack@io@irr@@6B@ 6083fca0     irrXML:irrXML.obj
 0002:00004cb4       ??_R3IFileReadCallBack@io@irr@@8 6083fcb4     irrXML:irrXML.obj
 0002:00004cc4       ??_R2IFileReadCallBack@io@irr@@8 6083fcc4     irrXML:irrXML.obj
 0002:00004ccc       ??_R1A@?0A@EA@IFileReadCallBack@io@irr@@8 6083fccc     irrXML:irrXML.obj
 0002:00004cf0       ___safe_se_handler_table   6083fcf0     <linker-defined>
 0002:0000516c       ___rtc_iaa                 6084016c     MSVCRTD:_initsect_.obj
 0002:0000517c       ___rtc_izz                 6084017c     MSVCRTD:_initsect_.obj
 0002:00005180       ___rtc_taa                 60840180     MSVCRTD:_initsect_.obj
 0002:00005190       ___rtc_tzz                 60840190     MSVCRTD:_initsect_.obj
 0002:00005d9c       __TI3?AVlength_error@std@@ 60840d9c     ColladaModel.obj
 0002:00005dd8       __CTA3?AVlength_error@std@@ 60840dd8     ColladaModel.obj
 0002:00005de8       __CT??_R0?AVlength_error@std@@@8??0length_error@std@@QAE@ABV01@@Z44 60840de8     ColladaModel.obj
 0002:00005e04       __CT??_R0?AVlogic_error@std@@@8??0logic_error@std@@QAE@ABV01@@Z44 60840e04     ColladaModel.obj
 0002:00005e20       __CT??_R0?AVexception@std@@@8??0exception@std@@QAE@ABV01@@Z12 60840e20     ColladaModel.obj
 0002:000063fc       __TI2?AVbad_alloc@std@@    608413fc     ColladaModel.obj
 0002:0000640c       __CTA2?AVbad_alloc@std@@   6084140c     ColladaModel.obj
 0002:00006418       __CT??_R0?AVbad_alloc@std@@@8??0bad_alloc@std@@QAE@ABV01@@Z12 60841418     ColladaModel.obj
 0002:00007abc       __TI7?AV?$clone_impl@U?$error_info_injector@Vbad_function_call@boost@@@exception_detail@boost@@@exception_detail@boost@@ 60842abc     NMS_Event.obj
 0002:00007af8       __CTA7?AV?$clone_impl@U?$error_info_injector@Vbad_function_call@boost@@@exception_detail@boost@@@exception_detail@boost@@ 60842af8     NMS_Event.obj
 0002:00007b18       __CT??_R0?AV?$clone_impl@U?$error_info_injector@Vbad_function_call@boost@@@exception_detail@boost@@@exception_detail@boost@@@8??0?$clone_impl@U?$error_info_injector@Vbad_function_call@boost@@@exception_detail@boost@@@exception_detail@boost@@QAE@ABV012@@Z68 60842b18     NMS_Event.obj
 0002:00007b34       __CT??_R0?AU?$error_info_injector@Vbad_function_call@boost@@@exception_detail@boost@@@8??0?$error_info_injector@Vbad_function_call@boost@@@exception_detail@boost@@QAE@ABU012@@Z64 60842b34     NMS_Event.obj
 0002:00007b50       __CT??_R0?AVbad_function_call@boost@@@8??0bad_function_call@boost@@QAE@ABV01@@Z44 60842b50     NMS_Event.obj
 0002:00007b6c       __CT??_R0?AVruntime_error@std@@@8??0runtime_error@std@@QAE@ABV01@@Z44 60842b6c     NMS_Event.obj
 0002:00007b88       __CT??_R0?AVexception@boost@@@8??0exception@boost@@QAE@ABV01@@Z2044 60842b88     NMS_Event.obj
 0002:00007ba4       __CT??_R0?AVclone_base@exception_detail@boost@@@8??0clone_base@exception_detail@boost@@QAE@ABV012@@Z464 60842ba4     NMS_Event.obj
 0002:00007e08       __TI1H                     60842e08     NMS_LightSystem.obj
 0002:00007e44       __CTA1H                    60842e44     NMS_LightSystem.obj
 0002:00007e4c       __CT??_R0H@84              60842e4c     NMS_LightSystem.obj
 0002:000084a0       __TI2?AVruntime_error@std@@ 608434a0     NMS_Thread.obj
 0002:000084dc       __CTA2?AVruntime_error@std@@ 608434dc     NMS_Thread.obj
 0002:00009714       __IMPORT_DESCRIPTOR_SDL    60844714     sdl:SDL.dll
 0002:00009728       __IMPORT_DESCRIPTOR_OPENGL32 60844728     opengl32:OPENGL32.dll
 0002:0000973c       __IMPORT_DESCRIPTOR_GLU32  6084473c     glu32:GLU32.dll
 0002:00009750       __IMPORT_DESCRIPTOR_DevIL  60844750     Devil:DevIL.dll
 0002:00009764       __IMPORT_DESCRIPTOR_nms_utilities 60844764     nms_utilities:nms_utilities.dll
 0002:00009778       __IMPORT_DESCRIPTOR_nms_physics 60844778     nms_physics:nms_physics.dll
 0002:0000978c       __IMPORT_DESCRIPTOR_MSVCP90D 6084478c     msvcprtd:MSVCP90D.dll
 0002:000097a0       __IMPORT_DESCRIPTOR_MSVCR90D 608447a0     MSVCRTD:MSVCR90D.dll
 0002:000097b4       __IMPORT_DESCRIPTOR_KERNEL32 608447b4     kernel32:KERNEL32.dll
 0002:000097c8       __NULL_IMPORT_DESCRIPTOR   608447c8     sdl:SDL.dll
 0003:00000004       ??_R0?AVNMS_Mesh@@@8       6084a004     ColladaModel.obj
 0003:0000001c       ??_R0?AVColladaModel@@@8   6084a01c     ColladaModel.obj
 0003:00000038       ??_R0?AVlength_error@std@@@8 6084a038     ColladaModel.obj
 0003:00000058       ??_R0?AVlogic_error@std@@@8 6084a058     ColladaModel.obj
 0003:00000078       ??_R0?AVexception@std@@@8  6084a078     ColladaModel.obj
 0003:00000094       ??_R0?AVbad_alloc@std@@@8  6084a094     ColladaModel.obj
 0003:000000b8       ?animlist@MD2Model@@2PAUanim_t@@A 6084a0b8     MD2Model.obj
 0003:000001b8       ?anorms@MD2Model@@0PAY02MA 6084a1b8     MD2Model.obj
 0003:00000950       ??_R0?AVMD2Model@@@8       6084a950     MD2Model.obj
 0003:0000096c       ??_R0?AVNMS_3DObject@@@8   6084a96c     NMS_3DObject.obj
 0003:00000990       ??_R0?AVSceneGraphVisitor@@@8 6084a990     NMS_Camera.obj
 0003:000009b0       ??_R0?AVEmptySceneVisitor@@@8 6084a9b0     NMS_Camera.obj
 0003:000009d0       ??_R0?AVSceneGraphNode@@@8 6084a9d0     NMS_Camera.obj
 0003:000009f0       ??_R0?AVTransformationNode@@@8 6084a9f0     NMS_Camera.obj
 0003:00000a14       ??_R0?AVGeometryNode@@@8   6084aa14     NMS_Camera.obj
 0003:00000a30       ??_R0?AVCameraNode@@@8     6084aa30     NMS_Camera.obj
 0003:00000a4c       ??_R0?AVNMSCameraController@@@8 6084aa4c     NMS_Camera.obj
 0003:00000a70       ??_R0?AVNMSCameraFPS@@@8   6084aa70     NMS_Camera.obj
 0003:00000a90       ??_R0?AVThread@@@8         6084aa90     NMS_Engine.obj
 0003:00000aa8       ??_R0?AVNMS_SceneRenderer@@@8 6084aaa8     NMS_Engine.obj
 0003:00000ac8       ??_R0?AVAmbientLight@@@8   6084aac8     NMS_Engine.obj
 0003:00000ae4       ??_R0?AVLightSource@@@8    6084aae4     NMS_Engine.obj
 0003:00000b00       ?stored_vtable@?1???$assign_to@P6AXH@Z@?$function1@XH@boost@@AAEXP6AXH@Z@Z@4U?$basic_vtable1@XH@function@detail@2@A 6084ab00     NMS_Engine.obj
 0003:00000b08       ?stored_vtable@?1???$assign_to@P6AXW4SDLKey@@@Z@?$function1@XW4SDLKey@@@boost@@AAEXP6AXW4SDLKey@@@Z@Z@4U?$basic_vtable1@XW4SDLKey@@@function@detail@2@A 6084ab08     NMS_Engine.obj
 0003:00000b10       ?stored_vtable@?1???$assign_to@P6AXHH@Z@?$function2@XHH@boost@@AAEXP6AXHH@Z@Z@4U?$basic_vtable2@XHH@function@detail@2@A 6084ab10     NMS_Engine.obj
 0003:00000b18       ??_R0P6AXH@Z@8             6084ab18     NMS_Engine.obj
 0003:00000b2c       ??_R0P6AXW4SDLKey@@@Z@8    6084ab2c     NMS_Engine.obj
 0003:00000b48       ??_R0P6AXHH@Z@8            6084ab48     NMS_Engine.obj
 0003:00000b60       ??_R0?AVbad_function_call@boost@@@8 6084ab60     NMS_Event.obj
 0003:00000b88       ??_R0?AVruntime_error@std@@@8 6084ab88     NMS_Event.obj
 0003:00000ba8       ??_R0?AV?$clone_impl@U?$error_info_injector@Vbad_function_call@boost@@@exception_detail@boost@@@exception_detail@boost@@@8 6084aba8     NMS_Event.obj
 0003:00000c28       ??_R0?AU?$error_info_injector@Vbad_function_call@boost@@@exception_detail@boost@@@8 6084ac28     NMS_Event.obj
 0003:00000c80       ??_R0?AVexception@boost@@@8 6084ac80     NMS_Event.obj
 0003:00000ca0       ??_R0?AVclone_base@exception_detail@boost@@@8 6084aca0     NMS_Event.obj
 0003:00000cd4       ?stored_vtable@?1???$assign_to@V?$binder1st@V?$mem_fun1_t@XVNMS_Framework@@H@std@@@std@@@?$function1@XH@boost@@AAEXV?$binder1st@V?$mem_fun1_t@XVNMS_Framework@@H@std@@@std@@@Z@4U?$basic_vtable1@XH@function@detail@2@A 6084acd4     NMS_Framework.obj
 0003:00000ce0       ??_R0?AV?$binder1st@V?$mem_fun1_t@XVNMS_Framework@@H@std@@@std@@@8 6084ace0     NMS_Framework.obj
 0003:00000d2c       ??_R0H@8                   6084ad2c     NMS_LightSystem.obj
 0003:00000d4c       ?__LINE__Var@?1??start@Thread@@QAEXXZ@4JA 6084ad4c     NMS_Thread.obj
 0003:00000d60       ??_R0?AVtype_info@@@8      6084ad60     MSVCRTD:ti_inst.obj
 0003:00000d78       ___security_cookie         6084ad78     MSVCRTD:gs_cookie.obj
 0003:00000d7c       ___security_cookie_complement 6084ad7c     MSVCRTD:gs_cookie.obj
 0003:00000d80       ?_RTC_ErrorLevels@@3PAHA   6084ad80     MSVCRTD:_error_.obj
 0003:00000da4       ___native_dllmain_reason   6084ada4     MSVCRTD:natstart.obj
 0003:00000da8       ___native_vcclrit_reason   6084ada8     MSVCRTD:natstart.obj
 0003:00000dac       ??_R0?AV?$CXMLReaderImpl@KVIXMLBase@io@irr@@@io@irr@@@8 6084adac     irrXML:irrXML.obj
 0003:00000de8       ??_R0?AV?$CXMLReaderImpl@GVIXMLBase@io@irr@@@io@irr@@@8 6084ade8     irrXML:irrXML.obj
 0003:00000e24       ??_R0?AV?$CXMLReaderImpl@DVIXMLBase@io@irr@@@io@irr@@@8 6084ae24     irrXML:irrXML.obj
 0003:00000e60       ??_R0?AVCFileReadCallBack@io@irr@@@8 6084ae60     irrXML:irrXML.obj
 0003:00000e88       ??_R0?AV?$IIrrXMLReader@KVIXMLBase@io@irr@@@io@irr@@@8 6084ae88     irrXML:irrXML.obj
 0003:00000ec4       ??_R0?AV?$IIrrXMLReader@GVIXMLBase@io@irr@@@io@irr@@@8 6084aec4     irrXML:irrXML.obj
 0003:00000f00       ??_R0?AVIXMLBase@io@irr@@@8 6084af00     irrXML:irrXML.obj
 0003:00000f20       ??_R0?AV?$IIrrXMLReader@DVIXMLBase@io@irr@@@io@irr@@@8 6084af20     irrXML:irrXML.obj
 0003:00000f5c       ??_R0?AVIFileReadCallBack@io@irr@@@8 6084af5c     irrXML:irrXML.obj
 0003:00000f88       ?m_Singleton@NMS_AssetManager@@0PAV1@A 6084af88     NMS_AssetManager.obj
 0003:00000f90       ?engine@@3VNMS_Framework@@A 6084af90     NMS_Engine.obj
 0003:00001054       ?singleton@NMS_Event@@0PAV1@A 6084b054     NMS_Event.obj
 0003:00001058       ?sceneGraphGuard@@3PAUSDL_mutex@@A 6084b058     NMS_Mutex.obj
 0003:000010b8       ?m_Singleton@NMS_TextureManager@@0PAV1@A 6084b0b8     NMS_TextureManager.obj
 0003:000010c0       ?wsprintffp@@3P6AHPADPBDZZA 6084b0c0     MSVCRTD:_error_.obj
 0003:00001400       ?__type_info_root_node@@3U__type_info_node@@A 6084b400     MSVCRTD:tncleanup.obj
 0003:00001408       __adjust_fdiv              6084b408     <common>
 0003:0000140c       ___native_startup_state    6084b40c     <common>
 0003:00001410       ___native_startup_lock     6084b410     <common>
 0003:00001414       ___sse2_available          6084b414     <common>
 0003:00001418       ___dyn_tls_init_callback   6084b418     <common>
 0003:0000141c       ___onexitend               6084b41c     <common>
 0003:00001420       ___onexitbegin             6084b420     <common>

 entry point at        0001:000347d0

 Static symbols

 0001:fffff000       __unwindfunclet$??0?$list@TSDL_Event@@V?$allocator@TSDL_Event@@@std@@@std@@QAE@ABV01@@Z$2 60800000 f   NMS_Framework.obj
 0001:fffff000       __ehhandler$??$?4P6AXHH@Z@?$function2@XHH@boost@@QAEAAV01@P6AXHH@Z@Z 60800000 f   NMS_Event.obj
 0001:fffff000       __ehhandler$??$?4P6AXW4SDLKey@@@Z@?$function1@XW4SDLKey@@@boost@@QAEAAV01@P6AXW4SDLKey@@@Z@Z 60800000 f   NMS_Event.obj
 0001:fffff000       __ehhandler$??$?4P6AXH@Z@?$function1@XH@boost@@QAEAAV01@P6AXH@Z@Z 60800000 f   NMS_Event.obj
 0001:fffff000       __unwindfunclet$??$_Insert@V?$_Const_iterator@$00@?$list@TSDL_Event@@V?$allocator@TSDL_Event@@@std@@@std@@@?$list@TSDL_Event@@V?$allocator@TSDL_Event@@@std@@@std@@QAEXV?$_Const_iterator@$00@01@00Uforward_iterator_tag@1@@Z$2 60800000 f   NMS_SceneRenderer.obj
 0001:fffff000       __unwindfunclet$??1sentry@?$basic_ostream@DU?$char_traits@D@std@@@std@@QAE@XZ$0 60800000 f   nms_math:Vector.obj
 0001:fffff000       __unwindfunclet$??4?$list@TSDL_Event@@V?$allocator@TSDL_Event@@@std@@@std@@QAEAAV01@ABV01@@Z$0 60800000 f   NMS_Framework.obj
 0001:fffff000       __unwindfunclet$??0sentry@?$basic_ostream@DU?$char_traits@D@std@@@std@@QAE@AAV12@@Z$0 60800000 f   nms_math:Vector.obj
 0001:fffff000       __unwindfunclet$??$_Assign@V?$_Const_iterator@$00@?$list@TSDL_Event@@V?$allocator@TSDL_Event@@@std@@@std@@@?$list@TSDL_Event@@V?$allocator@TSDL_Event@@@std@@@std@@QAEXV?$_Const_iterator@$00@01@0Uinput_iterator_tag@1@@Z$0 60800000 f   NMS_SceneRenderer.obj
 0001:fffff000       __unwindfunclet$??0?$vector@PAVSceneGraphNode@@V?$allocator@PAVSceneGraphNode@@@std@@@std@@QAE@ABV01@@Z$2 60800000 f   NMS_SceneGraph.obj
 0001:fffff000       __unwindfunclet$??$?6U?$char_traits@D@std@@@std@@YAAAV?$basic_ostream@DU?$char_traits@D@std@@@0@AAV10@PBD@Z$2 60800000 f   nms_math:Vector.obj
 0001:fffff000       __ehhandler$??4?$function1@XH@boost@@QAEAAV01@ABV01@@Z 60800000 f   NMS_Framework.obj
 0001:fffff000       __ehhandler$??4?$function1@XW4SDLKey@@@boost@@QAEAAV01@ABV01@@Z 60800000 f   NMS_Framework.obj
 0001:fffff000       __unwindfunclet$??$?6U?$char_traits@D@std@@@std@@YAAAV?$basic_ostream@DU?$char_traits@D@std@@@0@AAV10@D@Z$2 60800000 f   nms_math:Point.obj
 0001:fffff000       __unwindfunclet$??$unchecked_uninitialized_copy@V?$_Vector_const_iterator@PAVSceneGraphNode@@V?$allocator@PAVSceneGraphNode@@@std@@@std@@PAPAVSceneGraphNode@@V?$allocator@PAVSceneGraphNode@@@2@@stdext@@YAPAPAVSceneGraphNode@@V?$_Vector_const_iterator@PAVSceneGraphNode@@V?$allocator@PAVSceneGraphNode@@@std@@@std@@0PAPAV1@AAV?$allocator@PAVSceneGraphNode@@@3@@Z$0 60800000 f   NMS_SceneRenderer.obj
 0001:fffff000       __unwindfunclet$??1sentry@?$basic_ostream@DU?$char_traits@D@std@@@std@@QAE@XZ$0 60800000 f   nms_math:Point.obj
 0001:fffff000       __unwindfunclet$??1TransformationNode@@QAE@XZ$0 60800000 f   NMS_Framework.obj
 0001:fffff000       __unwindfunclet$??0sentry@?$basic_ostream@DU?$char_traits@D@std@@@std@@QAE@AAV12@@Z$0 60800000 f   nms_math:Point.obj
 0001:fffff000       __ehhandler$??4?$function2@XHH@boost@@QAEAAV01@ABV01@@Z 60800000 f   NMS_Framework.obj
 0001:fffff000       __unwindfunclet$??$insert@V?$_Const_iterator@$00@?$list@TSDL_Event@@V?$allocator@TSDL_Event@@@std@@@std@@@?$list@TSDL_Event@@V?$allocator@TSDL_Event@@@std@@@std@@QAEXV?$_Const_iterator@$00@01@00@Z$0 60800000 f   NMS_Event.obj
 0001:fffff000       __unwindfunclet$??$?6U?$char_traits@D@std@@@std@@YAAAV?$basic_ostream@DU?$char_traits@D@std@@@0@AAV10@PBD@Z$2 60800000 f   nms_math:Point.obj
 0001:fffff000       __unwindfunclet$??$assign@V?$_Const_iterator@$00@?$list@TSDL_Event@@V?$allocator@TSDL_Event@@@std@@@std@@@?$list@TSDL_Event@@V?$allocator@TSDL_Event@@@std@@@std@@QAEXV?$_Const_iterator@$00@01@0@Z$0 60800000 f   NMS_SceneRenderer.obj
 0001:fffff000       __unwindfunclet$?_Insert@?$list@TSDL_Event@@V?$allocator@TSDL_Event@@@std@@@std@@QAEXV?$_Const_iterator@$00@12@ABTSDL_Event@@@Z$0 60800000 f   NMS_SceneRenderer.obj
 0001:fffff000       __unwindfunclet$??$?6U?$char_traits@D@std@@@std@@YAAAV?$basic_ostream@DU?$char_traits@D@std@@@0@AAV10@PBD@Z$2 60800000 f   nms_math:Matrix.obj
 0001:fffff000       __unwindfunclet$??$insert@V?$_Const_iterator@$00@?$list@TSDL_Event@@V?$allocator@TSDL_Event@@@std@@@std@@@?$list@TSDL_Event@@V?$allocator@TSDL_Event@@@std@@@std@@QAEXV?$_Const_iterator@$00@01@00@Z$0 60800000 f   NMS_SceneRenderer.obj
 0001:fffff000       __unwindfunclet$??1sentry@?$basic_ostream@DU?$char_traits@D@std@@@std@@QAE@XZ$0 60800000 f   nms_math:Matrix.obj
 0001:fffff000       __unwindfunclet$??0?$vector@PAVSceneGraphNode@@V?$allocator@PAVSceneGraphNode@@@std@@@std@@QAE@ABV01@@Z$2 60800000 f   NMS_Framework.obj
 0001:fffff000       __unwindfunclet$??0sentry@?$basic_ostream@DU?$char_traits@D@std@@@std@@QAE@AAV12@@Z$0 60800000 f   nms_math:Matrix.obj
 0001:fffff000       __unwindfunclet$??0NMS_Event@@QAE@ABV0@@Z$0 60800000 f   NMS_Framework.obj
 0001:fffff000       __unwindfunclet$??1?$vector@PAVSceneGraphNode@@V?$allocator@PAVSceneGraphNode@@@std@@@std@@QAE@XZ$0 60800000 f   NMS_Framework.obj
 0001:fffff000       __unwindfunclet$??$?6U?$char_traits@D@std@@@std@@YAAAV?$basic_ostream@DU?$char_traits@D@std@@@0@AAV10@D@Z$2 60800000 f   nms_math:Matrix.obj
 0001:fffff000       __unwindfunclet$??$assign@V?$_Const_iterator@$00@?$list@TSDL_Event@@V?$allocator@TSDL_Event@@@std@@@std@@@?$list@TSDL_Event@@V?$allocator@TSDL_Event@@@std@@@std@@QAEXV?$_Const_iterator@$00@01@0@Z$0 60800000 f   NMS_Event.obj
 0001:fffff000       __unwindfunclet$??E?$_Const_iterator@$00@?$list@TSDL_Event@@V?$allocator@TSDL_Event@@@std@@@std@@QAE?AV012@H@Z$0 60800000 f   NMS_Event.obj
 0001:fffff000       __unwindfunclet$??$_Ucopy@V?$_Vector_const_iterator@PAVSceneGraphNode@@V?$allocator@PAVSceneGraphNode@@@std@@@std@@@?$vector@PAVSceneGraphNode@@V?$allocator@PAVSceneGraphNode@@@std@@@std@@IAEPAPAVSceneGraphNode@@V?$_Vector_const_iterator@PAVSceneGraphNode@@V?$allocator@PAVSceneGraphNode@@@std@@@1@0PAPAV2@@Z$0 60800000 f   NMS_SceneRenderer.obj
 0001:fffff000       __unwindfunclet$??1_Iterator_base@std@@QAE@XZ$0 60800000 f   NMS_SceneGraph.obj
 0001:fffff000       __unwindfunclet$??0?$_Const_iterator@$00@?$list@TSDL_Event@@V?$allocator@TSDL_Event@@@std@@@std@@QAE@PAU_Node@?$_List_nod@TSDL_Event@@V?$allocator@TSDL_Event@@@std@@@2@PBV12@@Z$0 60800000 f   NMS_Event.obj
 0001:fffff000       __ehhandler$??$?4P6AXHH@Z@?$function2@XHH@boost@@QAEAAV01@P6AXHH@Z@Z 60800000 f   NMS_SceneRenderer.obj
 0001:fffff000       __unwindfunclet$??0logic_error@std@@QAE@ABV01@@Z$0 60800000 f   NMS_Event.obj
 0001:fffff000       __unwindfunclet$??0logic_error@std@@QAE@ABV?$basic_string@DU?$char_traits@D@std@@V?$allocator@D@2@@1@@Z$0 60800000 f   NMS_Event.obj
 0001:fffff000       __unwindfunclet$??$_Uninit_copy@V?$_Vector_const_iterator@PAVSceneGraphNode@@V?$allocator@PAVSceneGraphNode@@@std@@@std@@PAPAVSceneGraphNode@@V?$allocator@PAVSceneGraphNode@@@2@@std@@YAPAPAVSceneGraphNode@@V?$_Vector_const_iterator@PAVSceneGraphNode@@V?$allocator@PAVSceneGraphNode@@@std@@@0@0PAPAV1@AAV?$allocator@PAVSceneGraphNode@@@0@U_Scalar_ptr_iterator_tag@0@U_Range_checked_iterator_tag@0@@Z$0 60800000 f   NMS_SceneGraph.obj
 0001:fffff000       __unwindfunclet$?_Incsize@?$list@TSDL_Event@@V?$allocator@TSDL_Event@@@std@@@std@@IAEXI@Z$0 60800000 f   NMS_Event.obj
 0001:fffff000       __ehhandler$?_Buynode@?$list@TSDL_Event@@V?$allocator@TSDL_Event@@@std@@@std@@IAEPAU_Node@?$_List_nod@TSDL_Event@@V?$allocator@TSDL_Event@@@std@@@2@PAU342@0ABTSDL_Event@@@Z 60800000 f   NMS_Event.obj
 0001:fffff000       __unwindfunclet$?_Make_iter@?$list@TSDL_Event@@V?$allocator@TSDL_Event@@@std@@@std@@QBE?AV?$_Iterator@$00@12@V?$_Const_iterator@$00@12@@Z$0 60800000 f   NMS_Event.obj
 0001:fffff000       __ehhandler$??$?4P6AXW4SDLKey@@@Z@?$function1@XW4SDLKey@@@boost@@QAEAAV01@P6AXW4SDLKey@@@Z@Z 60800000 f   NMS_SceneRenderer.obj
 0001:fffff000       __ehhandler$?_Buynode@?$list@TSDL_Event@@V?$allocator@TSDL_Event@@@std@@@std@@IAEPAU_Node@?$_List_nod@TSDL_Event@@V?$allocator@TSDL_Event@@@std@@@2@XZ 60800000 f   NMS_Event.obj
 0001:fffff000       __unwindfunclet$?erase@?$list@TSDL_Event@@V?$allocator@TSDL_Event@@@std@@@std@@QAE?AV?$_Iterator@$00@12@V?$_Const_iterator@$00@12@@Z$0 60800000 f   NMS_Event.obj
 0001:fffff000       __unwindfunclet$??4_Iterator_base@std@@QAEAAV01@ABV01@@Z$0 60800000 f   NMS_Framework.obj
 0001:fffff000       __ehhandler$??$?4P6AXH@Z@?$function1@XH@boost@@QAEAAV01@P6AXH@Z@Z 60800000 f   NMS_SceneRenderer.obj
 0001:fffff000       __unwindfunclet$??0const_iterator@?$_Tree@V?$_Tmap_traits@PADUtextStruct@@U?$less@PAD@std@@V?$allocator@U?$pair@QADUtextStruct@@@std@@@3@$0A@@std@@@std@@QAE@PAU_Node@?$_Tree_nod@V?$_Tmap_traits@PADUtextStruct@@U?$less@PAD@std@@V?$allocator@U?$pair@QADUtextStruct@@@std@@@3@$0A@@std@@@2@PBV12@@Z$0 60800000 f   NMS_SceneRenderer.obj
 0001:fffff000       __unwindfunclet$?_Insert@?$list@TSDL_Event@@V?$allocator@TSDL_Event@@@std@@@std@@QAEXV?$_Const_iterator@$00@12@ABTSDL_Event@@@Z$0 60800000 f   NMS_Event.obj
 0001:fffff000       __unwindfunclet$?subString@?$string@D@core@irr@@QAE?AV123@HH@Z$0 60800000 f   ColladaModel.obj
 0001:fffff000       __unwindfunclet$??1?$vector@PAVSceneGraphNode@@V?$allocator@PAVSceneGraphNode@@@std@@@std@@QAE@XZ$0 60800000 f   NMS_SceneGraph.obj
 0001:fffff000       __unwindfunclet$?_Adopt@_Iterator_base@std@@QAEXPBV_Container_base_secure@2@@Z$0 60800000 f   NMS_Event.obj
 0001:fffff000       __unwindfunclet$??$_Debug_range@V?$_Vector_const_iterator@PAVSceneGraphNode@@V?$allocator@PAVSceneGraphNode@@@std@@@std@@@std@@YAXV?$_Vector_const_iterator@PAVSceneGraphNode@@V?$allocator@PAVSceneGraphNode@@@std@@@0@0PB_WI@Z$0 60800000 f   NMS_SceneGraph.obj
 0001:fffff000       __unwindfunclet$??4_Iterator_base@std@@QAEAAV01@ABV01@@Z$0 60800000 f   NMS_Event.obj
 0001:fffff000       __unwindfunclet$??$unchecked_uninitialized_copy@V?$_Vector_const_iterator@PAVSceneGraphNode@@V?$allocator@PAVSceneGraphNode@@@std@@@std@@PAPAVSceneGraphNode@@V?$allocator@PAVSceneGraphNode@@@2@@stdext@@YAPAPAVSceneGraphNode@@V?$_Vector_const_iterator@PAVSceneGraphNode@@V?$allocator@PAVSceneGraphNode@@@std@@@std@@0PAPAV1@AAV?$allocator@PAVSceneGraphNode@@@3@@Z$0 60800000 f   NMS_SceneGraph.obj
 0001:fffff000       __unwindfunclet$?_Adopt@_Iterator_base@std@@QAEXPBV_Container_base_secure@2@@Z$0 60800000 f   NMS_Framework.obj
 0001:fffff000       __unwindfunclet$??0const_iterator@?$_Tree@V?$_Tmap_traits@PADUtextStruct@@U?$less@PAD@std@@V?$allocator@U?$pair@QADUtextStruct@@@std@@@3@$0A@@std@@@std@@QAE@PAU_Node@?$_Tree_nod@V?$_Tmap_traits@PADUtextStruct@@U?$less@PAD@std@@V?$allocator@U?$pair@QADUtextStruct@@@std@@@3@$0A@@std@@@2@PBV12@@Z$0 60800000 f   MD2Model.obj
 0001:fffff000       __unwindfunclet$?_Make_iter@?$vector@PAVSceneGraphNode@@V?$allocator@PAVSceneGraphNode@@@std@@@std@@QBE?AV?$_Vector_iterator@PAVSceneGraphNode@@V?$allocator@PAVSceneGraphNode@@@std@@@2@V?$_Vector_const_iterator@PAVSceneGraphNode@@V?$allocator@PAVSceneGraphNode@@@std@@@2@@Z$0 60800000 f   NMS_SceneRenderer.obj
 0001:fffff000       __unwindfunclet$??1_Iterator_base@std@@QAE@XZ$0 60800000 f   NMS_Event.obj
 0001:fffff000       __unwindfunclet$?_Buynode@?$_Tree@V?$_Tmap_traits@PADUtextStruct@@U?$less@PAD@std@@V?$allocator@U?$pair@QADUtextStruct@@@std@@@3@$0A@@std@@@std@@IAEPAU_Node@?$_Tree_nod@V?$_Tmap_traits@PADUtextStruct@@U?$less@PAD@std@@V?$allocator@U?$pair@QADUtextStruct@@@std@@@3@$0A@@std@@@2@PAU342@00ABU?$pair@QADUtextStruct@@@2@D@Z$2 60800000 f   MD2Model.obj
 0001:fffff000       __ehhandler$??4?$function2@XHH@boost@@QAEAAV01@ABV01@@Z 60800000 f   NMS_Event.obj
 0001:fffff000       __unwindfunclet$??Econst_iterator@?$_Tree@V?$_Tmap_traits@PADUtextStruct@@U?$less@PAD@std@@V?$allocator@U?$pair@QADUtextStruct@@@std@@@3@$0A@@std@@@std@@QAE?AV012@H@Z$0 60800000 f   MD2Model.obj
 0001:fffff000       __unwindfunclet$?erase@?$_Tree@V?$_Tmap_traits@PADUtextStruct@@U?$less@PAD@std@@V?$allocator@U?$pair@QADUtextStruct@@@std@@@3@$0A@@std@@@std@@QAE?AViterator@12@Vconst_iterator@12@0@Z$0 60800000 f   NMS_SceneGraph.obj
 0001:fffff000       __ehhandler$?_Buynode@?$_Tree@V?$_Tmap_traits@PADUtextStruct@@U?$less@PAD@std@@V?$allocator@U?$pair@QADUtextStruct@@@std@@@3@$0A@@std@@@std@@IAEPAU_Node@?$_Tree_nod@V?$_Tmap_traits@PADUtextStruct@@U?$less@PAD@std@@V?$allocator@U?$pair@QADUtextStruct@@@std@@@3@$0A@@std@@@2@XZ 60800000 f   MD2Model.obj
 0001:fffff000       __ehhandler$??4?$function1@XW4SDLKey@@@boost@@QAEAAV01@ABV01@@Z 60800000 f   NMS_Event.obj
 0001:fffff000       __ehhandler$?_Copy@?$_Tree@V?$_Tmap_traits@PADUtextStruct@@U?$less@PAD@std@@V?$allocator@U?$pair@QADUtextStruct@@@std@@@3@$0A@@std@@@std@@IAEPAU_Node@?$_Tree_nod@V?$_Tmap_traits@PADUtextStruct@@U?$less@PAD@std@@V?$allocator@U?$pair@QADUtextStruct@@@std@@@3@$0A@@std@@@2@PAU342@0@Z 60800000 f   MD2Model.obj
 0001:fffff000       __ehhandler$??4?$function1@XH@boost@@QAEAAV01@ABV01@@Z 60800000 f   NMS_Event.obj
 0001:fffff000       __unwindfunclet$??0TransformationNode@@QAE@ABV0@@Z$0 60800000 f   NMS_Framework.obj
 0001:fffff000       __unwindfunclet$?erase@?$_Tree@V?$_Tmap_traits@PADUtextStruct@@U?$less@PAD@std@@V?$allocator@U?$pair@QADUtextStruct@@@std@@@3@$0A@@std@@@std@@QAE?AViterator@12@Vconst_iterator@12@@Z$0 60800000 f   MD2Model.obj
 0001:fffff000       __unwindfunclet$?_Buynode@?$_Tree@V?$_Tmap_traits@PADUtextStruct@@U?$less@PAD@std@@V?$allocator@U?$pair@QADUtextStruct@@@std@@@3@$0A@@std@@@std@@IAEPAU_Node@?$_Tree_nod@V?$_Tmap_traits@PADUtextStruct@@U?$less@PAD@std@@V?$allocator@U?$pair@QADUtextStruct@@@std@@@3@$0A@@std@@@2@PAU342@00ABU?$pair@QADUtextStruct@@@2@D@Z$2 60800000 f   NMS_SceneRenderer.obj
 0001:fffff000       __unwindfunclet$??0?$_Const_iterator@$00@?$list@TSDL_Event@@V?$allocator@TSDL_Event@@@std@@@std@@QAE@PAU_Node@?$_List_nod@TSDL_Event@@V?$allocator@TSDL_Event@@@std@@@2@PBV12@@Z$0 60800000 f   NMS_SceneRenderer.obj
 0001:fffff000       __unwindfunclet$?_Make_iter@?$_Tree@V?$_Tmap_traits@PADUtextStruct@@U?$less@PAD@std@@V?$allocator@U?$pair@QADUtextStruct@@@std@@@3@$0A@@std@@@std@@QBE?AViterator@12@Vconst_iterator@12@@Z$0 60800000 f   MD2Model.obj
 0001:fffff000       __unwindfunclet$??0?$_Vector_const_iterator@PAVSceneGraphNode@@V?$allocator@PAVSceneGraphNode@@@std@@@std@@QAE@PAPAVSceneGraphNode@@PBV_Container_base_secure@1@@Z$0 60800000 f   NMS_SceneRenderer.obj
 0001:fffff000       __unwindfunclet$??1_Iterator_base@std@@QAE@XZ$0 60800000 f   NMS_Framework.obj
 0001:fffff000       __unwindfunclet$??$_Insert@V?$_Const_iterator@$00@?$list@TSDL_Event@@V?$allocator@TSDL_Event@@@std@@@std@@@?$list@TSDL_Event@@V?$allocator@TSDL_Event@@@std@@@std@@QAEXV?$_Const_iterator@$00@01@00Uforward_iterator_tag@1@@Z$2 60800000 f   NMS_Event.obj
 0001:fffff000       __unwindfunclet$?_Tidy@?$_Tree@V?$_Tmap_traits@PADUtextStruct@@U?$less@PAD@std@@V?$allocator@U?$pair@QADUtextStruct@@@std@@@3@$0A@@std@@@std@@IAEXXZ$0 60800000 f   MD2Model.obj
 0001:fffff000       __unwindfunclet$??4?$_Tree@V?$_Tmap_traits@PADUtextStruct@@U?$less@PAD@std@@V?$allocator@U?$pair@QADUtextStruct@@@std@@@3@$0A@@std@@@std@@QAEAAV01@ABV01@@Z$0 60800000 f   NMS_SceneGraph.obj
 0001:fffff000       __unwindfunclet$??Econst_iterator@?$_Tree@V?$_Tmap_traits@PADUtextStruct@@U?$less@PAD@std@@V?$allocator@U?$pair@QADUtextStruct@@@std@@@3@$0A@@std@@@std@@QAE?AV012@H@Z$0 60800000 f   NMS_SceneRenderer.obj
 0001:fffff000       __unwindfunclet$??4?$list@TSDL_Event@@V?$allocator@TSDL_Event@@@std@@@std@@QAEAAV01@ABV01@@Z$0 60800000 f   NMS_Event.obj
 0001:fffff000       __unwindfunclet$?erase@?$_Tree@V?$_Tmap_traits@PADUtextStruct@@U?$less@PAD@std@@V?$allocator@U?$pair@QADUtextStruct@@@std@@@3@$0A@@std@@@std@@QAE?AViterator@12@Vconst_iterator@12@0@Z$0 60800000 f   MD2Model.obj
 0001:fffff000       __unwindfunclet$??0logic_error@std@@QAE@ABV01@@Z$0 60800000 f   NMS_SceneRenderer.obj
 0001:fffff000       __unwindfunclet$?erase@?$list@TSDL_Event@@V?$allocator@TSDL_Event@@@std@@@std@@QAE?AV?$_Iterator@$00@12@V?$_Const_iterator@$00@12@@Z$0 60800000 f   NMS_SceneRenderer.obj
 0001:fffff000       __unwindfunclet$??0logic_error@std@@QAE@ABV?$basic_string@DU?$char_traits@D@std@@V?$allocator@D@2@@1@@Z$0 60800000 f   NMS_SceneRenderer.obj
 0001:fffff000       __unwindfunclet$??1?$list@TSDL_Event@@V?$allocator@TSDL_Event@@@std@@@std@@QAE@XZ$0 60800000 f   NMS_Event.obj
 0001:fffff000       __unwindfunclet$?_Tidy@?$_Tree@V?$_Tmap_traits@PADUtextStruct@@U?$less@PAD@std@@V?$allocator@U?$pair@QADUtextStruct@@@std@@@3@$0A@@std@@@std@@IAEXXZ$0 60800000 f   NMS_SceneGraph.obj
 0001:fffff000       __unwindfunclet$??1_Iterator_base@std@@QAE@XZ$0 60800000 f   MD2Model.obj
 0001:fffff000       __unwindfunclet$??$_Ucopy@V?$_Vector_const_iterator@PAVSceneGraphNode@@V?$allocator@PAVSceneGraphNode@@@std@@@std@@@?$vector@PAVSceneGraphNode@@V?$allocator@PAVSceneGraphNode@@@std@@@std@@IAEPAPAVSceneGraphNode@@V?$_Vector_const_iterator@PAVSceneGraphNode@@V?$allocator@PAVSceneGraphNode@@@std@@@1@0PAPAV2@@Z$0 60800000 f   NMS_SceneGraph.obj
 0001:fffff000       __unwindfunclet$?_Adopt@_Iterator_base@std@@QAEXPBV_Container_base_secure@2@@Z$0 60800000 f   MD2Model.obj
 0001:fffff000       __unwindfunclet$?_Xlen@?$vector@PAVSceneGraphNode@@V?$allocator@PAVSceneGraphNode@@@std@@@std@@KAXXZ$0 60800000 f   NMS_SceneRenderer.obj
 0001:fffff000       __unwindfunclet$??4_Iterator_base@std@@QAEAAV01@ABV01@@Z$0 60800000 f   MD2Model.obj
 0001:fffff000       __unwindfunclet$??0?$list@TSDL_Event@@V?$allocator@TSDL_Event@@@std@@@std@@QAE@ABV01@@Z$2 60800000 f   NMS_Event.obj
 0001:fffff000       __unwindfunclet$??4?$_Tree@V?$_Tmap_traits@PADUtextStruct@@U?$less@PAD@std@@V?$allocator@U?$pair@QADUtextStruct@@@std@@@3@$0A@@std@@@std@@QAEAAV01@ABV01@@Z$0 60800000 f   MD2Model.obj
 0001:fffff000       __unwindfunclet$??1NMS_Event@@QAE@XZ$0 60800000 f   NMS_Framework.obj
 0001:fffff000       __unwindfunclet$?erase@?$vector@PAVSceneGraphNode@@V?$allocator@PAVSceneGraphNode@@@std@@@std@@QAE?AV?$_Vector_iterator@PAVSceneGraphNode@@V?$allocator@PAVSceneGraphNode@@@std@@@2@V?$_Vector_const_iterator@PAVSceneGraphNode@@V?$allocator@PAVSceneGraphNode@@@std@@@2@0@Z$0 60800000 f   NMS_SceneRenderer.obj
 0001:fffff000       __unwindfunclet$??4?$_Tree@V?$_Tmap_traits@PADUtextStruct@@U?$less@PAD@std@@V?$allocator@U?$pair@QADUtextStruct@@@std@@@3@$0A@@std@@@std@@QAEAAV01@ABV01@@Z$0 60800000 f   NMS_Framework.obj
 0001:fffff000       __unwindfunclet$??0?$_Tree@V?$_Tmap_traits@PADUtextStruct@@U?$less@PAD@std@@V?$allocator@U?$pair@QADUtextStruct@@@std@@@3@$0A@@std@@@std@@QAE@ABV01@@Z$2 60800000 f   NMS_SceneGraph.obj
 0001:fffff000       __unwindfunclet$??0?$_Tree@V?$_Tmap_traits@PADUtextStruct@@U?$less@PAD@std@@V?$allocator@U?$pair@QADUtextStruct@@@std@@@3@$0A@@std@@@std@@QAE@ABV01@@Z$2 60800000 f   MD2Model.obj
 0001:fffff000       __unwindfunclet$??0NMSCameraController@@QAE@XZ$0 60800000 f   NMS_Framework.obj
 0001:fffff000       __ehhandler$?_Buynode@?$_Tree@V?$_Tmap_traits@PADUtextStruct@@U?$less@PAD@std@@V?$allocator@U?$pair@QADUtextStruct@@@std@@@3@$0A@@std@@@std@@IAEPAU_Node@?$_Tree_nod@V?$_Tmap_traits@PADUtextStruct@@U?$less@PAD@std@@V?$allocator@U?$pair@QADUtextStruct@@@std@@@3@$0A@@std@@@2@XZ 60800000 f   NMS_SceneRenderer.obj
 0001:fffff000       __unwindfunclet$?erase@?$_Tree@V?$_Tmap_traits@PADUtextStruct@@U?$less@PAD@std@@V?$allocator@U?$pair@QADUtextStruct@@@std@@@3@$0A@@std@@@std@@QAE?AViterator@12@Vconst_iterator@12@0@Z$0 60800000 f   NMS_Framework.obj
 0001:fffff000       __unwindfunclet$??0const_iterator@?$_Tree@V?$_Tmap_traits@PADUtextStruct@@U?$less@PAD@std@@V?$allocator@U?$pair@QADUtextStruct@@@std@@@3@$0A@@std@@@std@@QAE@PAU_Node@?$_Tree_nod@V?$_Tmap_traits@PADUtextStruct@@U?$less@PAD@std@@V?$allocator@U?$pair@QADUtextStruct@@@std@@@3@$0A@@std@@@2@PBV12@@Z$0 60800000 f   NMS_AssetManager.obj
 0001:fffff000       __ehhandler$?_Copy@?$_Tree@V?$_Tmap_traits@PADUtextStruct@@U?$less@PAD@std@@V?$allocator@U?$pair@QADUtextStruct@@@std@@@3@$0A@@std@@@std@@IAEPAU_Node@?$_Tree_nod@V?$_Tmap_traits@PADUtextStruct@@U?$less@PAD@std@@V?$allocator@U?$pair@QADUtextStruct@@@std@@@3@$0A@@std@@@2@PAU342@0@Z 60800000 f   NMS_SceneRenderer.obj
 0001:fffff000       __unwindfunclet$??$_Assign@V?$_Const_iterator@$00@?$list@TSDL_Event@@V?$allocator@TSDL_Event@@@std@@@std@@@?$list@TSDL_Event@@V?$allocator@TSDL_Event@@@std@@@std@@QAEXV?$_Const_iterator@$00@01@0Uinput_iterator_tag@1@@Z$0 60800000 f   NMS_Event.obj
 0001:fffff000       __unwindfunclet$?_Buynode@?$_Tree@V?$_Tmap_traits@PADUtextStruct@@U?$less@PAD@std@@V?$allocator@U?$pair@QADUtextStruct@@@std@@@3@$0A@@std@@@std@@IAEPAU_Node@?$_Tree_nod@V?$_Tmap_traits@PADUtextStruct@@U?$less@PAD@std@@V?$allocator@U?$pair@QADUtextStruct@@@std@@@3@$0A@@std@@@2@PAU342@00ABU?$pair@QADUtextStruct@@@2@D@Z$2 60800000 f   NMS_AssetManager.obj
 0001:fffff000       __unwindfunclet$?_Make_iter@?$list@TSDL_Event@@V?$allocator@TSDL_Event@@@std@@@std@@QBE?AV?$_Iterator@$00@12@V?$_Const_iterator@$00@12@@Z$0 60800000 f   NMS_SceneRenderer.obj
 0001:fffff000       __unwindfunclet$??Econst_iterator@?$_Tree@V?$_Tmap_traits@PADUtextStruct@@U?$less@PAD@std@@V?$allocator@U?$pair@QADUtextStruct@@@std@@@3@$0A@@std@@@std@@QAE?AV012@H@Z$0 60800000 f   NMS_AssetManager.obj
 0001:fffff000       __unwindfunclet$?_Tidy@?$_Tree@V?$_Tmap_traits@PADUtextStruct@@U?$less@PAD@std@@V?$allocator@U?$pair@QADUtextStruct@@@std@@@3@$0A@@std@@@std@@IAEXXZ$0 60800000 f   NMS_Framework.obj
 0001:fffff000       __ehhandler$?_Buynode@?$_Tree@V?$_Tmap_traits@PADUtextStruct@@U?$less@PAD@std@@V?$allocator@U?$pair@QADUtextStruct@@@std@@@3@$0A@@std@@@std@@IAEPAU_Node@?$_Tree_nod@V?$_Tmap_traits@PADUtextStruct@@U?$less@PAD@std@@V?$allocator@U?$pair@QADUtextStruct@@@std@@@3@$0A@@std@@@2@XZ 60800000 f   NMS_AssetManager.obj
 0001:fffff000       __unwindfunclet$?erase@?$_Tree@V?$_Tmap_traits@PADUtextStruct@@U?$less@PAD@std@@V?$allocator@U?$pair@QADUtextStruct@@@std@@@3@$0A@@std@@@std@@QAE?AViterator@12@Vconst_iterator@12@@Z$0 60800000 f   NMS_SceneRenderer.obj
 0001:fffff000       __ehhandler$?_Copy@?$_Tree@V?$_Tmap_traits@PADUtextStruct@@U?$less@PAD@std@@V?$allocator@U?$pair@QADUtextStruct@@@std@@@3@$0A@@std@@@std@@IAEPAU_Node@?$_Tree_nod@V?$_Tmap_traits@PADUtextStruct@@U?$less@PAD@std@@V?$allocator@U?$pair@QADUtextStruct@@@std@@@3@$0A@@std@@@2@PAU342@0@Z 60800000 f   NMS_AssetManager.obj
 0001:fffff000       __unwindfunclet$??$_Debug_range@V?$_Const_iterator@$00@?$list@TSDL_Event@@V?$allocator@TSDL_Event@@@std@@@std@@@std@@YAXV?$_Const_iterator@$00@?$list@TSDL_Event@@V?$allocator@TSDL_Event@@@std@@@0@0PB_WI@Z$0 60800000 f   NMS_Event.obj
 0001:fffff000       __unwindfunclet$??0NMS_Event@@QAE@ABV0@@Z$0 60800000 f   NMS_Event.obj
 0001:fffff000       __unwindfunclet$?erase@?$_Tree@V?$_Tmap_traits@PADUtextStruct@@U?$less@PAD@std@@V?$allocator@U?$pair@QADUtextStruct@@@std@@@3@$0A@@std@@@std@@QAE?AViterator@12@Vconst_iterator@12@@Z$0 60800000 f   NMS_AssetManager.obj
 0001:fffff000       __ehhandler$?_Buynode@?$list@TSDL_Event@@V?$allocator@TSDL_Event@@@std@@@std@@IAEPAU_Node@?$_List_nod@TSDL_Event@@V?$allocator@TSDL_Event@@@std@@@2@XZ 60800000 f   NMS_Framework.obj
 0001:fffff000       __unwindfunclet$?_Make_iter@?$_Tree@V?$_Tmap_traits@PADUtextStruct@@U?$less@PAD@std@@V?$allocator@U?$pair@QADUtextStruct@@@std@@@3@$0A@@std@@@std@@QBE?AViterator@12@Vconst_iterator@12@@Z$0 60800000 f   NMS_SceneRenderer.obj
 0001:fffff000       __unwindfunclet$?_Make_iter@?$_Tree@V?$_Tmap_traits@PADUtextStruct@@U?$less@PAD@std@@V?$allocator@U?$pair@QADUtextStruct@@@std@@@3@$0A@@std@@@std@@QBE?AViterator@12@Vconst_iterator@12@@Z$0 60800000 f   NMS_AssetManager.obj
 0001:fffff000       __unwindfunclet$?_Adopt@_Iterator_base@std@@QAEXPBV_Container_base_secure@2@@Z$0 60800000 f   NMS_Engine.obj
 0001:fffff000       __unwindfunclet$??0const_iterator@?$_Tree@V?$_Tmap_traits@PADUtextStruct@@U?$less@PAD@std@@V?$allocator@U?$pair@QADUtextStruct@@@std@@@3@$0A@@std@@@std@@QAE@PAU_Node@?$_Tree_nod@V?$_Tmap_traits@PADUtextStruct@@U?$less@PAD@std@@V?$allocator@U?$pair@QADUtextStruct@@@std@@@3@$0A@@std@@@2@PBV12@@Z$0 60800000 f   NMS_SceneGraph.obj
 0001:fffff000       __unwindfunclet$??$_Debug_range2@V?$_Vector_const_iterator@PAVSceneGraphNode@@V?$allocator@PAVSceneGraphNode@@@std@@@std@@@std@@YAXV?$_Vector_const_iterator@PAVSceneGraphNode@@V?$allocator@PAVSceneGraphNode@@@std@@@0@0PB_WIUrandom_access_iterator_tag@0@@Z$0 60800000 f   NMS_SceneGraph.obj
 0001:fffff000       __unwindfunclet$?_Tidy@?$_Tree@V?$_Tmap_traits@PADUtextStruct@@U?$less@PAD@std@@V?$allocator@U?$pair@QADUtextStruct@@@std@@@3@$0A@@std@@@std@@IAEXXZ$0 60800000 f   NMS_AssetManager.obj
 0001:fffff000       __unwindfunclet$?erase@?$_Tree@V?$_Tmap_traits@PADUtextStruct@@U?$less@PAD@std@@V?$allocator@U?$pair@QADUtextStruct@@@std@@@3@$0A@@std@@@std@@QAE?AViterator@12@Vconst_iterator@12@0@Z$0 60800000 f   NMS_Engine.obj
 0001:fffff000       __unwindfunclet$??1NMS_Event@@QAE@XZ$0 60800000 f   NMS_Event.obj
 0001:fffff000       __ehhandler$?_Buynode@?$list@TSDL_Event@@V?$allocator@TSDL_Event@@@std@@@std@@IAEPAU_Node@?$_List_nod@TSDL_Event@@V?$allocator@TSDL_Event@@@std@@@2@XZ 60800000 f   NMS_SceneRenderer.obj
 0001:fffff000       __unwindfunclet$?erase@?$_Tree@V?$_Tmap_traits@PADUtextStruct@@U?$less@PAD@std@@V?$allocator@U?$pair@QADUtextStruct@@@std@@@3@$0A@@std@@@std@@QAE?AViterator@12@Vconst_iterator@12@0@Z$0 60800000 f   NMS_AssetManager.obj
 0001:fffff000       __unwindfunclet$?clear@?$vector@PAVSceneGraphNode@@V?$allocator@PAVSceneGraphNode@@@std@@@std@@QAEXXZ$0 60800000 f   NMS_Framework.obj
 0001:fffff000       __unwindfunclet$??1_Iterator_base@std@@QAE@XZ$0 60800000 f   NMS_Engine.obj
 0001:fffff000       __unwindfunclet$?_Make_iter@?$vector@PAVSceneGraphNode@@V?$allocator@PAVSceneGraphNode@@@std@@@std@@QBE?AV?$_Vector_iterator@PAVSceneGraphNode@@V?$allocator@PAVSceneGraphNode@@@std@@@2@V?$_Vector_const_iterator@PAVSceneGraphNode@@V?$allocator@PAVSceneGraphNode@@@std@@@2@@Z$0 60800000 f   NMS_SceneGraph.obj
 0001:fffff000       __unwindfunclet$?clear@?$vector@PAVSceneGraphNode@@V?$allocator@PAVSceneGraphNode@@@std@@@std@@QAEXXZ$0 60800000 f   NMS_SceneRenderer.obj
 0001:fffff000       __ehhandler$?_Buynode@?$list@TSDL_Event@@V?$allocator@TSDL_Event@@@std@@@std@@IAEPAU_Node@?$_List_nod@TSDL_Event@@V?$allocator@TSDL_Event@@@std@@@2@PAU342@0ABTSDL_Event@@@Z 60800000 f   NMS_SceneRenderer.obj
 0001:fffff000       __unwindfunclet$??1_Iterator_base@std@@QAE@XZ$0 60800000 f   NMS_AssetManager.obj
 0001:fffff000       __unwindfunclet$?_Tidy@?$_Tree@V?$_Tmap_traits@PADUtextStruct@@U?$less@PAD@std@@V?$allocator@U?$pair@QADUtextStruct@@@std@@@3@$0A@@std@@@std@@IAEXXZ$0 60800000 f   NMS_Engine.obj
 0001:fffff000       __unwindfunclet$?_Adopt@_Iterator_base@std@@QAEXPBV_Container_base_secure@2@@Z$0 60800000 f   NMS_AssetManager.obj
 0001:fffff000       __unwindfunclet$?_Buynode@?$_Tree@V?$_Tmap_traits@PADUtextStruct@@U?$less@PAD@std@@V?$allocator@U?$pair@QADUtextStruct@@@std@@@3@$0A@@std@@@std@@IAEPAU_Node@?$_Tree_nod@V?$_Tmap_traits@PADUtextStruct@@U?$less@PAD@std@@V?$allocator@U?$pair@QADUtextStruct@@@std@@@3@$0A@@std@@@2@PAU342@00ABU?$pair@QADUtextStruct@@@2@D@Z$2 60800000 f   NMS_SceneGraph.obj
 0001:fffff000       __unwindfunclet$??4_Iterator_base@std@@QAEAAV01@ABV01@@Z$0 60800000 f   NMS_AssetManager.obj
 0001:fffff000       __unwindfunclet$??$_Debug_range2@V?$_Vector_const_iterator@PAVSceneGraphNode@@V?$allocator@PAVSceneGraphNode@@@std@@@std@@@std@@YAXV?$_Vector_const_iterator@PAVSceneGraphNode@@V?$allocator@PAVSceneGraphNode@@@std@@@0@0PB_WIUrandom_access_iterator_tag@0@@Z$0 60800000 f   NMS_Framework.obj
 0001:fffff000       __unwindfunclet$??4?$_Tree@V?$_Tmap_traits@PADUtextStruct@@U?$less@PAD@std@@V?$allocator@U?$pair@QADUtextStruct@@@std@@@3@$0A@@std@@@std@@QAEAAV01@ABV01@@Z$0 60800000 f   NMS_AssetManager.obj
 0001:fffff000       __unwindfunclet$??1NMSCameraController@@QAE@XZ$0 60800000 f   NMS_Framework.obj
 0001:fffff000       __unwindfunclet$??4_Iterator_base@std@@QAEAAV01@ABV01@@Z$0 60800000 f   NMS_Engine.obj
 0001:fffff000       __unwindfunclet$?_Tidy@?$_Tree@V?$_Tmap_traits@PADUtextStruct@@U?$less@PAD@std@@V?$allocator@U?$pair@QADUtextStruct@@@std@@@3@$0A@@std@@@std@@IAEXXZ$0 60800000 f   NMS_SceneRenderer.obj
 0001:fffff000       __unwindfunclet$??$_Debug_range@V?$_Vector_const_iterator@PAVSceneGraphNode@@V?$allocator@PAVSceneGraphNode@@@std@@@std@@@std@@YAXV?$_Vector_const_iterator@PAVSceneGraphNode@@V?$allocator@PAVSceneGraphNode@@@std@@@0@0PB_WI@Z$0 60800000 f   NMS_Framework.obj
 0001:fffff000       __unwindfunclet$??0?$_Tree@V?$_Tmap_traits@PADUtextStruct@@U?$less@PAD@std@@V?$allocator@U?$pair@QADUtextStruct@@@std@@@3@$0A@@std@@@std@@QAE@ABV01@@Z$2 60800000 f   NMS_AssetManager.obj
 0001:fffff000       __unwindfunclet$?_Incsize@?$list@TSDL_Event@@V?$allocator@TSDL_Event@@@std@@@std@@IAEXI@Z$0 60800000 f   NMS_SceneRenderer.obj
 0001:fffff000       __unwindfunclet$??0const_iterator@?$_Tree@V?$_Tmap_traits@PADUtextStruct@@U?$less@PAD@std@@V?$allocator@U?$pair@QADUtextStruct@@@std@@@3@$0A@@std@@@std@@QAE@PAU_Node@?$_Tree_nod@V?$_Tmap_traits@PADUtextStruct@@U?$less@PAD@std@@V?$allocator@U?$pair@QADUtextStruct@@@std@@@3@$0A@@std@@@2@PBV12@@Z$0 60800000 f   NMS_Camera.obj
 0001:fffff000       __unwindfunclet$??1LightSource@@QAE@XZ$0 60800000 f   NMS_LightSystem.obj
 0001:fffff000       __unwindfunclet$?_Make_iter@?$_Tree@V?$_Tmap_traits@PADUtextStruct@@U?$less@PAD@std@@V?$allocator@U?$pair@QADUtextStruct@@@std@@@3@$0A@@std@@@std@@QBE?AViterator@12@Vconst_iterator@12@@Z$0 60800000 f   NMS_Framework.obj
 0001:fffff000       __unwindfunclet$?_Buynode@?$_Tree@V?$_Tmap_traits@PADUtextStruct@@U?$less@PAD@std@@V?$allocator@U?$pair@QADUtextStruct@@@std@@@3@$0A@@std@@@std@@IAEPAU_Node@?$_Tree_nod@V?$_Tmap_traits@PADUtextStruct@@U?$less@PAD@std@@V?$allocator@U?$pair@QADUtextStruct@@@std@@@3@$0A@@std@@@2@PAU342@00ABU?$pair@QADUtextStruct@@@2@D@Z$2 60800000 f   NMS_Camera.obj
 0001:fffff000       __unwindfunclet$??1LightSource@@QAE@XZ$0 60800000 f   NMS_Framework.obj
 0001:fffff000       __unwindfunclet$??Econst_iterator@?$_Tree@V?$_Tmap_traits@PADUtextStruct@@U?$less@PAD@std@@V?$allocator@U?$pair@QADUtextStruct@@@std@@@3@$0A@@std@@@std@@QAE?AV012@H@Z$0 60800000 f   NMS_Camera.obj
 0001:fffff000       __unwindfunclet$?erase@?$_Tree@V?$_Tmap_traits@PADUtextStruct@@U?$less@PAD@std@@V?$allocator@U?$pair@QADUtextStruct@@@std@@@3@$0A@@std@@@std@@QAE?AViterator@12@Vconst_iterator@12@0@Z$0 60800000 f   NMS_SceneRenderer.obj
 0001:fffff000       __unwindfunclet$?_Adopt@_Iterator_base@std@@QAEXPBV_Container_base_secure@2@@Z$0 60800000 f   NMS_SceneGraph.obj
 0001:fffff000       __unwindfunclet$??0logic_error@std@@QAE@ABV01@@Z$0 60800000 f   NMS_Camera.obj
 0001:fffff000       __unwindfunclet$??0?$vector@PAVSceneGraphNode@@V?$allocator@PAVSceneGraphNode@@@std@@@std@@QAE@ABV01@@Z$2 60800000 f   NMS_Engine.obj
 0001:fffff000       __unwindfunclet$??0logic_error@std@@QAE@ABV?$basic_string@DU?$char_traits@D@std@@V?$allocator@D@2@@1@@Z$0 60800000 f   NMS_Camera.obj
 0001:fffff000       __ehhandler$?_Buynode@?$_Tree@V?$_Tmap_traits@PADUtextStruct@@U?$less@PAD@std@@V?$allocator@U?$pair@QADUtextStruct@@@std@@@3@$0A@@std@@@std@@IAEPAU_Node@?$_Tree_nod@V?$_Tmap_traits@PADUtextStruct@@U?$less@PAD@std@@V?$allocator@U?$pair@QADUtextStruct@@@std@@@3@$0A@@std@@@2@XZ 60800000 f   NMS_Camera.obj
 0001:fffff000       __unwindfunclet$?erase@?$_Tree@V?$_Tmap_traits@PADUtextStruct@@U?$less@PAD@std@@V?$allocator@U?$pair@QADUtextStruct@@@std@@@3@$0A@@std@@@std@@QAE?AViterator@12@Vconst_iterator@12@@Z$0 60800000 f   NMS_Framework.obj
 0001:fffff000       __ehhandler$?_Copy@?$_Tree@V?$_Tmap_traits@PADUtextStruct@@U?$less@PAD@std@@V?$allocator@U?$pair@QADUtextStruct@@@std@@@3@$0A@@std@@@std@@IAEPAU_Node@?$_Tree_nod@V?$_Tmap_traits@PADUtextStruct@@U?$less@PAD@std@@V?$allocator@U?$pair@QADUtextStruct@@@std@@@3@$0A@@std@@@2@PAU342@0@Z 60800000 f   NMS_Camera.obj
 0001:fffff000       __unwindfunclet$??$_Debug_range2@V?$_Const_iterator@$00@?$list@TSDL_Event@@V?$allocator@TSDL_Event@@@std@@@std@@@std@@YAXV?$_Const_iterator@$00@?$list@TSDL_Event@@V?$allocator@TSDL_Event@@@std@@@0@0PB_WIUinput_iterator_tag@0@@Z$0 60800000 f   NMS_Framework.obj
 0001:fffff000       __unwindfunclet$??$_Uninit_copy@V?$_Vector_const_iterator@PAVSceneGraphNode@@V?$allocator@PAVSceneGraphNode@@@std@@@std@@PAPAVSceneGraphNode@@V?$allocator@PAVSceneGraphNode@@@2@@std@@YAPAPAVSceneGraphNode@@V?$_Vector_const_iterator@PAVSceneGraphNode@@V?$allocator@PAVSceneGraphNode@@@std@@@0@0PAPAV1@AAV?$allocator@PAVSceneGraphNode@@@0@U_Scalar_ptr_iterator_tag@0@U_Range_checked_iterator_tag@0@@Z$0 60800000 f   NMS_Framework.obj
 0001:fffff000       __unwindfunclet$?erase@?$_Tree@V?$_Tmap_traits@PADUtextStruct@@U?$less@PAD@std@@V?$allocator@U?$pair@QADUtextStruct@@@std@@@3@$0A@@std@@@std@@QAE?AViterator@12@Vconst_iterator@12@@Z$0 60800000 f   NMS_Camera.obj
 0001:fffff000       __ehhandler$?_Copy@?$_Tree@V?$_Tmap_traits@PADUtextStruct@@U?$less@PAD@std@@V?$allocator@U?$pair@QADUtextStruct@@@std@@@3@$0A@@std@@@std@@IAEPAU_Node@?$_Tree_nod@V?$_Tmap_traits@PADUtextStruct@@U?$less@PAD@std@@V?$allocator@U?$pair@QADUtextStruct@@@std@@@3@$0A@@std@@@2@PAU342@0@Z 60800000 f   NMS_Framework.obj
 0001:fffff000       __unwindfunclet$??1_Iterator_base@std@@QAE@XZ$0 60800000 f   NMS_SceneRenderer.obj
 0001:fffff000       __unwindfunclet$?_Make_iter@?$_Tree@V?$_Tmap_traits@PADUtextStruct@@U?$less@PAD@std@@V?$allocator@U?$pair@QADUtextStruct@@@std@@@3@$0A@@std@@@std@@QBE?AViterator@12@Vconst_iterator@12@@Z$0 60800000 f   NMS_Camera.obj
 0001:fffff000       __unwindfunclet$??1?$vector@PAVSceneGraphNode@@V?$allocator@PAVSceneGraphNode@@@std@@@std@@QAE@XZ$0 60800000 f   NMS_Engine.obj
 0001:fffff000       __unwindfunclet$?_Adopt@_Iterator_base@std@@QAEXPBV_Container_base_secure@2@@Z$0 60800000 f   NMS_SceneRenderer.obj
 0001:fffff000       __unwindfunclet$??4_Iterator_base@std@@QAEAAV01@ABV01@@Z$0 60800000 f   NMS_SceneRenderer.obj
 0001:fffff000       __unwindfunclet$?_Tidy@?$_Tree@V?$_Tmap_traits@PADUtextStruct@@U?$less@PAD@std@@V?$allocator@U?$pair@QADUtextStruct@@@std@@@3@$0A@@std@@@std@@IAEXXZ$0 60800000 f   NMS_Camera.obj
 0001:fffff000       __unwindfunclet$?clear@?$vector@PAVSceneGraphNode@@V?$allocator@PAVSceneGraphNode@@@std@@@std@@QAEXXZ$0 60800000 f   NMS_Engine.obj
 0001:fffff000       __unwindfunclet$??$_Debug_range@V?$_Const_iterator@$00@?$list@TSDL_Event@@V?$allocator@TSDL_Event@@@std@@@std@@@std@@YAXV?$_Const_iterator@$00@?$list@TSDL_Event@@V?$allocator@TSDL_Event@@@std@@@0@0PB_WI@Z$0 60800000 f   NMS_Framework.obj
 0001:fffff000       __ehhandler$??4?$function2@XHH@boost@@QAEAAV01@ABV01@@Z 60800000 f   NMS_SceneRenderer.obj
 0001:fffff000       __unwindfunclet$?erase@?$_Tree@V?$_Tmap_traits@PADUtextStruct@@U?$less@PAD@std@@V?$allocator@U?$pair@QADUtextStruct@@@std@@@3@$0A@@std@@@std@@QAE?AViterator@12@Vconst_iterator@12@0@Z$0 60800000 f   NMS_Camera.obj
 0001:fffff000       __ehhandler$?_Buynode@?$_Tree@V?$_Tmap_traits@PADUtextStruct@@U?$less@PAD@std@@V?$allocator@U?$pair@QADUtextStruct@@@std@@@3@$0A@@std@@@std@@IAEPAU_Node@?$_Tree_nod@V?$_Tmap_traits@PADUtextStruct@@U?$less@PAD@std@@V?$allocator@U?$pair@QADUtextStruct@@@std@@@3@$0A@@std@@@2@XZ 60800000 f   NMS_Framework.obj
 0001:fffff000       __ehhandler$??4?$function1@XW4SDLKey@@@boost@@QAEAAV01@ABV01@@Z 60800000 f   NMS_SceneRenderer.obj
 0001:fffff000       __unwindfunclet$??4_Iterator_base@std@@QAEAAV01@ABV01@@Z$0 60800000 f   NMS_SceneGraph.obj
 0001:fffff000       __unwindfunclet$??E?$_Const_iterator@$00@?$list@TSDL_Event@@V?$allocator@TSDL_Event@@@std@@@std@@QAE?AV012@H@Z$0 60800000 f   NMS_Framework.obj
 0001:fffff000       __unwindfunclet$??0?$_Vector_const_iterator@PAVSceneGraphNode@@V?$allocator@PAVSceneGraphNode@@@std@@@std@@QAE@PAPAVSceneGraphNode@@PBV_Container_base_secure@1@@Z$0 60800000 f   NMS_SceneGraph.obj
 0001:fffff000       __unwindfunclet$??1_Iterator_base@std@@QAE@XZ$0 60800000 f   NMS_Camera.obj
 0001:fffff000       __ehhandler$??4?$function1@XH@boost@@QAEAAV01@ABV01@@Z 60800000 f   NMS_SceneRenderer.obj
 0001:fffff000       __unwindfunclet$?_Adopt@_Iterator_base@std@@QAEXPBV_Container_base_secure@2@@Z$0 60800000 f   NMS_Camera.obj
 0001:fffff000       __unwindfunclet$??Econst_iterator@?$_Tree@V?$_Tmap_traits@PADUtextStruct@@U?$less@PAD@std@@V?$allocator@U?$pair@QADUtextStruct@@@std@@@3@$0A@@std@@@std@@QAE?AV012@H@Z$0 60800000 f   NMS_SceneGraph.obj
 0001:fffff000       __unwindfunclet$??4_Iterator_base@std@@QAEAAV01@ABV01@@Z$0 60800000 f   NMS_Camera.obj
 0001:fffff000       __unwindfunclet$??E?$_Const_iterator@$00@?$list@TSDL_Event@@V?$allocator@TSDL_Event@@@std@@@std@@QAE?AV012@H@Z$0 60800000 f   NMS_SceneRenderer.obj
 0001:fffff000       __unwindfunclet$??4?$list@TSDL_Event@@V?$allocator@TSDL_Event@@@std@@@std@@QAEAAV01@ABV01@@Z$0 60800000 f   NMS_SceneRenderer.obj
 0001:fffff000       __unwindfunclet$??4?$_Tree@V?$_Tmap_traits@PADUtextStruct@@U?$less@PAD@std@@V?$allocator@U?$pair@QADUtextStruct@@@std@@@3@$0A@@std@@@std@@QAEAAV01@ABV01@@Z$0 60800000 f   NMS_Camera.obj
 0001:fffff000       __unwindfunclet$??1?$list@TSDL_Event@@V?$allocator@TSDL_Event@@@std@@@std@@QAE@XZ$0 60800000 f   NMS_SceneRenderer.obj
 0001:fffff000       __unwindfunclet$?_Incsize@?$list@TSDL_Event@@V?$allocator@TSDL_Event@@@std@@@std@@IAEXI@Z$0 60800000 f   NMS_Framework.obj
 0001:fffff000       __unwindfunclet$?erase@?$vector@PAVSceneGraphNode@@V?$allocator@PAVSceneGraphNode@@@std@@@std@@QAE?AV?$_Vector_iterator@PAVSceneGraphNode@@V?$allocator@PAVSceneGraphNode@@@std@@@2@V?$_Vector_const_iterator@PAVSceneGraphNode@@V?$allocator@PAVSceneGraphNode@@@std@@@2@0@Z$0 60800000 f   NMS_Framework.obj
 0001:fffff000       __ehhandler$?_Buynode@?$list@TSDL_Event@@V?$allocator@TSDL_Event@@@std@@@std@@IAEPAU_Node@?$_List_nod@TSDL_Event@@V?$allocator@TSDL_Event@@@std@@@2@PAU342@0ABTSDL_Event@@@Z 60800000 f   NMS_Framework.obj
 0001:fffff000       __unwindfunclet$??0?$_Tree@V?$_Tmap_traits@PADUtextStruct@@U?$less@PAD@std@@V?$allocator@U?$pair@QADUtextStruct@@@std@@@3@$0A@@std@@@std@@QAE@ABV01@@Z$2 60800000 f   NMS_Camera.obj
 0001:fffff000       __unwindfunclet$?_Make_iter@?$_Tree@V?$_Tmap_traits@PADUtextStruct@@U?$less@PAD@std@@V?$allocator@U?$pair@QADUtextStruct@@@std@@@3@$0A@@std@@@std@@QBE?AViterator@12@Vconst_iterator@12@@Z$0 60800000 f   NMS_Engine.obj
 0001:fffff000       __unwindfunclet$??$_Debug_range2@V?$_Vector_const_iterator@PAVSceneGraphNode@@V?$allocator@PAVSceneGraphNode@@@std@@@std@@@std@@YAXV?$_Vector_const_iterator@PAVSceneGraphNode@@V?$allocator@PAVSceneGraphNode@@@std@@@0@0PB_WIUrandom_access_iterator_tag@0@@Z$0 60800000 f   NMS_Engine.obj
 0001:fffff000       __unwindfunclet$?_Xlen@?$vector@PAVSceneGraphNode@@V?$allocator@PAVSceneGraphNode@@@std@@@std@@KAXXZ$0 60800000 f   NMS_Framework.obj
 0001:fffff000       __unwindfunclet$?_Make_iter@?$list@TSDL_Event@@V?$allocator@TSDL_Event@@@std@@@std@@QBE?AV?$_Iterator@$00@12@V?$_Const_iterator@$00@12@@Z$0 60800000 f   NMS_Framework.obj
 0001:fffff000       __unwindfunclet$??0runtime_error@std@@QAE@ABV?$basic_string@DU?$char_traits@D@std@@V?$allocator@D@2@@1@@Z$0 60800000 f   NMS_Thread.obj
 0001:fffff000       __unwindfunclet$??0logic_error@std@@QAE@ABV01@@Z$0 60800000 f   NMS_SceneGraph.obj
 0001:fffff000       __unwindfunclet$??0runtime_error@std@@QAE@ABV01@@Z$0 60800000 f   NMS_Thread.obj
 0001:fffff000       __unwindfunclet$??0logic_error@std@@QAE@ABV?$basic_string@DU?$char_traits@D@std@@V?$allocator@D@2@@1@@Z$0 60800000 f   NMS_SceneGraph.obj
 0001:fffff000       __unwindfunclet$??0?$list@TSDL_Event@@V?$allocator@TSDL_Event@@@std@@@std@@QAE@ABV01@@Z$2 60800000 f   NMS_SceneRenderer.obj
 0001:fffff000       __unwindfunclet$?erase@?$list@TSDL_Event@@V?$allocator@TSDL_Event@@@std@@@std@@QAE?AV?$_Iterator@$00@12@V?$_Const_iterator@$00@12@@Z$0 60800000 f   NMS_Framework.obj
 0001:fffff000       __unwindfunclet$??$_Debug_range@V?$_Vector_const_iterator@PAVSceneGraphNode@@V?$allocator@PAVSceneGraphNode@@@std@@@std@@@std@@YAXV?$_Vector_const_iterator@PAVSceneGraphNode@@V?$allocator@PAVSceneGraphNode@@@std@@@0@0PB_WI@Z$0 60800000 f   NMS_Engine.obj
 0001:fffff000       __unwindfunclet$??$?6U?$char_traits@D@std@@@std@@YAAAV?$basic_ostream@DU?$char_traits@D@std@@@0@AAV10@PBD@Z$2 60800000 f   NMS_Thread.obj
 0001:fffff000       __unwindfunclet$??0?$_Tree@V?$_Tmap_traits@PADUtextStruct@@U?$less@PAD@std@@V?$allocator@U?$pair@QADUtextStruct@@@std@@@3@$0A@@std@@@std@@QAE@ABV01@@Z$2 60800000 f   NMS_Framework.obj
 0001:fffff000       __unwindfunclet$?clear@?$vector@PAVSceneGraphNode@@V?$allocator@PAVSceneGraphNode@@@std@@@std@@QAEXXZ$0 60800000 f   NMS_SceneGraph.obj
 0001:fffff000       __unwindfunclet$??0sentry@?$basic_ostream@DU?$char_traits@D@std@@@std@@QAE@AAV12@@Z$0 60800000 f   NMS_Thread.obj
 0001:fffff000       __unwindfunclet$??1?$vector@PAVSceneGraphNode@@V?$allocator@PAVSceneGraphNode@@@std@@@std@@QAE@XZ$0 60800000 f   NMS_SceneRenderer.obj
 0001:fffff000       __unwindfunclet$??1sentry@?$basic_ostream@DU?$char_traits@D@std@@@std@@QAE@XZ$0 60800000 f   NMS_Thread.obj
 0001:fffff000       __unwindfunclet$??0logic_error@std@@QAE@ABV?$basic_string@DU?$char_traits@D@std@@V?$allocator@D@2@@1@@Z$0 60800000 f   NMS_Framework.obj
 0001:fffff000       __unwindfunclet$??0?$vector@PAVSceneGraphNode@@V?$allocator@PAVSceneGraphNode@@@std@@@std@@QAE@ABV01@@Z$2 60800000 f   NMS_SceneRenderer.obj
 0001:fffff000       __unwindfunclet$??0TransformationNode@@QAE@ABV0@@Z$0 60800000 f   NMS_Engine.obj
 0001:fffff000       __unwindfunclet$?_Xlen@?$vector@PAVSceneGraphNode@@V?$allocator@PAVSceneGraphNode@@@std@@@std@@KAXXZ$0 60800000 f   NMS_SceneGraph.obj
 0001:fffff000       __unwindfunclet$??$_Uninit_copy@V?$_Vector_const_iterator@PAVSceneGraphNode@@V?$allocator@PAVSceneGraphNode@@@std@@@std@@PAPAVSceneGraphNode@@V?$allocator@PAVSceneGraphNode@@@2@@std@@YAPAPAVSceneGraphNode@@V?$_Vector_const_iterator@PAVSceneGraphNode@@V?$allocator@PAVSceneGraphNode@@@std@@@0@0PAPAV1@AAV?$allocator@PAVSceneGraphNode@@@0@U_Scalar_ptr_iterator_tag@0@U_Range_checked_iterator_tag@0@@Z$0 60800000 f   NMS_Engine.obj
 0001:fffff000       __unwindfunclet$?_Make_iter@?$_Tree@V?$_Tmap_traits@PADUtextStruct@@U?$less@PAD@std@@V?$allocator@U?$pair@QADUtextStruct@@@std@@@3@$0A@@std@@@std@@QBE?AViterator@12@Vconst_iterator@12@@Z$0 60800000 f   NMS_SceneGraph.obj
 0001:fffff000       __unwindfunclet$??1_Iterator_base@std@@QAE@XZ$0 60800000 f   NMS_TextureManager.obj
 0001:fffff000       __unwindfunclet$??4?$_Tree@V?$_Tmap_traits@PADUtextStruct@@U?$less@PAD@std@@V?$allocator@U?$pair@QADUtextStruct@@@std@@@3@$0A@@std@@@std@@QAEAAV01@ABV01@@Z$0 60800000 f   NMS_Engine.obj
 0001:fffff000       __unwindfunclet$??4?$_Tree@V?$_Tmap_traits@PADUtextStruct@@U?$less@PAD@std@@V?$allocator@U?$pair@QADUtextStruct@@@std@@@3@$0A@@std@@@std@@QAEAAV01@ABV01@@Z$0 60800000 f   NMS_SceneRenderer.obj
 0001:fffff000       __unwindfunclet$??0logic_error@std@@QAE@ABV01@@Z$0 60800000 f   NMS_Framework.obj
 0001:fffff000       __unwindfunclet$?_Insert@?$list@TSDL_Event@@V?$allocator@TSDL_Event@@@std@@@std@@QAEXV?$_Const_iterator@$00@12@ABTSDL_Event@@@Z$0 60800000 f   NMS_Framework.obj
 0001:fffff000       __unwindfunclet$??$unchecked_uninitialized_copy@V?$_Vector_const_iterator@PAVSceneGraphNode@@V?$allocator@PAVSceneGraphNode@@@std@@@std@@PAPAVSceneGraphNode@@V?$allocator@PAVSceneGraphNode@@@2@@stdext@@YAPAPAVSceneGraphNode@@V?$_Vector_const_iterator@PAVSceneGraphNode@@V?$allocator@PAVSceneGraphNode@@@std@@@std@@0PAPAV1@AAV?$allocator@PAVSceneGraphNode@@@3@@Z$0 60800000 f   NMS_Engine.obj
 0001:fffff000       __unwindfunclet$??4_Iterator_base@std@@QAEAAV01@ABV01@@Z$0 60800000 f   NMS_TextureManager.obj
 0001:fffff000       __unwindfunclet$??0TransformationNode@@QAE@ABV0@@Z$0 60800000 f   NMS_SceneGraph.obj
 0001:fffff000       __unwindfunclet$?_Adopt@_Iterator_base@std@@QAEXPBV_Container_base_secure@2@@Z$0 60800000 f   NMS_TextureManager.obj
 0001:fffff000       __unwindfunclet$??0?$_Tree@V?$_Tmap_traits@PADUtextStruct@@U?$less@PAD@std@@V?$allocator@U?$pair@QADUtextStruct@@@std@@@3@$0A@@std@@@std@@QAE@ABV01@@Z$2 60800000 f   NMS_SceneRenderer.obj
 0001:fffff000       __unwindfunclet$?erase@?$_Tree@V?$_Tmap_traits@PADUtextStruct@@U?$less@PAD@std@@V?$allocator@U?$pair@QADUtextStruct@@@std@@@3@$0A@@std@@@std@@QAE?AViterator@12@Vconst_iterator@12@@Z$0 60800000 f   NMS_Engine.obj
 0001:fffff000       __unwindfunclet$??Econst_iterator@?$_Tree@V?$_Tmap_traits@PADUtextStruct@@U?$less@PAD@std@@V?$allocator@U?$pair@QADUtextStruct@@@std@@@3@$0A@@std@@@std@@QAE?AV012@H@Z$0 60800000 f   NMS_Framework.obj
 0001:fffff000       __unwindfunclet$??$unchecked_uninitialized_copy@V?$_Vector_const_iterator@PAVSceneGraphNode@@V?$allocator@PAVSceneGraphNode@@@std@@@std@@PAPAVSceneGraphNode@@V?$allocator@PAVSceneGraphNode@@@2@@stdext@@YAPAPAVSceneGraphNode@@V?$_Vector_const_iterator@PAVSceneGraphNode@@V?$allocator@PAVSceneGraphNode@@@std@@@std@@0PAPAV1@AAV?$allocator@PAVSceneGraphNode@@@3@@Z$0 60800000 f   NMS_Framework.obj
 0001:fffff000       __ehhandler$?_Copy@?$_Tree@V?$_Tmap_traits@PADUtextStruct@@U?$less@PAD@std@@V?$allocator@U?$pair@QADUtextStruct@@@std@@@3@$0A@@std@@@std@@IAEPAU_Node@?$_Tree_nod@V?$_Tmap_traits@PADUtextStruct@@U?$less@PAD@std@@V?$allocator@U?$pair@QADUtextStruct@@@std@@@3@$0A@@std@@@2@PAU342@0@Z 60800000 f   NMS_Engine.obj
 0001:fffff000       __unwindfunclet$??$_Ucopy@V?$_Vector_const_iterator@PAVSceneGraphNode@@V?$allocator@PAVSceneGraphNode@@@std@@@std@@@?$vector@PAVSceneGraphNode@@V?$allocator@PAVSceneGraphNode@@@std@@@std@@IAEPAPAVSceneGraphNode@@V?$_Vector_const_iterator@PAVSceneGraphNode@@V?$allocator@PAVSceneGraphNode@@@std@@@1@0PAPAV2@@Z$0 60800000 f   NMS_Engine.obj
 0001:fffff000       __unwindfunclet$??0?$_Const_iterator@$00@?$list@TSDL_Event@@V?$allocator@TSDL_Event@@@std@@@std@@QAE@PAU_Node@?$_List_nod@TSDL_Event@@V?$allocator@TSDL_Event@@@std@@@2@PBV12@@Z$0 60800000 f   NMS_Framework.obj
 0001:fffff000       __unwindfunclet$??1TransformationNode@@QAE@XZ$0 60800000 f   NMS_SceneGraph.obj
 0001:fffff000       __unwindfunclet$??$_Debug_range2@V?$_Vector_const_iterator@PAVSceneGraphNode@@V?$allocator@PAVSceneGraphNode@@@std@@@std@@@std@@YAXV?$_Vector_const_iterator@PAVSceneGraphNode@@V?$allocator@PAVSceneGraphNode@@@std@@@0@0PB_WIUrandom_access_iterator_tag@0@@Z$0 60800000 f   NMS_SceneRenderer.obj
 0001:fffff000       __unwindfunclet$??0?$_Tree@V?$_Tmap_traits@PADUtextStruct@@U?$less@PAD@std@@V?$allocator@U?$pair@QADUtextStruct@@@std@@@3@$0A@@std@@@std@@QAE@ABV01@@Z$2 60800000 f   NMS_TextureManager.obj
 0001:fffff000       __unwindfunclet$??$_Assign@V?$_Const_iterator@$00@?$list@TSDL_Event@@V?$allocator@TSDL_Event@@@std@@@std@@@?$list@TSDL_Event@@V?$allocator@TSDL_Event@@@std@@@std@@QAEXV?$_Const_iterator@$00@01@0Uinput_iterator_tag@1@@Z$0 60800000 f   NMS_Framework.obj
 0001:fffff000       __unwindfunclet$??0NMS_Event@@QAE@ABV0@@Z$0 60800000 f   NMS_SceneRenderer.obj
 0001:fffff000       __unwindfunclet$?erase@?$_Tree@V?$_Tmap_traits@PADUtextStruct@@U?$less@PAD@std@@V?$allocator@U?$pair@QADUtextStruct@@@std@@@3@$0A@@std@@@std@@QAE?AViterator@12@Vconst_iterator@12@@Z$0 60800000 f   NMS_SceneGraph.obj
 0001:fffff000       __unwindfunclet$??0?$_Vector_const_iterator@PAVSceneGraphNode@@V?$allocator@PAVSceneGraphNode@@@std@@@std@@QAE@PAPAVSceneGraphNode@@PBV_Container_base_secure@1@@Z$0 60800000 f   NMS_Framework.obj
 0001:fffff000       __unwindfunclet$??$_Insert@V?$_Const_iterator@$00@?$list@TSDL_Event@@V?$allocator@TSDL_Event@@@std@@@std@@@?$list@TSDL_Event@@V?$allocator@TSDL_Event@@@std@@@std@@QAEXV?$_Const_iterator@$00@01@00Uforward_iterator_tag@1@@Z$2 60800000 f   NMS_Framework.obj
 0001:fffff000       __unwindfunclet$??1NMS_Event@@QAE@XZ$0 60800000 f   NMS_SceneRenderer.obj
 0001:fffff000       __unwindfunclet$??4?$_Tree@V?$_Tmap_traits@PADUtextStruct@@U?$less@PAD@std@@V?$allocator@U?$pair@QADUtextStruct@@@std@@@3@$0A@@std@@@std@@QAEAAV01@ABV01@@Z$0 60800000 f   NMS_TextureManager.obj
 0001:fffff000       __unwindfunclet$?_Buynode@?$_Tree@V?$_Tmap_traits@PADUtextStruct@@U?$less@PAD@std@@V?$allocator@U?$pair@QADUtextStruct@@@std@@@3@$0A@@std@@@std@@IAEPAU_Node@?$_Tree_nod@V?$_Tmap_traits@PADUtextStruct@@U?$less@PAD@std@@V?$allocator@U?$pair@QADUtextStruct@@@std@@@3@$0A@@std@@@2@PAU342@00ABU?$pair@QADUtextStruct@@@2@D@Z$2 60800000 f   NMS_Framework.obj
 0001:fffff000       __unwindfunclet$??0NMSCameraController@@QAE@XZ$0 60800000 f   NMS_Engine.obj
 0001:fffff000       __unwindfunclet$??0const_iterator@?$_Tree@V?$_Tmap_traits@PADUtextStruct@@U?$less@PAD@std@@V?$allocator@U?$pair@QADUtextStruct@@@std@@@3@$0A@@std@@@std@@QAE@PAU_Node@?$_Tree_nod@V?$_Tmap_traits@PADUtextStruct@@U?$less@PAD@std@@V?$allocator@U?$pair@QADUtextStruct@@@std@@@3@$0A@@std@@@2@PBV12@@Z$0 60800000 f   NMS_Engine.obj
 0001:fffff000       __unwindfunclet$??$_Debug_range2@V?$_Const_iterator@$00@?$list@TSDL_Event@@V?$allocator@TSDL_Event@@@std@@@std@@@std@@YAXV?$_Const_iterator@$00@?$list@TSDL_Event@@V?$allocator@TSDL_Event@@@std@@@0@0PB_WIUinput_iterator_tag@0@@Z$0 60800000 f   NMS_SceneRenderer.obj
 0001:fffff000       __unwindfunclet$?_Make_iter@?$vector@PAVSceneGraphNode@@V?$allocator@PAVSceneGraphNode@@@std@@@std@@QBE?AV?$_Vector_iterator@PAVSceneGraphNode@@V?$allocator@PAVSceneGraphNode@@@std@@@2@V?$_Vector_const_iterator@PAVSceneGraphNode@@V?$allocator@PAVSceneGraphNode@@@std@@@2@@Z$0 60800000 f   NMS_Engine.obj
 0001:fffff000       __unwindfunclet$??0TransformationNode@@QAE@ABV0@@Z$0 60800000 f   NMS_SceneRenderer.obj
 0001:fffff000       __unwindfunclet$??0?$_Tree@V?$_Tmap_traits@PADUtextStruct@@U?$less@PAD@std@@V?$allocator@U?$pair@QADUtextStruct@@@std@@@3@$0A@@std@@@std@@QAE@ABV01@@Z$2 60800000 f   NMS_Engine.obj
 0001:fffff000       __unwindfunclet$??$_Debug_range2@V?$_Const_iterator@$00@?$list@TSDL_Event@@V?$allocator@TSDL_Event@@@std@@@std@@@std@@YAXV?$_Const_iterator@$00@?$list@TSDL_Event@@V?$allocator@TSDL_Event@@@std@@@0@0PB_WIUinput_iterator_tag@0@@Z$0 60800000 f   NMS_Event.obj
 0001:fffff000       __unwindfunclet$?_Buynode@?$_Tree@V?$_Tmap_traits@PADUtextStruct@@U?$less@PAD@std@@V?$allocator@U?$pair@QADUtextStruct@@@std@@@3@$0A@@std@@@std@@IAEPAU_Node@?$_Tree_nod@V?$_Tmap_traits@PADUtextStruct@@U?$less@PAD@std@@V?$allocator@U?$pair@QADUtextStruct@@@std@@@3@$0A@@std@@@2@PAU342@00ABU?$pair@QADUtextStruct@@@2@D@Z$2 60800000 f   NMS_Engine.obj
 0001:fffff000       __unwindfunclet$??$_Uninit_copy@V?$_Vector_const_iterator@PAVSceneGraphNode@@V?$allocator@PAVSceneGraphNode@@@std@@@std@@PAPAVSceneGraphNode@@V?$allocator@PAVSceneGraphNode@@@2@@std@@YAPAPAVSceneGraphNode@@V?$_Vector_const_iterator@PAVSceneGraphNode@@V?$allocator@PAVSceneGraphNode@@@std@@@0@0PAPAV1@AAV?$allocator@PAVSceneGraphNode@@@0@U_Scalar_ptr_iterator_tag@0@U_Range_checked_iterator_tag@0@@Z$0 60800000 f   NMS_SceneRenderer.obj
 0001:fffff000       __unwindfunclet$??0?$_Vector_const_iterator@PAVSceneGraphNode@@V?$allocator@PAVSceneGraphNode@@@std@@@std@@QAE@PAPAVSceneGraphNode@@PBV_Container_base_secure@1@@Z$0 60800000 f   NMS_Engine.obj
 0001:fffff000       __unwindfunclet$??$_Ucopy@V?$_Vector_const_iterator@PAVSceneGraphNode@@V?$allocator@PAVSceneGraphNode@@@std@@@std@@@?$vector@PAVSceneGraphNode@@V?$allocator@PAVSceneGraphNode@@@std@@@std@@IAEPAPAVSceneGraphNode@@V?$_Vector_const_iterator@PAVSceneGraphNode@@V?$allocator@PAVSceneGraphNode@@@std@@@1@0PAPAV2@@Z$0 60800000 f   NMS_Framework.obj
 0001:fffff000       __unwindfunclet$??Econst_iterator@?$_Tree@V?$_Tmap_traits@PADUtextStruct@@U?$less@PAD@std@@V?$allocator@U?$pair@QADUtextStruct@@@std@@@3@$0A@@std@@@std@@QAE?AV012@H@Z$0 60800000 f   NMS_Engine.obj
 0001:fffff000       __unwindfunclet$??1TransformationNode@@QAE@XZ$0 60800000 f   NMS_SceneRenderer.obj
 0001:fffff000       __unwindfunclet$?erase@?$vector@PAVSceneGraphNode@@V?$allocator@PAVSceneGraphNode@@@std@@@std@@QAE?AV?$_Vector_iterator@PAVSceneGraphNode@@V?$allocator@PAVSceneGraphNode@@@std@@@2@V?$_Vector_const_iterator@PAVSceneGraphNode@@V?$allocator@PAVSceneGraphNode@@@std@@@2@0@Z$0 60800000 f   NMS_SceneGraph.obj
 0001:fffff000       __unwindfunclet$??0logic_error@std@@QAE@ABV01@@Z$0 60800000 f   NMS_Engine.obj
 0001:fffff000       __ehhandler$?_Copy@?$_Tree@V?$_Tmap_traits@PADUtextStruct@@U?$less@PAD@std@@V?$allocator@U?$pair@QADUtextStruct@@@std@@@3@$0A@@std@@@std@@IAEPAU_Node@?$_Tree_nod@V?$_Tmap_traits@PADUtextStruct@@U?$less@PAD@std@@V?$allocator@U?$pair@QADUtextStruct@@@std@@@3@$0A@@std@@@2@PAU342@0@Z 60800000 f   NMS_SceneGraph.obj
 0001:fffff000       __unwindfunclet$??0logic_error@std@@QAE@ABV?$basic_string@DU?$char_traits@D@std@@V?$allocator@D@2@@1@@Z$0 60800000 f   NMS_Engine.obj
 0001:fffff000       __unwindfunclet$?_Buynode@?$_Tree@V?$_Tmap_traits@PADUtextStruct@@U?$less@PAD@std@@V?$allocator@U?$pair@QADUtextStruct@@@std@@@3@$0A@@std@@@std@@IAEPAU_Node@?$_Tree_nod@V?$_Tmap_traits@PADUtextStruct@@U?$less@PAD@std@@V?$allocator@U?$pair@QADUtextStruct@@@std@@@3@$0A@@std@@@2@PAU342@00ABU?$pair@QADUtextStruct@@@2@D@Z$2 60800000 f   NMS_TextureManager.obj
 0001:fffff000       __unwindfunclet$?_Make_iter@?$vector@PAVSceneGraphNode@@V?$allocator@PAVSceneGraphNode@@@std@@@std@@QBE?AV?$_Vector_iterator@PAVSceneGraphNode@@V?$allocator@PAVSceneGraphNode@@@std@@@2@V?$_Vector_const_iterator@PAVSceneGraphNode@@V?$allocator@PAVSceneGraphNode@@@std@@@2@@Z$0 60800000 f   NMS_Framework.obj
 0001:fffff000       __unwindfunclet$??$_Debug_range@V?$_Vector_const_iterator@PAVSceneGraphNode@@V?$allocator@PAVSceneGraphNode@@@std@@@std@@@std@@YAXV?$_Vector_const_iterator@PAVSceneGraphNode@@V?$allocator@PAVSceneGraphNode@@@std@@@0@0PB_WI@Z$0 60800000 f   NMS_SceneRenderer.obj
 0001:fffff000       __unwindfunclet$??Econst_iterator@?$_Tree@V?$_Tmap_traits@PADUtextStruct@@U?$less@PAD@std@@V?$allocator@U?$pair@QADUtextStruct@@@std@@@3@$0A@@std@@@std@@QAE?AV012@H@Z$0 60800000 f   NMS_TextureManager.obj
 0001:fffff000       __unwindfunclet$??0const_iterator@?$_Tree@V?$_Tmap_traits@PADUtextStruct@@U?$less@PAD@std@@V?$allocator@U?$pair@QADUtextStruct@@@std@@@3@$0A@@std@@@std@@QAE@PAU_Node@?$_Tree_nod@V?$_Tmap_traits@PADUtextStruct@@U?$less@PAD@std@@V?$allocator@U?$pair@QADUtextStruct@@@std@@@3@$0A@@std@@@2@PBV12@@Z$0 60800000 f   NMS_TextureManager.obj
 0001:fffff000       __unwindfunclet$?erase@?$_Tree@V?$_Tmap_traits@PADUtextStruct@@U?$less@PAD@std@@V?$allocator@U?$pair@QADUtextStruct@@@std@@@3@$0A@@std@@@std@@QAE?AViterator@12@Vconst_iterator@12@0@Z$0 60800000 f   NMS_TextureManager.obj
 0001:fffff000       __unwindfunclet$??$assign@V?$_Const_iterator@$00@?$list@TSDL_Event@@V?$allocator@TSDL_Event@@@std@@@std@@@?$list@TSDL_Event@@V?$allocator@TSDL_Event@@@std@@@std@@QAEXV?$_Const_iterator@$00@01@0@Z$0 60800000 f   NMS_Framework.obj
 0001:fffff000       __ehhandler$?_Buynode@?$_Tree@V?$_Tmap_traits@PADUtextStruct@@U?$less@PAD@std@@V?$allocator@U?$pair@QADUtextStruct@@@std@@@3@$0A@@std@@@std@@IAEPAU_Node@?$_Tree_nod@V?$_Tmap_traits@PADUtextStruct@@U?$less@PAD@std@@V?$allocator@U?$pair@QADUtextStruct@@@std@@@3@$0A@@std@@@2@XZ 60800000 f   NMS_TextureManager.obj
 0001:fffff000       __unwindfunclet$??1TransformationNode@@QAE@XZ$0 60800000 f   NMS_Engine.obj
 0001:fffff000       __unwindfunclet$?_Tidy@?$_Tree@V?$_Tmap_traits@PADUtextStruct@@U?$less@PAD@std@@V?$allocator@U?$pair@QADUtextStruct@@@std@@@3@$0A@@std@@@std@@IAEXXZ$0 60800000 f   NMS_TextureManager.obj
 0001:fffff000       __unwindfunclet$??$_Debug_range@V?$_Const_iterator@$00@?$list@TSDL_Event@@V?$allocator@TSDL_Event@@@std@@@std@@@std@@YAXV?$_Const_iterator@$00@?$list@TSDL_Event@@V?$allocator@TSDL_Event@@@std@@@0@0PB_WI@Z$0 60800000 f   NMS_SceneRenderer.obj
 0001:fffff000       __unwindfunclet$??1NMSCameraController@@QAE@XZ$0 60800000 f   NMS_Engine.obj
 0001:fffff000       __unwindfunclet$??0const_iterator@?$_Tree@V?$_Tmap_traits@PADUtextStruct@@U?$less@PAD@std@@V?$allocator@U?$pair@QADUtextStruct@@@std@@@3@$0A@@std@@@std@@QAE@PAU_Node@?$_Tree_nod@V?$_Tmap_traits@PADUtextStruct@@U?$less@PAD@std@@V?$allocator@U?$pair@QADUtextStruct@@@std@@@3@$0A@@std@@@2@PBV12@@Z$0 60800000 f   NMS_Framework.obj
 0001:fffff000       __unwindfunclet$?_Make_iter@?$_Tree@V?$_Tmap_traits@PADUtextStruct@@U?$less@PAD@std@@V?$allocator@U?$pair@QADUtextStruct@@@std@@@3@$0A@@std@@@std@@QBE?AViterator@12@Vconst_iterator@12@@Z$0 60800000 f   NMS_TextureManager.obj
 0001:fffff000       __unwindfunclet$??$insert@V?$_Const_iterator@$00@?$list@TSDL_Event@@V?$allocator@TSDL_Event@@@std@@@std@@@?$list@TSDL_Event@@V?$allocator@TSDL_Event@@@std@@@std@@QAEXV?$_Const_iterator@$00@01@00@Z$0 60800000 f   NMS_Framework.obj
 0001:fffff000       __unwindfunclet$?_Xlen@?$vector@PAVSceneGraphNode@@V?$allocator@PAVSceneGraphNode@@@std@@@std@@KAXXZ$0 60800000 f   NMS_Engine.obj
 0001:fffff000       __ehhandler$?_Buynode@?$_Tree@V?$_Tmap_traits@PADUtextStruct@@U?$less@PAD@std@@V?$allocator@U?$pair@QADUtextStruct@@@std@@@3@$0A@@std@@@std@@IAEPAU_Node@?$_Tree_nod@V?$_Tmap_traits@PADUtextStruct@@U?$less@PAD@std@@V?$allocator@U?$pair@QADUtextStruct@@@std@@@3@$0A@@std@@@2@XZ 60800000 f   NMS_SceneGraph.obj
 0001:fffff000       __unwindfunclet$?erase@?$vector@PAVSceneGraphNode@@V?$allocator@PAVSceneGraphNode@@@std@@@std@@QAE?AV?$_Vector_iterator@PAVSceneGraphNode@@V?$allocator@PAVSceneGraphNode@@@std@@@2@V?$_Vector_const_iterator@PAVSceneGraphNode@@V?$allocator@PAVSceneGraphNode@@@std@@@2@0@Z$0 60800000 f   NMS_Engine.obj
 0001:fffff000       __unwindfunclet$??0logic_error@std@@QAE@ABV01@@Z$0 60800000 f   NMS_TextureManager.obj
 0001:fffff000       __unwindfunclet$??0logic_error@std@@QAE@ABV?$basic_string@DU?$char_traits@D@std@@V?$allocator@D@2@@1@@Z$0 60800000 f   NMS_TextureManager.obj
 0001:fffff000       __ehhandler$?_Buynode@?$_Tree@V?$_Tmap_traits@PADUtextStruct@@U?$less@PAD@std@@V?$allocator@U?$pair@QADUtextStruct@@@std@@@3@$0A@@std@@@std@@IAEPAU_Node@?$_Tree_nod@V?$_Tmap_traits@PADUtextStruct@@U?$less@PAD@std@@V?$allocator@U?$pair@QADUtextStruct@@@std@@@3@$0A@@std@@@2@XZ 60800000 f   NMS_Engine.obj
 0001:fffff000       __ehhandler$??$?4P6AXHH@Z@?$function2@XHH@boost@@QAEAAV01@P6AXHH@Z@Z 60800000 f   NMS_Framework.obj
 0001:fffff000       __ehhandler$?_Copy@?$_Tree@V?$_Tmap_traits@PADUtextStruct@@U?$less@PAD@std@@V?$allocator@U?$pair@QADUtextStruct@@@std@@@3@$0A@@std@@@std@@IAEPAU_Node@?$_Tree_nod@V?$_Tmap_traits@PADUtextStruct@@U?$less@PAD@std@@V?$allocator@U?$pair@QADUtextStruct@@@std@@@3@$0A@@std@@@2@PAU342@0@Z 60800000 f   NMS_TextureManager.obj
 0001:fffff000       __unwindfunclet$?erase@?$_Tree@V?$_Tmap_traits@PADUtextStruct@@U?$less@PAD@std@@V?$allocator@U?$pair@QADUtextStruct@@@std@@@3@$0A@@std@@@std@@QAE?AViterator@12@Vconst_iterator@12@@Z$0 60800000 f   NMS_TextureManager.obj
 0001:fffff000       __ehhandler$??$?4P6AXW4SDLKey@@@Z@?$function1@XW4SDLKey@@@boost@@QAEAAV01@P6AXW4SDLKey@@@Z@Z 60800000 f   NMS_Framework.obj
 0001:fffff000       __ehhandler$??$?4P6AXH@Z@?$function1@XH@boost@@QAEAAV01@P6AXH@Z@Z 60800000 f   NMS_Framework.obj
 0001:fffff000       __unwindfunclet$??1?$list@TSDL_Event@@V?$allocator@TSDL_Event@@@std@@@std@@QAE@XZ$0 60800000 f   NMS_Framework.obj
 0001:fffff008       __ehhandler$??$_Debug_range2@V?$_Const_iterator@$00@?$list@TSDL_Event@@V?$allocator@TSDL_Event@@@std@@@std@@@std@@YAXV?$_Const_iterator@$00@?$list@TSDL_Event@@V?$allocator@TSDL_Event@@@std@@@0@0PB_WIUinput_iterator_tag@0@@Z 60800008 f   NMS_Event.obj
 0001:fffff008       __ehhandler$??0const_iterator@?$_Tree@V?$_Tmap_traits@PADUtextStruct@@U?$less@PAD@std@@V?$allocator@U?$pair@QADUtextStruct@@@std@@@3@$0A@@std@@@std@@QAE@PAU_Node@?$_Tree_nod@V?$_Tmap_traits@PADUtextStruct@@U?$less@PAD@std@@V?$allocator@U?$pair@QADUtextStruct@@@std@@@3@$0A@@std@@@2@PBV12@@Z 60800008 f   NMS_Framework.obj
 0001:fffff008       __unwindfunclet$??$_Debug_range@V?$_Const_iterator@$00@?$list@TSDL_Event@@V?$allocator@TSDL_Event@@@std@@@std@@@std@@YAXV?$_Const_iterator@$00@?$list@TSDL_Event@@V?$allocator@TSDL_Event@@@std@@@0@0PB_WI@Z$1 60800008 f   NMS_SceneRenderer.obj
 0001:fffff008       __unwindfunclet$??1NMSCameraController@@QAE@XZ$1 60800008 f   NMS_Engine.obj
 0001:fffff008       __unwindfunclet$?erase@?$vector@PAVSceneGraphNode@@V?$allocator@PAVSceneGraphNode@@@std@@@std@@QAE?AV?$_Vector_iterator@PAVSceneGraphNode@@V?$allocator@PAVSceneGraphNode@@@std@@@2@V?$_Vector_const_iterator@PAVSceneGraphNode@@V?$allocator@PAVSceneGraphNode@@@std@@@2@0@Z$1 60800008 f   NMS_Engine.obj
 0001:fffff008       __unwindfunclet$??$insert@V?$_Const_iterator@$00@?$list@TSDL_Event@@V?$allocator@TSDL_Event@@@std@@@std@@@?$list@TSDL_Event@@V?$allocator@TSDL_Event@@@std@@@std@@QAEXV?$_Const_iterator@$00@01@00@Z$1 60800008 f   NMS_Framework.obj
 0001:fffff008       __unwindfunclet$?_Make_iter@?$_Tree@V?$_Tmap_traits@PADUtextStruct@@U?$less@PAD@std@@V?$allocator@U?$pair@QADUtextStruct@@@std@@@3@$0A@@std@@@std@@QBE?AViterator@12@Vconst_iterator@12@@Z$1 60800008 f   NMS_TextureManager.obj
 0001:fffff008       __unwindfunclet$??$assign@V?$_Const_iterator@$00@?$list@TSDL_Event@@V?$allocator@TSDL_Event@@@std@@@std@@@?$list@TSDL_Event@@V?$allocator@TSDL_Event@@@std@@@std@@QAEXV?$_Const_iterator@$00@01@0@Z$1 60800008 f   NMS_Framework.obj
 0001:fffff008       __unwindfunclet$?erase@?$_Tree@V?$_Tmap_traits@PADUtextStruct@@U?$less@PAD@std@@V?$allocator@U?$pair@QADUtextStruct@@@std@@@3@$0A@@std@@@std@@QAE?AViterator@12@Vconst_iterator@12@0@Z$1 60800008 f   NMS_TextureManager.obj
 0001:fffff008       __ehhandler$??0const_iterator@?$_Tree@V?$_Tmap_traits@PADUtextStruct@@U?$less@PAD@std@@V?$allocator@U?$pair@QADUtextStruct@@@std@@@3@$0A@@std@@@std@@QAE@PAU_Node@?$_Tree_nod@V?$_Tmap_traits@PADUtextStruct@@U?$less@PAD@std@@V?$allocator@U?$pair@QADUtextStruct@@@std@@@3@$0A@@std@@@2@PBV12@@Z 60800008 f   NMS_TextureManager.obj
 0001:fffff008       __unwindfunclet$??Econst_iterator@?$_Tree@V?$_Tmap_traits@PADUtextStruct@@U?$less@PAD@std@@V?$allocator@U?$pair@QADUtextStruct@@@std@@@3@$0A@@std@@@std@@QAE?AV012@H@Z$1 60800008 f   NMS_TextureManager.obj
 0001:fffff008       __unwindfunclet$??$_Debug_range@V?$_Vector_const_iterator@PAVSceneGraphNode@@V?$allocator@PAVSceneGraphNode@@@std@@@std@@@std@@YAXV?$_Vector_const_iterator@PAVSceneGraphNode@@V?$allocator@PAVSceneGraphNode@@@std@@@0@0PB_WI@Z$1 60800008 f   NMS_SceneRenderer.obj
 0001:fffff008       __unwindfunclet$??$_Ucopy@V?$_Vector_const_iterator@PAVSceneGraphNode@@V?$allocator@PAVSceneGraphNode@@@std@@@std@@@?$vector@PAVSceneGraphNode@@V?$allocator@PAVSceneGraphNode@@@std@@@std@@IAEPAPAVSceneGraphNode@@V?$_Vector_const_iterator@PAVSceneGraphNode@@V?$allocator@PAVSceneGraphNode@@@std@@@1@0PAPAV2@@Z$1 60800008 f   NMS_Framework.obj
 0001:fffff008       __ehhandler$??1TransformationNode@@QAE@XZ 60800008 f   NMS_Engine.obj
 0001:fffff008       __unwindfunclet$?_Make_iter@?$vector@PAVSceneGraphNode@@V?$allocator@PAVSceneGraphNode@@@std@@@std@@QBE?AV?$_Vector_iterator@PAVSceneGraphNode@@V?$allocator@PAVSceneGraphNode@@@std@@@2@V?$_Vector_const_iterator@PAVSceneGraphNode@@V?$allocator@PAVSceneGraphNode@@@std@@@2@@Z$1 60800008 f   NMS_Framework.obj
 0001:fffff008       __unwindfunclet$?erase@?$vector@PAVSceneGraphNode@@V?$allocator@PAVSceneGraphNode@@@std@@@std@@QAE?AV?$_Vector_iterator@PAVSceneGraphNode@@V?$allocator@PAVSceneGraphNode@@@std@@@2@V?$_Vector_const_iterator@PAVSceneGraphNode@@V?$allocator@PAVSceneGraphNode@@@std@@@2@0@Z$1 60800008 f   NMS_SceneGraph.obj
 0001:fffff008       __unwindfunclet$??Econst_iterator@?$_Tree@V?$_Tmap_traits@PADUtextStruct@@U?$less@PAD@std@@V?$allocator@U?$pair@QADUtextStruct@@@std@@@3@$0A@@std@@@std@@QAE?AV012@H@Z$1 60800008 f   NMS_Engine.obj
 0001:fffff008       __ehhandler$??0?$_Vector_const_iterator@PAVSceneGraphNode@@V?$allocator@PAVSceneGraphNode@@@std@@@std@@QAE@PAPAVSceneGraphNode@@PBV_Container_base_secure@1@@Z 60800008 f   NMS_Engine.obj
 0001:fffff008       __unwindfunclet$?_Make_iter@?$vector@PAVSceneGraphNode@@V?$allocator@PAVSceneGraphNode@@@std@@@std@@QBE?AV?$_Vector_iterator@PAVSceneGraphNode@@V?$allocator@PAVSceneGraphNode@@@std@@@2@V?$_Vector_const_iterator@PAVSceneGraphNode@@V?$allocator@PAVSceneGraphNode@@@std@@@2@@Z$1 60800008 f   NMS_Engine.obj
 0001:fffff008       __ehhandler$??0TransformationNode@@QAE@ABV0@@Z 60800008 f   NMS_SceneRenderer.obj
 0001:fffff008       __ehhandler$??0const_iterator@?$_Tree@V?$_Tmap_traits@PADUtextStruct@@U?$less@PAD@std@@V?$allocator@U?$pair@QADUtextStruct@@@std@@@3@$0A@@std@@@std@@QAE@PAU_Node@?$_Tree_nod@V?$_Tmap_traits@PADUtextStruct@@U?$less@PAD@std@@V?$allocator@U?$pair@QADUtextStruct@@@std@@@3@$0A@@std@@@2@PBV12@@Z 60800008 f   NMS_Engine.obj
 0001:fffff008       __unwindfunclet$??$_Insert@V?$_Const_iterator@$00@?$list@TSDL_Event@@V?$allocator@TSDL_Event@@@std@@@std@@@?$list@TSDL_Event@@V?$allocator@TSDL_Event@@@std@@@std@@QAEXV?$_Const_iterator@$00@01@00Uforward_iterator_tag@1@@Z$3 60800008 f   NMS_Framework.obj
 0001:fffff008       __unwindfunclet$??0NMSCameraController@@QAE@XZ$1 60800008 f   NMS_Engine.obj
 0001:fffff008       __unwindfunclet$??1NMS_Event@@QAE@XZ$1 60800008 f   NMS_SceneRenderer.obj
 0001:fffff008       __ehhandler$??$_Debug_range2@V?$_Const_iterator@$00@?$list@TSDL_Event@@V?$allocator@TSDL_Event@@@std@@@std@@@std@@YAXV?$_Const_iterator@$00@?$list@TSDL_Event@@V?$allocator@TSDL_Event@@@std@@@0@0PB_WIUinput_iterator_tag@0@@Z 60800008 f   NMS_SceneRenderer.obj
 0001:fffff008       __ehhandler$??0?$_Vector_const_iterator@PAVSceneGraphNode@@V?$allocator@PAVSceneGraphNode@@@std@@@std@@QAE@PAPAVSceneGraphNode@@PBV_Container_base_secure@1@@Z 60800008 f   NMS_Framework.obj
 0001:fffff008       __unwindfunclet$??$_Debug_range2@V?$_Vector_const_iterator@PAVSceneGraphNode@@V?$allocator@PAVSceneGraphNode@@@std@@@std@@@std@@YAXV?$_Vector_const_iterator@PAVSceneGraphNode@@V?$allocator@PAVSceneGraphNode@@@std@@@0@0PB_WIUrandom_access_iterator_tag@0@@Z$1 60800008 f   NMS_SceneRenderer.obj
 0001:fffff008       __ehhandler$??0?$_Const_iterator@$00@?$list@TSDL_Event@@V?$allocator@TSDL_Event@@@std@@@std@@QAE@PAU_Node@?$_List_nod@TSDL_Event@@V?$allocator@TSDL_Event@@@std@@@2@PBV12@@Z 60800008 f   NMS_Framework.obj
 0001:fffff008       __unwindfunclet$??$_Assign@V?$_Const_iterator@$00@?$list@TSDL_Event@@V?$allocator@TSDL_Event@@@std@@@std@@@?$list@TSDL_Event@@V?$allocator@TSDL_Event@@@std@@@std@@QAEXV?$_Const_iterator@$00@01@0Uinput_iterator_tag@1@@Z$1 60800008 f   NMS_Framework.obj
 0001:fffff008       __unwindfunclet$??0NMS_Event@@QAE@ABV0@@Z$1 60800008 f   NMS_SceneRenderer.obj
 0001:fffff008       __ehhandler$??0?$_Tree@V?$_Tmap_traits@PADUtextStruct@@U?$less@PAD@std@@V?$allocator@U?$pair@QADUtextStruct@@@std@@@3@$0A@@std@@@std@@QAE@ABV01@@Z 60800008 f   NMS_TextureManager.obj
 0001:fffff008       __unwindfunclet$??$_Ucopy@V?$_Vector_const_iterator@PAVSceneGraphNode@@V?$allocator@PAVSceneGraphNode@@@std@@@std@@@?$vector@PAVSceneGraphNode@@V?$allocator@PAVSceneGraphNode@@@std@@@std@@IAEPAPAVSceneGraphNode@@V?$_Vector_const_iterator@PAVSceneGraphNode@@V?$allocator@PAVSceneGraphNode@@@std@@@1@0PAPAV2@@Z$1 60800008 f   NMS_Engine.obj
 0001:fffff008       __unwindfunclet$??$unchecked_uninitialized_copy@V?$_Vector_const_iterator@PAVSceneGraphNode@@V?$allocator@PAVSceneGraphNode@@@std@@@std@@PAPAVSceneGraphNode@@V?$allocator@PAVSceneGraphNode@@@2@@stdext@@YAPAPAVSceneGraphNode@@V?$_Vector_const_iterator@PAVSceneGraphNode@@V?$allocator@PAVSceneGraphNode@@@std@@@std@@0PAPAV1@AAV?$allocator@PAVSceneGraphNode@@@3@@Z$1 60800008 f   NMS_Framework.obj
 0001:fffff008       __ehhandler$??1TransformationNode@@QAE@XZ 60800008 f   NMS_SceneGraph.obj
 0001:fffff008       __unwindfunclet$??Econst_iterator@?$_Tree@V?$_Tmap_traits@PADUtextStruct@@U?$less@PAD@std@@V?$allocator@U?$pair@QADUtextStruct@@@std@@@3@$0A@@std@@@std@@QAE?AV012@H@Z$1 60800008 f   NMS_Framework.obj
 0001:fffff008       __unwindfunclet$??$unchecked_uninitialized_copy@V?$_Vector_const_iterator@PAVSceneGraphNode@@V?$allocator@PAVSceneGraphNode@@@std@@@std@@PAPAVSceneGraphNode@@V?$allocator@PAVSceneGraphNode@@@2@@stdext@@YAPAPAVSceneGraphNode@@V?$_Vector_const_iterator@PAVSceneGraphNode@@V?$allocator@PAVSceneGraphNode@@@std@@@std@@0PAPAV1@AAV?$allocator@PAVSceneGraphNode@@@3@@Z$1 60800008 f   NMS_Engine.obj
 0001:fffff008       __unwindfunclet$?erase@?$_Tree@V?$_Tmap_traits@PADUtextStruct@@U?$less@PAD@std@@V?$allocator@U?$pair@QADUtextStruct@@@std@@@3@$0A@@std@@@std@@QAE?AViterator@12@Vconst_iterator@12@@Z$2 60800008 f   NMS_Engine.obj
 0001:fffff008       __ehhandler$??0?$_Tree@V?$_Tmap_traits@PADUtextStruct@@U?$less@PAD@std@@V?$allocator@U?$pair@QADUtextStruct@@@std@@@3@$0A@@std@@@std@@QAE@ABV01@@Z 60800008 f   NMS_Engine.obj
 0001:fffff008       __unwindfunclet$?erase@?$_Tree@V?$_Tmap_traits@PADUtextStruct@@U?$less@PAD@std@@V?$allocator@U?$pair@QADUtextStruct@@@std@@@3@$0A@@std@@@std@@QAE?AViterator@12@Vconst_iterator@12@@Z$2 60800008 f   NMS_SceneGraph.obj
 0001:fffff008       __ehhandler$??0?$_Tree@V?$_Tmap_traits@PADUtextStruct@@U?$less@PAD@std@@V?$allocator@U?$pair@QADUtextStruct@@@std@@@3@$0A@@std@@@std@@QAE@ABV01@@Z 60800008 f   NMS_SceneRenderer.obj
 0001:fffff008       __ehhandler$?_Insert@?$list@TSDL_Event@@V?$allocator@TSDL_Event@@@std@@@std@@QAEXV?$_Const_iterator@$00@12@ABTSDL_Event@@@Z 60800008 f   NMS_Framework.obj
 0001:fffff008       __unwindfunclet$??$_Uninit_copy@V?$_Vector_const_iterator@PAVSceneGraphNode@@V?$allocator@PAVSceneGraphNode@@@std@@@std@@PAPAVSceneGraphNode@@V?$allocator@PAVSceneGraphNode@@@2@@std@@YAPAPAVSceneGraphNode@@V?$_Vector_const_iterator@PAVSceneGraphNode@@V?$allocator@PAVSceneGraphNode@@@std@@@0@0PAPAV1@AAV?$allocator@PAVSceneGraphNode@@@0@U_Scalar_ptr_iterator_tag@0@U_Range_checked_iterator_tag@0@@Z$1 60800008 f   NMS_SceneRenderer.obj
 0001:fffff008       __ehhandler$??0TransformationNode@@QAE@ABV0@@Z 60800008 f   NMS_SceneGraph.obj
 0001:fffff008       __unwindfunclet$??$_Uninit_copy@V?$_Vector_const_iterator@PAVSceneGraphNode@@V?$allocator@PAVSceneGraphNode@@@std@@@std@@PAPAVSceneGraphNode@@V?$allocator@PAVSceneGraphNode@@@2@@std@@YAPAPAVSceneGraphNode@@V?$_Vector_const_iterator@PAVSceneGraphNode@@V?$allocator@PAVSceneGraphNode@@@std@@@0@0PAPAV1@AAV?$allocator@PAVSceneGraphNode@@@0@U_Scalar_ptr_iterator_tag@0@U_Range_checked_iterator_tag@0@@Z$1 60800008 f   NMS_Engine.obj
 0001:fffff008       __unwindfunclet$??0?$vector@PAVSceneGraphNode@@V?$allocator@PAVSceneGraphNode@@@std@@@std@@QAE@ABV01@@Z$3 60800008 f   NMS_SceneRenderer.obj
 0001:fffff008       __unwindfunclet$??$_Debug_range@V?$_Vector_const_iterator@PAVSceneGraphNode@@V?$allocator@PAVSceneGraphNode@@@std@@@std@@@std@@YAXV?$_Vector_const_iterator@PAVSceneGraphNode@@V?$allocator@PAVSceneGraphNode@@@std@@@0@0PB_WI@Z$1 60800008 f   NMS_Engine.obj
 0001:fffff008       __ehhandler$??1sentry@?$basic_ostream@DU?$char_traits@D@std@@@std@@QAE@XZ 60800008 f   NMS_Thread.obj
 0001:fffff008       __unwindfunclet$?_Make_iter@?$_Tree@V?$_Tmap_traits@PADUtextStruct@@U?$less@PAD@std@@V?$allocator@U?$pair@QADUtextStruct@@@std@@@3@$0A@@std@@@std@@QBE?AViterator@12@Vconst_iterator@12@@Z$1 60800008 f   NMS_SceneGraph.obj
 0001:fffff008       __ehhandler$??0sentry@?$basic_ostream@DU?$char_traits@D@std@@@std@@QAE@AAV12@@Z 60800008 f   NMS_Thread.obj
 0001:fffff008       __ehhandler$??1?$vector@PAVSceneGraphNode@@V?$allocator@PAVSceneGraphNode@@@std@@@std@@QAE@XZ 60800008 f   NMS_SceneRenderer.obj
 0001:fffff008       __ehhandler$??$?6U?$char_traits@D@std@@@std@@YAAAV?$basic_ostream@DU?$char_traits@D@std@@@0@AAV10@PBD@Z 60800008 f   NMS_Thread.obj
 0001:fffff008       __unwindfunclet$?erase@?$list@TSDL_Event@@V?$allocator@TSDL_Event@@@std@@@std@@QAE?AV?$_Iterator@$00@12@V?$_Const_iterator@$00@12@@Z$1 60800008 f   NMS_Framework.obj
 0001:fffff008       __unwindfunclet$??0?$list@TSDL_Event@@V?$allocator@TSDL_Event@@@std@@@std@@QAE@ABV01@@Z$3 60800008 f   NMS_SceneRenderer.obj
 0001:fffff008       __unwindfunclet$?_Make_iter@?$list@TSDL_Event@@V?$allocator@TSDL_Event@@@std@@@std@@QBE?AV?$_Iterator@$00@12@V?$_Const_iterator@$00@12@@Z$1 60800008 f   NMS_Framework.obj
 0001:fffff008       __unwindfunclet$??$_Debug_range2@V?$_Vector_const_iterator@PAVSceneGraphNode@@V?$allocator@PAVSceneGraphNode@@@std@@@std@@@std@@YAXV?$_Vector_const_iterator@PAVSceneGraphNode@@V?$allocator@PAVSceneGraphNode@@@std@@@0@0PB_WIUrandom_access_iterator_tag@0@@Z$1 60800008 f   NMS_Engine.obj
 0001:fffff008       __ehhandler$??0?$_Tree@V?$_Tmap_traits@PADUtextStruct@@U?$less@PAD@std@@V?$allocator@U?$pair@QADUtextStruct@@@std@@@3@$0A@@std@@@std@@QAE@ABV01@@Z 60800008 f   NMS_Camera.obj
 0001:fffff008       __unwindfunclet$?_Make_iter@?$_Tree@V?$_Tmap_traits@PADUtextStruct@@U?$less@PAD@std@@V?$allocator@U?$pair@QADUtextStruct@@@std@@@3@$0A@@std@@@std@@QBE?AViterator@12@Vconst_iterator@12@@Z$1 60800008 f   NMS_Engine.obj
 0001:fffff008       __ehhandler$??1?$list@TSDL_Event@@V?$allocator@TSDL_Event@@@std@@@std@@QAE@XZ 60800008 f   NMS_SceneRenderer.obj
 0001:fffff008       __unwindfunclet$??Econst_iterator@?$_Tree@V?$_Tmap_traits@PADUtextStruct@@U?$less@PAD@std@@V?$allocator@U?$pair@QADUtextStruct@@@std@@@3@$0A@@std@@@std@@QAE?AV012@H@Z$1 60800008 f   NMS_SceneGraph.obj
 0001:fffff008       __unwindfunclet$??E?$_Const_iterator@$00@?$list@TSDL_Event@@V?$allocator@TSDL_Event@@@std@@@std@@QAE?AV012@H@Z$1 60800008 f   NMS_Framework.obj
 0001:fffff008       __unwindfunclet$?erase@?$vector@PAVSceneGraphNode@@V?$allocator@PAVSceneGraphNode@@@std@@@std@@QAE?AV?$_Vector_iterator@PAVSceneGraphNode@@V?$allocator@PAVSceneGraphNode@@@std@@@2@V?$_Vector_const_iterator@PAVSceneGraphNode@@V?$allocator@PAVSceneGraphNode@@@std@@@2@0@Z$1 60800008 f   NMS_Framework.obj
 0001:fffff008       __ehhandler$??1LightSource@@QAE@XZ 60800008 f   NMS_LightSystem.obj
 0001:fffff008       __unwindfunclet$??E?$_Const_iterator@$00@?$list@TSDL_Event@@V?$allocator@TSDL_Event@@@std@@@std@@QAE?AV012@H@Z$1 60800008 f   NMS_SceneRenderer.obj
 0001:fffff008       __ehhandler$??0TransformationNode@@QAE@ABV0@@Z 60800008 f   NMS_Engine.obj
 0001:fffff008       __unwindfunclet$?erase@?$_Tree@V?$_Tmap_traits@PADUtextStruct@@U?$less@PAD@std@@V?$allocator@U?$pair@QADUtextStruct@@@std@@@3@$0A@@std@@@std@@QAE?AViterator@12@Vconst_iterator@12@0@Z$1 60800008 f   NMS_Camera.obj
 0001:fffff008       __unwindfunclet$??$_Debug_range@V?$_Const_iterator@$00@?$list@TSDL_Event@@V?$allocator@TSDL_Event@@@std@@@std@@@std@@YAXV?$_Const_iterator@$00@?$list@TSDL_Event@@V?$allocator@TSDL_Event@@@std@@@0@0PB_WI@Z$1 60800008 f   NMS_Framework.obj
 0001:fffff008       __ehhandler$??1LightSource@@QAE@XZ 60800008 f   NMS_Framework.obj
 0001:fffff008       __unwindfunclet$??1NMS_Event@@QAE@XZ$1 60800008 f   NMS_Framework.obj
 0001:fffff008       __ehhandler$??0?$_Vector_const_iterator@PAVSceneGraphNode@@V?$allocator@PAVSceneGraphNode@@@std@@@std@@QAE@PAPAVSceneGraphNode@@PBV_Container_base_secure@1@@Z 60800008 f   NMS_SceneGraph.obj
 0001:fffff008       __unwindfunclet$?_Make_iter@?$_Tree@V?$_Tmap_traits@PADUtextStruct@@U?$less@PAD@std@@V?$allocator@U?$pair@QADUtextStruct@@@std@@@3@$0A@@std@@@std@@QBE?AViterator@12@Vconst_iterator@12@@Z$1 60800008 f   NMS_Camera.obj
 0001:fffff008       __unwindfunclet$??$_Uninit_copy@V?$_Vector_const_iterator@PAVSceneGraphNode@@V?$allocator@PAVSceneGraphNode@@@std@@@std@@PAPAVSceneGraphNode@@V?$allocator@PAVSceneGraphNode@@@2@@std@@YAPAPAVSceneGraphNode@@V?$_Vector_const_iterator@PAVSceneGraphNode@@V?$allocator@PAVSceneGraphNode@@@std@@@0@0PAPAV1@AAV?$allocator@PAVSceneGraphNode@@@0@U_Scalar_ptr_iterator_tag@0@U_Range_checked_iterator_tag@0@@Z$1 60800008 f   NMS_Framework.obj
 0001:fffff008       __ehhandler$??1?$vector@PAVSceneGraphNode@@V?$allocator@PAVSceneGraphNode@@@std@@@std@@QAE@XZ 60800008 f   NMS_Engine.obj
 0001:fffff008       __unwindfunclet$?erase@?$_Tree@V?$_Tmap_traits@PADUtextStruct@@U?$less@PAD@std@@V?$allocator@U?$pair@QADUtextStruct@@@std@@@3@$0A@@std@@@std@@QAE?AViterator@12@Vconst_iterator@12@@Z$2 60800008 f   NMS_Camera.obj
 0001:fffff008       __ehhandler$??$_Debug_range2@V?$_Const_iterator@$00@?$list@TSDL_Event@@V?$allocator@TSDL_Event@@@std@@@std@@@std@@YAXV?$_Const_iterator@$00@?$list@TSDL_Event@@V?$allocator@TSDL_Event@@@std@@@0@0PB_WIUinput_iterator_tag@0@@Z 60800008 f   NMS_Framework.obj
 0001:fffff008       __unwindfunclet$??0?$vector@PAVSceneGraphNode@@V?$allocator@PAVSceneGraphNode@@@std@@@std@@QAE@ABV01@@Z$3 60800008 f   NMS_Engine.obj
 0001:fffff008       __unwindfunclet$?erase@?$_Tree@V?$_Tmap_traits@PADUtextStruct@@U?$less@PAD@std@@V?$allocator@U?$pair@QADUtextStruct@@@std@@@3@$0A@@std@@@std@@QAE?AViterator@12@Vconst_iterator@12@0@Z$1 60800008 f   NMS_SceneRenderer.obj
 0001:fffff008       __unwindfunclet$??Econst_iterator@?$_Tree@V?$_Tmap_traits@PADUtextStruct@@U?$less@PAD@std@@V?$allocator@U?$pair@QADUtextStruct@@@std@@@3@$0A@@std@@@std@@QAE?AV012@H@Z$1 60800008 f   NMS_Camera.obj
 0001:fffff008       __unwindfunclet$?erase@?$_Tree@V?$_Tmap_traits@PADUtextStruct@@U?$less@PAD@std@@V?$allocator@U?$pair@QADUtextStruct@@@std@@@3@$0A@@std@@@std@@QAE?AViterator@12@Vconst_iterator@12@@Z$2 60800008 f   NMS_Framework.obj
 0001:fffff008       __unwindfunclet$??$_Debug_range@V?$_Vector_const_iterator@PAVSceneGraphNode@@V?$allocator@PAVSceneGraphNode@@@std@@@std@@@std@@YAXV?$_Vector_const_iterator@PAVSceneGraphNode@@V?$allocator@PAVSceneGraphNode@@@std@@@0@0PB_WI@Z$1 60800008 f   NMS_Framework.obj
 0001:fffff008       __ehhandler$??0const_iterator@?$_Tree@V?$_Tmap_traits@PADUtextStruct@@U?$less@PAD@std@@V?$allocator@U?$pair@QADUtextStruct@@@std@@@3@$0A@@std@@@std@@QAE@PAU_Node@?$_Tree_nod@V?$_Tmap_traits@PADUtextStruct@@U?$less@PAD@std@@V?$allocator@U?$pair@QADUtextStruct@@@std@@@3@$0A@@std@@@2@PBV12@@Z 60800008 f   NMS_Camera.obj
 0001:fffff008       __ehhandler$??0?$_Tree@V?$_Tmap_traits@PADUtextStruct@@U?$less@PAD@std@@V?$allocator@U?$pair@QADUtextStruct@@@std@@@3@$0A@@std@@@std@@QAE@ABV01@@Z 60800008 f   NMS_AssetManager.obj
 0001:fffff008       __unwindfunclet$?_Make_iter@?$_Tree@V?$_Tmap_traits@PADUtextStruct@@U?$less@PAD@std@@V?$allocator@U?$pair@QADUtextStruct@@@std@@@3@$0A@@std@@@std@@QBE?AViterator@12@Vconst_iterator@12@@Z$1 60800008 f   NMS_Framework.obj
 0001:fffff008       __unwindfunclet$??$_Debug_range2@V?$_Vector_const_iterator@PAVSceneGraphNode@@V?$allocator@PAVSceneGraphNode@@@std@@@std@@@std@@YAXV?$_Vector_const_iterator@PAVSceneGraphNode@@V?$allocator@PAVSceneGraphNode@@@std@@@0@0PB_WIUrandom_access_iterator_tag@0@@Z$1 60800008 f   NMS_Framework.obj
 0001:fffff008       __unwindfunclet$?_Make_iter@?$vector@PAVSceneGraphNode@@V?$allocator@PAVSceneGraphNode@@@std@@@std@@QBE?AV?$_Vector_iterator@PAVSceneGraphNode@@V?$allocator@PAVSceneGraphNode@@@std@@@2@V?$_Vector_const_iterator@PAVSceneGraphNode@@V?$allocator@PAVSceneGraphNode@@@std@@@2@@Z$1 60800008 f   NMS_SceneGraph.obj
 0001:fffff008       __unwindfunclet$??1NMSCameraController@@QAE@XZ$1 60800008 f   NMS_Framework.obj
 0001:fffff008       __unwindfunclet$?erase@?$_Tree@V?$_Tmap_traits@PADUtextStruct@@U?$less@PAD@std@@V?$allocator@U?$pair@QADUtextStruct@@@std@@@3@$0A@@std@@@std@@QAE?AViterator@12@Vconst_iterator@12@0@Z$1 60800008 f   NMS_AssetManager.obj
 0001:fffff008       __ehhandler$??0?$_Tree@V?$_Tmap_traits@PADUtextStruct@@U?$less@PAD@std@@V?$allocator@U?$pair@QADUtextStruct@@@std@@@3@$0A@@std@@@std@@QAE@ABV01@@Z 60800008 f   NMS_Framework.obj
 0001:fffff008       __unwindfunclet$??1NMS_Event@@QAE@XZ$1 60800008 f   NMS_Event.obj
 0001:fffff008       __unwindfunclet$?_Make_iter@?$_Tree@V?$_Tmap_traits@PADUtextStruct@@U?$less@PAD@std@@V?$allocator@U?$pair@QADUtextStruct@@@std@@@3@$0A@@std@@@std@@QBE?AViterator@12@Vconst_iterator@12@@Z$1 60800008 f   NMS_AssetManager.obj
 0001:fffff008       __unwindfunclet$?_Make_iter@?$_Tree@V?$_Tmap_traits@PADUtextStruct@@U?$less@PAD@std@@V?$allocator@U?$pair@QADUtextStruct@@@std@@@3@$0A@@std@@@std@@QBE?AViterator@12@Vconst_iterator@12@@Z$1 60800008 f   NMS_SceneRenderer.obj
 0001:fffff008       __unwindfunclet$??0NMS_Event@@QAE@ABV0@@Z$1 60800008 f   NMS_Event.obj
 0001:fffff008       __unwindfunclet$?erase@?$_Tree@V?$_Tmap_traits@PADUtextStruct@@U?$less@PAD@std@@V?$allocator@U?$pair@QADUtextStruct@@@std@@@3@$0A@@std@@@std@@QAE?AViterator@12@Vconst_iterator@12@@Z$2 60800008 f   NMS_AssetManager.obj
 0001:fffff008       __unwindfunclet$?erase@?$_Tree@V?$_Tmap_traits@PADUtextStruct@@U?$less@PAD@std@@V?$allocator@U?$pair@QADUtextStruct@@@std@@@3@$0A@@std@@@std@@QAE?AViterator@12@Vconst_iterator@12@@Z$2 60800008 f   NMS_SceneRenderer.obj
 0001:fffff008       __unwindfunclet$??$_Debug_range@V?$_Const_iterator@$00@?$list@TSDL_Event@@V?$allocator@TSDL_Event@@@std@@@std@@@std@@YAXV?$_Const_iterator@$00@?$list@TSDL_Event@@V?$allocator@TSDL_Event@@@std@@@0@0PB_WI@Z$1 60800008 f   NMS_Event.obj
 0001:fffff008       __unwindfunclet$??Econst_iterator@?$_Tree@V?$_Tmap_traits@PADUtextStruct@@U?$less@PAD@std@@V?$allocator@U?$pair@QADUtextStruct@@@std@@@3@$0A@@std@@@std@@QAE?AV012@H@Z$1 60800008 f   NMS_AssetManager.obj
 0001:fffff008       __unwindfunclet$?erase@?$_Tree@V?$_Tmap_traits@PADUtextStruct@@U?$less@PAD@std@@V?$allocator@U?$pair@QADUtextStruct@@@std@@@3@$0A@@std@@@std@@QAE?AViterator@12@Vconst_iterator@12@0@Z$1 60800008 f   NMS_Engine.obj
 0001:fffff008       __ehhandler$??0const_iterator@?$_Tree@V?$_Tmap_traits@PADUtextStruct@@U?$less@PAD@std@@V?$allocator@U?$pair@QADUtextStruct@@@std@@@3@$0A@@std@@@std@@QAE@PAU_Node@?$_Tree_nod@V?$_Tmap_traits@PADUtextStruct@@U?$less@PAD@std@@V?$allocator@U?$pair@QADUtextStruct@@@std@@@3@$0A@@std@@@2@PBV12@@Z 60800008 f   NMS_SceneGraph.obj
 0001:fffff008       __ehhandler$??0const_iterator@?$_Tree@V?$_Tmap_traits@PADUtextStruct@@U?$less@PAD@std@@V?$allocator@U?$pair@QADUtextStruct@@@std@@@3@$0A@@std@@@std@@QAE@PAU_Node@?$_Tree_nod@V?$_Tmap_traits@PADUtextStruct@@U?$less@PAD@std@@V?$allocator@U?$pair@QADUtextStruct@@@std@@@3@$0A@@std@@@2@PBV12@@Z 60800008 f   NMS_AssetManager.obj
 0001:fffff008       __unwindfunclet$??$_Assign@V?$_Const_iterator@$00@?$list@TSDL_Event@@V?$allocator@TSDL_Event@@@std@@@std@@@?$list@TSDL_Event@@V?$allocator@TSDL_Event@@@std@@@std@@QAEXV?$_Const_iterator@$00@01@0Uinput_iterator_tag@1@@Z$1 60800008 f   NMS_Event.obj
 0001:fffff008       __unwindfunclet$?erase@?$_Tree@V?$_Tmap_traits@PADUtextStruct@@U?$less@PAD@std@@V?$allocator@U?$pair@QADUtextStruct@@@std@@@3@$0A@@std@@@std@@QAE?AViterator@12@Vconst_iterator@12@0@Z$1 60800008 f   NMS_Framework.obj
 0001:fffff008       __unwindfunclet$?_Make_iter@?$list@TSDL_Event@@V?$allocator@TSDL_Event@@@std@@@std@@QBE?AV?$_Iterator@$00@12@V?$_Const_iterator@$00@12@@Z$1 60800008 f   NMS_SceneRenderer.obj
 0001:fffff008       __ehhandler$??0?$_Tree@V?$_Tmap_traits@PADUtextStruct@@U?$less@PAD@std@@V?$allocator@U?$pair@QADUtextStruct@@@std@@@3@$0A@@std@@@std@@QAE@ABV01@@Z 60800008 f   MD2Model.obj
 0001:fffff008       __unwindfunclet$?erase@?$vector@PAVSceneGraphNode@@V?$allocator@PAVSceneGraphNode@@@std@@@std@@QAE?AV?$_Vector_iterator@PAVSceneGraphNode@@V?$allocator@PAVSceneGraphNode@@@std@@@2@V?$_Vector_const_iterator@PAVSceneGraphNode@@V?$allocator@PAVSceneGraphNode@@@std@@@2@0@Z$1 60800008 f   NMS_SceneRenderer.obj
 0001:fffff008       __unwindfunclet$??0?$list@TSDL_Event@@V?$allocator@TSDL_Event@@@std@@@std@@QAE@ABV01@@Z$3 60800008 f   NMS_Event.obj
 0001:fffff008       __unwindfunclet$??0NMSCameraController@@QAE@XZ$1 60800008 f   NMS_Framework.obj
 0001:fffff008       __unwindfunclet$??$_Ucopy@V?$_Vector_const_iterator@PAVSceneGraphNode@@V?$allocator@PAVSceneGraphNode@@@std@@@std@@@?$vector@PAVSceneGraphNode@@V?$allocator@PAVSceneGraphNode@@@std@@@std@@IAEPAPAVSceneGraphNode@@V?$_Vector_const_iterator@PAVSceneGraphNode@@V?$allocator@PAVSceneGraphNode@@@std@@@1@0PAPAV2@@Z$1 60800008 f   NMS_SceneGraph.obj
 0001:fffff008       __unwindfunclet$??$_Debug_range2@V?$_Vector_const_iterator@PAVSceneGraphNode@@V?$allocator@PAVSceneGraphNode@@@std@@@std@@@std@@YAXV?$_Vector_const_iterator@PAVSceneGraphNode@@V?$allocator@PAVSceneGraphNode@@@std@@@0@0PB_WIUrandom_access_iterator_tag@0@@Z$1 60800008 f   NMS_SceneGraph.obj
 0001:fffff008       __ehhandler$??1?$list@TSDL_Event@@V?$allocator@TSDL_Event@@@std@@@std@@QAE@XZ 60800008 f   NMS_Event.obj
 0001:fffff008       __ehhandler$??0?$_Tree@V?$_Tmap_traits@PADUtextStruct@@U?$less@PAD@std@@V?$allocator@U?$pair@QADUtextStruct@@@std@@@3@$0A@@std@@@std@@QAE@ABV01@@Z 60800008 f   NMS_SceneGraph.obj
 0001:fffff008       __unwindfunclet$?erase@?$_Tree@V?$_Tmap_traits@PADUtextStruct@@U?$less@PAD@std@@V?$allocator@U?$pair@QADUtextStruct@@@std@@@3@$0A@@std@@@std@@QAE?AViterator@12@Vconst_iterator@12@0@Z$1 60800008 f   MD2Model.obj
 0001:fffff008       __unwindfunclet$??0NMS_Event@@QAE@ABV0@@Z$1 60800008 f   NMS_Framework.obj
 0001:fffff008       __unwindfunclet$??Econst_iterator@?$_Tree@V?$_Tmap_traits@PADUtextStruct@@U?$less@PAD@std@@V?$allocator@U?$pair@QADUtextStruct@@@std@@@3@$0A@@std@@@std@@QAE?AV012@H@Z$1 60800008 f   NMS_SceneRenderer.obj
 0001:fffff008       __ehhandler$??1?$vector@PAVSceneGraphNode@@V?$allocator@PAVSceneGraphNode@@@std@@@std@@QAE@XZ 60800008 f   NMS_SceneGraph.obj
 0001:fffff008       __ehhandler$??0TransformationNode@@QAE@ABV0@@Z 60800008 f   NMS_Framework.obj
 0001:fffff008       __unwindfunclet$?_Make_iter@?$_Tree@V?$_Tmap_traits@PADUtextStruct@@U?$less@PAD@std@@V?$allocator@U?$pair@QADUtextStruct@@@std@@@3@$0A@@std@@@std@@QBE?AViterator@12@Vconst_iterator@12@@Z$1 60800008 f   MD2Model.obj
 0001:fffff008       __ehhandler$??0?$_Vector_const_iterator@PAVSceneGraphNode@@V?$allocator@PAVSceneGraphNode@@@std@@@std@@QAE@PAPAVSceneGraphNode@@PBV_Container_base_secure@1@@Z 60800008 f   NMS_SceneRenderer.obj
 0001:fffff008       __unwindfunclet$??$_Insert@V?$_Const_iterator@$00@?$list@TSDL_Event@@V?$allocator@TSDL_Event@@@std@@@std@@@?$list@TSDL_Event@@V?$allocator@TSDL_Event@@@std@@@std@@QAEXV?$_Const_iterator@$00@01@00Uforward_iterator_tag@1@@Z$3 60800008 f   NMS_Event.obj
 0001:fffff008       __ehhandler$??0?$_Const_iterator@$00@?$list@TSDL_Event@@V?$allocator@TSDL_Event@@@std@@@std@@QAE@PAU_Node@?$_List_nod@TSDL_Event@@V?$allocator@TSDL_Event@@@std@@@2@PBV12@@Z 60800008 f   NMS_SceneRenderer.obj
 0001:fffff008       __unwindfunclet$?erase@?$_Tree@V?$_Tmap_traits@PADUtextStruct@@U?$less@PAD@std@@V?$allocator@U?$pair@QADUtextStruct@@@std@@@3@$0A@@std@@@std@@QAE?AViterator@12@Vconst_iterator@12@@Z$2 60800008 f   MD2Model.obj
 0001:fffff008       __unwindfunclet$??Econst_iterator@?$_Tree@V?$_Tmap_traits@PADUtextStruct@@U?$less@PAD@std@@V?$allocator@U?$pair@QADUtextStruct@@@std@@@3@$0A@@std@@@std@@QAE?AV012@H@Z$1 60800008 f   MD2Model.obj
 0001:fffff008       __unwindfunclet$?erase@?$_Tree@V?$_Tmap_traits@PADUtextStruct@@U?$less@PAD@std@@V?$allocator@U?$pair@QADUtextStruct@@@std@@@3@$0A@@std@@@std@@QAE?AViterator@12@Vconst_iterator@12@0@Z$1 60800008 f   NMS_SceneGraph.obj
 0001:fffff008       __unwindfunclet$?_Make_iter@?$vector@PAVSceneGraphNode@@V?$allocator@PAVSceneGraphNode@@@std@@@std@@QBE?AV?$_Vector_iterator@PAVSceneGraphNode@@V?$allocator@PAVSceneGraphNode@@@std@@@2@V?$_Vector_const_iterator@PAVSceneGraphNode@@V?$allocator@PAVSceneGraphNode@@@std@@@2@@Z$1 60800008 f   NMS_SceneRenderer.obj
 0001:fffff008       __unwindfunclet$??$unchecked_uninitialized_copy@V?$_Vector_const_iterator@PAVSceneGraphNode@@V?$allocator@PAVSceneGraphNode@@@std@@@std@@PAPAVSceneGraphNode@@V?$allocator@PAVSceneGraphNode@@@2@@stdext@@YAPAPAVSceneGraphNode@@V?$_Vector_const_iterator@PAVSceneGraphNode@@V?$allocator@PAVSceneGraphNode@@@std@@@std@@0PAPAV1@AAV?$allocator@PAVSceneGraphNode@@@3@@Z$1 60800008 f   NMS_SceneGraph.obj
 0001:fffff008       __ehhandler$??0const_iterator@?$_Tree@V?$_Tmap_traits@PADUtextStruct@@U?$less@PAD@std@@V?$allocator@U?$pair@QADUtextStruct@@@std@@@3@$0A@@std@@@std@@QAE@PAU_Node@?$_Tree_nod@V?$_Tmap_traits@PADUtextStruct@@U?$less@PAD@std@@V?$allocator@U?$pair@QADUtextStruct@@@std@@@3@$0A@@std@@@2@PBV12@@Z 60800008 f   MD2Model.obj
 0001:fffff008       __ehhandler$?_Insert@?$list@TSDL_Event@@V?$allocator@TSDL_Event@@@std@@@std@@QAEXV?$_Const_iterator@$00@12@ABTSDL_Event@@@Z 60800008 f   NMS_Event.obj
 0001:fffff008       __ehhandler$??0const_iterator@?$_Tree@V?$_Tmap_traits@PADUtextStruct@@U?$less@PAD@std@@V?$allocator@U?$pair@QADUtextStruct@@@std@@@3@$0A@@std@@@std@@QAE@PAU_Node@?$_Tree_nod@V?$_Tmap_traits@PADUtextStruct@@U?$less@PAD@std@@V?$allocator@U?$pair@QADUtextStruct@@@std@@@3@$0A@@std@@@2@PBV12@@Z 60800008 f   NMS_SceneRenderer.obj
 0001:fffff008       __unwindfunclet$?erase@?$list@TSDL_Event@@V?$allocator@TSDL_Event@@@std@@@std@@QAE?AV?$_Iterator@$00@12@V?$_Const_iterator@$00@12@@Z$1 60800008 f   NMS_SceneRenderer.obj
 0001:fffff008       __unwindfunclet$??$_Uninit_copy@V?$_Vector_const_iterator@PAVSceneGraphNode@@V?$allocator@PAVSceneGraphNode@@@std@@@std@@PAPAVSceneGraphNode@@V?$allocator@PAVSceneGraphNode@@@2@@std@@YAPAPAVSceneGraphNode@@V?$_Vector_const_iterator@PAVSceneGraphNode@@V?$allocator@PAVSceneGraphNode@@@std@@@0@0PAPAV1@AAV?$allocator@PAVSceneGraphNode@@@0@U_Scalar_ptr_iterator_tag@0@U_Range_checked_iterator_tag@0@@Z$1 60800008 f   NMS_SceneGraph.obj
 0001:fffff008       __unwindfunclet$?erase@?$list@TSDL_Event@@V?$allocator@TSDL_Event@@@std@@@std@@QAE?AV?$_Iterator@$00@12@V?$_Const_iterator@$00@12@@Z$1 60800008 f   NMS_Event.obj
 0001:fffff008       __unwindfunclet$?_Make_iter@?$list@TSDL_Event@@V?$allocator@TSDL_Event@@@std@@@std@@QBE?AV?$_Iterator@$00@12@V?$_Const_iterator@$00@12@@Z$1 60800008 f   NMS_Event.obj
 0001:fffff008       __ehhandler$??1?$vector@PAVSceneGraphNode@@V?$allocator@PAVSceneGraphNode@@@std@@@std@@QAE@XZ 60800008 f   NMS_Framework.obj
 0001:fffff008       __unwindfunclet$??$_Debug_range@V?$_Vector_const_iterator@PAVSceneGraphNode@@V?$allocator@PAVSceneGraphNode@@@std@@@std@@@std@@YAXV?$_Vector_const_iterator@PAVSceneGraphNode@@V?$allocator@PAVSceneGraphNode@@@std@@@0@0PB_WI@Z$1 60800008 f   NMS_SceneGraph.obj
 0001:fffff008       __ehhandler$??0?$_Const_iterator@$00@?$list@TSDL_Event@@V?$allocator@TSDL_Event@@@std@@@std@@QAE@PAU_Node@?$_List_nod@TSDL_Event@@V?$allocator@TSDL_Event@@@std@@@2@PBV12@@Z 60800008 f   NMS_Event.obj
 0001:fffff008       __unwindfunclet$??$_Ucopy@V?$_Vector_const_iterator@PAVSceneGraphNode@@V?$allocator@PAVSceneGraphNode@@@std@@@std@@@?$vector@PAVSceneGraphNode@@V?$allocator@PAVSceneGraphNode@@@std@@@std@@IAEPAPAVSceneGraphNode@@V?$_Vector_const_iterator@PAVSceneGraphNode@@V?$allocator@PAVSceneGraphNode@@@std@@@1@0PAPAV2@@Z$1 60800008 f   NMS_SceneRenderer.obj
 0001:fffff008       __unwindfunclet$??E?$_Const_iterator@$00@?$list@TSDL_Event@@V?$allocator@TSDL_Event@@@std@@@std@@QAE?AV012@H@Z$1 60800008 f   NMS_Event.obj
 0001:fffff008       __unwindfunclet$??$assign@V?$_Const_iterator@$00@?$list@TSDL_Event@@V?$allocator@TSDL_Event@@@std@@@std@@@?$list@TSDL_Event@@V?$allocator@TSDL_Event@@@std@@@std@@QAEXV?$_Const_iterator@$00@01@0@Z$1 60800008 f   NMS_Event.obj
 0001:fffff008       __ehhandler$??$?6U?$char_traits@D@std@@@std@@YAAAV?$basic_ostream@DU?$char_traits@D@std@@@0@AAV10@D@Z 60800008 f   nms_math:Matrix.obj
 0001:fffff008       __ehhandler$??0sentry@?$basic_ostream@DU?$char_traits@D@std@@@std@@QAE@AAV12@@Z 60800008 f   nms_math:Matrix.obj
 0001:fffff008       __ehhandler$?_Insert@?$list@TSDL_Event@@V?$allocator@TSDL_Event@@@std@@@std@@QAEXV?$_Const_iterator@$00@12@ABTSDL_Event@@@Z 60800008 f   NMS_SceneRenderer.obj
 0001:fffff008       __unwindfunclet$??$insert@V?$_Const_iterator@$00@?$list@TSDL_Event@@V?$allocator@TSDL_Event@@@std@@@std@@@?$list@TSDL_Event@@V?$allocator@TSDL_Event@@@std@@@std@@QAEXV?$_Const_iterator@$00@01@00@Z$1 60800008 f   NMS_SceneRenderer.obj
 0001:fffff008       __ehhandler$??1sentry@?$basic_ostream@DU?$char_traits@D@std@@@std@@QAE@XZ 60800008 f   nms_math:Matrix.obj
 0001:fffff008       __unwindfunclet$??0?$vector@PAVSceneGraphNode@@V?$allocator@PAVSceneGraphNode@@@std@@@std@@QAE@ABV01@@Z$3 60800008 f   NMS_Framework.obj
 0001:fffff008       __unwindfunclet$??0?$vector@PAVSceneGraphNode@@V?$allocator@PAVSceneGraphNode@@@std@@@std@@QAE@ABV01@@Z$3 60800008 f   NMS_SceneGraph.obj
 0001:fffff008       __unwindfunclet$??$assign@V?$_Const_iterator@$00@?$list@TSDL_Event@@V?$allocator@TSDL_Event@@@std@@@std@@@?$list@TSDL_Event@@V?$allocator@TSDL_Event@@@std@@@std@@QAEXV?$_Const_iterator@$00@01@0@Z$1 60800008 f   NMS_SceneRenderer.obj
 0001:fffff008       __ehhandler$??$?6U?$char_traits@D@std@@@std@@YAAAV?$basic_ostream@DU?$char_traits@D@std@@@0@AAV10@PBD@Z 60800008 f   nms_math:Matrix.obj
 0001:fffff008       __ehhandler$??$?6U?$char_traits@D@std@@@std@@YAAAV?$basic_ostream@DU?$char_traits@D@std@@@0@AAV10@PBD@Z 60800008 f   nms_math:Point.obj
 0001:fffff008       __ehhandler$??0sentry@?$basic_ostream@DU?$char_traits@D@std@@@std@@QAE@AAV12@@Z 60800008 f   nms_math:Point.obj
 0001:fffff008       __unwindfunclet$??$unchecked_uninitialized_copy@V?$_Vector_const_iterator@PAVSceneGraphNode@@V?$allocator@PAVSceneGraphNode@@@std@@@std@@PAPAVSceneGraphNode@@V?$allocator@PAVSceneGraphNode@@@2@@stdext@@YAPAPAVSceneGraphNode@@V?$_Vector_const_iterator@PAVSceneGraphNode@@V?$allocator@PAVSceneGraphNode@@@std@@@std@@0PAPAV1@AAV?$allocator@PAVSceneGraphNode@@@3@@Z$1 60800008 f   NMS_SceneRenderer.obj
 0001:fffff008       __ehhandler$??1sentry@?$basic_ostream@DU?$char_traits@D@std@@@std@@QAE@XZ 60800008 f   nms_math:Point.obj
 0001:fffff008       __unwindfunclet$??$insert@V?$_Const_iterator@$00@?$list@TSDL_Event@@V?$allocator@TSDL_Event@@@std@@@std@@@?$list@TSDL_Event@@V?$allocator@TSDL_Event@@@std@@@std@@QAEXV?$_Const_iterator@$00@01@00@Z$1 60800008 f   NMS_Event.obj
 0001:fffff008       __ehhandler$??$?6U?$char_traits@D@std@@@std@@YAAAV?$basic_ostream@DU?$char_traits@D@std@@@0@AAV10@D@Z 60800008 f   nms_math:Point.obj
 0001:fffff008       __ehhandler$??$?6U?$char_traits@D@std@@@std@@YAAAV?$basic_ostream@DU?$char_traits@D@std@@@0@AAV10@PBD@Z 60800008 f   nms_math:Vector.obj
 0001:fffff008       __ehhandler$??0sentry@?$basic_ostream@DU?$char_traits@D@std@@@std@@QAE@AAV12@@Z 60800008 f   nms_math:Vector.obj
 0001:fffff008       __unwindfunclet$??$_Assign@V?$_Const_iterator@$00@?$list@TSDL_Event@@V?$allocator@TSDL_Event@@@std@@@std@@@?$list@TSDL_Event@@V?$allocator@TSDL_Event@@@std@@@std@@QAEXV?$_Const_iterator@$00@01@0Uinput_iterator_tag@1@@Z$1 60800008 f   NMS_SceneRenderer.obj
 0001:fffff008       __unwindfunclet$??$_Insert@V?$_Const_iterator@$00@?$list@TSDL_Event@@V?$allocator@TSDL_Event@@@std@@@std@@@?$list@TSDL_Event@@V?$allocator@TSDL_Event@@@std@@@std@@QAEXV?$_Const_iterator@$00@01@00Uforward_iterator_tag@1@@Z$3 60800008 f   NMS_SceneRenderer.obj
 0001:fffff008       __ehhandler$??1sentry@?$basic_ostream@DU?$char_traits@D@std@@@std@@QAE@XZ 60800008 f   nms_math:Vector.obj
 0001:fffff008       __ehhandler$??1?$list@TSDL_Event@@V?$allocator@TSDL_Event@@@std@@@std@@QAE@XZ 60800008 f   NMS_Framework.obj
 0001:fffff008       __unwindfunclet$?erase@?$_Tree@V?$_Tmap_traits@PADUtextStruct@@U?$less@PAD@std@@V?$allocator@U?$pair@QADUtextStruct@@@std@@@3@$0A@@std@@@std@@QAE?AViterator@12@Vconst_iterator@12@@Z$2 60800008 f   NMS_TextureManager.obj
 0001:fffff008       __ehhandler$??1TransformationNode@@QAE@XZ 60800008 f   NMS_SceneRenderer.obj
 0001:fffff008       __unwindfunclet$??0?$list@TSDL_Event@@V?$allocator@TSDL_Event@@@std@@@std@@QAE@ABV01@@Z$3 60800008 f   NMS_Framework.obj
 0001:fffff008       __ehhandler$??1TransformationNode@@QAE@XZ 60800008 f   NMS_Framework.obj
 0001:fffff00b       __unwindfunclet$??4?$_Tree@V?$_Tmap_traits@PADUtextStruct@@U?$less@PAD@std@@V?$allocator@U?$pair@QADUtextStruct@@@std@@@3@$0A@@std@@@std@@QAEAAV01@ABV01@@Z$1 6080000b f   NMS_SceneGraph.obj
 0001:fffff00b       __ehhandler$??4?$list@TSDL_Event@@V?$allocator@TSDL_Event@@@std@@@std@@QAEAAV01@ABV01@@Z 6080000b f   NMS_Framework.obj
 0001:fffff00b       __ehhandler$??4?$list@TSDL_Event@@V?$allocator@TSDL_Event@@@std@@@std@@QAEAAV01@ABV01@@Z 6080000b f   NMS_Event.obj
 0001:fffff00b       __unwindfunclet$??4?$_Tree@V?$_Tmap_traits@PADUtextStruct@@U?$less@PAD@std@@V?$allocator@U?$pair@QADUtextStruct@@@std@@@3@$0A@@std@@@std@@QAEAAV01@ABV01@@Z$1 6080000b f   MD2Model.obj
 0001:fffff00b       __unwindfunclet$?_Tidy@?$_Tree@V?$_Tmap_traits@PADUtextStruct@@U?$less@PAD@std@@V?$allocator@U?$pair@QADUtextStruct@@@std@@@3@$0A@@std@@@std@@IAEXXZ$1 6080000b f   NMS_AssetManager.obj
 0001:fffff00b       __unwindfunclet$?_Tidy@?$_Tree@V?$_Tmap_traits@PADUtextStruct@@U?$less@PAD@std@@V?$allocator@U?$pair@QADUtextStruct@@@std@@@3@$0A@@std@@@std@@IAEXXZ$1 6080000b f   NMS_Engine.obj
 0001:fffff00b       __unwindfunclet$??4?$_Tree@V?$_Tmap_traits@PADUtextStruct@@U?$less@PAD@std@@V?$allocator@U?$pair@QADUtextStruct@@@std@@@3@$0A@@std@@@std@@QAEAAV01@ABV01@@Z$1 6080000b f   NMS_AssetManager.obj
 0001:fffff00b       __unwindfunclet$?_Tidy@?$_Tree@V?$_Tmap_traits@PADUtextStruct@@U?$less@PAD@std@@V?$allocator@U?$pair@QADUtextStruct@@@std@@@3@$0A@@std@@@std@@IAEXXZ$1 6080000b f   NMS_SceneGraph.obj
 0001:fffff00b       __unwindfunclet$?clear@?$vector@PAVSceneGraphNode@@V?$allocator@PAVSceneGraphNode@@@std@@@std@@QAEXXZ$1 6080000b f   NMS_Engine.obj
 0001:fffff00b       __unwindfunclet$?_Tidy@?$_Tree@V?$_Tmap_traits@PADUtextStruct@@U?$less@PAD@std@@V?$allocator@U?$pair@QADUtextStruct@@@std@@@3@$0A@@std@@@std@@IAEXXZ$1 6080000b f   NMS_Camera.obj
 0001:fffff00b       __unwindfunclet$?_Tidy@?$_Tree@V?$_Tmap_traits@PADUtextStruct@@U?$less@PAD@std@@V?$allocator@U?$pair@QADUtextStruct@@@std@@@3@$0A@@std@@@std@@IAEXXZ$1 6080000b f   NMS_Framework.obj
 0001:fffff00b       __unwindfunclet$??4?$_Tree@V?$_Tmap_traits@PADUtextStruct@@U?$less@PAD@std@@V?$allocator@U?$pair@QADUtextStruct@@@std@@@3@$0A@@std@@@std@@QAEAAV01@ABV01@@Z$1 6080000b f   NMS_Framework.obj
 0001:fffff00b       __unwindfunclet$?clear@?$vector@PAVSceneGraphNode@@V?$allocator@PAVSceneGraphNode@@@std@@@std@@QAEXXZ$1 6080000b f   NMS_Framework.obj
 0001:fffff00b       __unwindfunclet$?clear@?$vector@PAVSceneGraphNode@@V?$allocator@PAVSceneGraphNode@@@std@@@std@@QAEXXZ$1 6080000b f   NMS_SceneRenderer.obj
 0001:fffff00b       __unwindfunclet$?_Tidy@?$_Tree@V?$_Tmap_traits@PADUtextStruct@@U?$less@PAD@std@@V?$allocator@U?$pair@QADUtextStruct@@@std@@@3@$0A@@std@@@std@@IAEXXZ$1 6080000b f   NMS_SceneRenderer.obj
 0001:fffff00b       __unwindfunclet$??4?$_Tree@V?$_Tmap_traits@PADUtextStruct@@U?$less@PAD@std@@V?$allocator@U?$pair@QADUtextStruct@@@std@@@3@$0A@@std@@@std@@QAEAAV01@ABV01@@Z$1 6080000b f   NMS_Camera.obj
 0001:fffff00b       __unwindfunclet$??4?$_Tree@V?$_Tmap_traits@PADUtextStruct@@U?$less@PAD@std@@V?$allocator@U?$pair@QADUtextStruct@@@std@@@3@$0A@@std@@@std@@QAEAAV01@ABV01@@Z$1 6080000b f   NMS_Engine.obj
 0001:fffff00b       __ehhandler$??4?$list@TSDL_Event@@V?$allocator@TSDL_Event@@@std@@@std@@QAEAAV01@ABV01@@Z 6080000b f   NMS_SceneRenderer.obj
 0001:fffff00b       __unwindfunclet$?clear@?$vector@PAVSceneGraphNode@@V?$allocator@PAVSceneGraphNode@@@std@@@std@@QAEXXZ$1 6080000b f   NMS_SceneGraph.obj
 0001:fffff00b       __unwindfunclet$??4?$_Tree@V?$_Tmap_traits@PADUtextStruct@@U?$less@PAD@std@@V?$allocator@U?$pair@QADUtextStruct@@@std@@@3@$0A@@std@@@std@@QAEAAV01@ABV01@@Z$1 6080000b f   NMS_TextureManager.obj
 0001:fffff00b       __unwindfunclet$??4?$_Tree@V?$_Tmap_traits@PADUtextStruct@@U?$less@PAD@std@@V?$allocator@U?$pair@QADUtextStruct@@@std@@@3@$0A@@std@@@std@@QAEAAV01@ABV01@@Z$1 6080000b f   NMS_SceneRenderer.obj
 0001:fffff00b       __unwindfunclet$?_Tidy@?$_Tree@V?$_Tmap_traits@PADUtextStruct@@U?$less@PAD@std@@V?$allocator@U?$pair@QADUtextStruct@@@std@@@3@$0A@@std@@@std@@IAEXXZ$1 6080000b f   MD2Model.obj
 0001:fffff00b       __unwindfunclet$?_Tidy@?$_Tree@V?$_Tmap_traits@PADUtextStruct@@U?$less@PAD@std@@V?$allocator@U?$pair@QADUtextStruct@@@std@@@3@$0A@@std@@@std@@IAEXXZ$1 6080000b f   NMS_TextureManager.obj
 0001:fffff010       __unwindfunclet$??$_Debug_range@V?$_Const_iterator@$00@?$list@TSDL_Event@@V?$allocator@TSDL_Event@@@std@@@std@@@std@@YAXV?$_Const_iterator@$00@?$list@TSDL_Event@@V?$allocator@TSDL_Event@@@std@@@0@0PB_WI@Z$2 60800010 f   NMS_SceneRenderer.obj
 0001:fffff010       __unwindfunclet$?erase@?$vector@PAVSceneGraphNode@@V?$allocator@PAVSceneGraphNode@@@std@@@std@@QAE?AV?$_Vector_iterator@PAVSceneGraphNode@@V?$allocator@PAVSceneGraphNode@@@std@@@2@V?$_Vector_const_iterator@PAVSceneGraphNode@@V?$allocator@PAVSceneGraphNode@@@std@@@2@0@Z$3 60800010 f   NMS_Engine.obj
 0001:fffff010       __unwindfunclet$??$assign@V?$_Const_iterator@$00@?$list@TSDL_Event@@V?$allocator@TSDL_Event@@@std@@@std@@@?$list@TSDL_Event@@V?$allocator@TSDL_Event@@@std@@@std@@QAEXV?$_Const_iterator@$00@01@0@Z$2 60800010 f   NMS_Framework.obj
 0001:fffff010       __unwindfunclet$??$insert@V?$_Const_iterator@$00@?$list@TSDL_Event@@V?$allocator@TSDL_Event@@@std@@@std@@@?$list@TSDL_Event@@V?$allocator@TSDL_Event@@@std@@@std@@QAEXV?$_Const_iterator@$00@01@00@Z$2 60800010 f   NMS_Framework.obj
 0001:fffff010       __unwindfunclet$??$_Debug_range@V?$_Vector_const_iterator@PAVSceneGraphNode@@V?$allocator@PAVSceneGraphNode@@@std@@@std@@@std@@YAXV?$_Vector_const_iterator@PAVSceneGraphNode@@V?$allocator@PAVSceneGraphNode@@@std@@@0@0PB_WI@Z$2 60800010 f   NMS_SceneRenderer.obj
 0001:fffff010       __unwindfunclet$?erase@?$_Tree@V?$_Tmap_traits@PADUtextStruct@@U?$less@PAD@std@@V?$allocator@U?$pair@QADUtextStruct@@@std@@@3@$0A@@std@@@std@@QAE?AViterator@12@Vconst_iterator@12@0@Z$2 60800010 f   NMS_TextureManager.obj
 0001:fffff010       __unwindfunclet$??$_Ucopy@V?$_Vector_const_iterator@PAVSceneGraphNode@@V?$allocator@PAVSceneGraphNode@@@std@@@std@@@?$vector@PAVSceneGraphNode@@V?$allocator@PAVSceneGraphNode@@@std@@@std@@IAEPAPAVSceneGraphNode@@V?$_Vector_const_iterator@PAVSceneGraphNode@@V?$allocator@PAVSceneGraphNode@@@std@@@1@0PAPAV2@@Z$2 60800010 f   NMS_Framework.obj
 0001:fffff010       __unwindfunclet$?erase@?$vector@PAVSceneGraphNode@@V?$allocator@PAVSceneGraphNode@@@std@@@std@@QAE?AV?$_Vector_iterator@PAVSceneGraphNode@@V?$allocator@PAVSceneGraphNode@@@std@@@2@V?$_Vector_const_iterator@PAVSceneGraphNode@@V?$allocator@PAVSceneGraphNode@@@std@@@2@0@Z$3 60800010 f   NMS_SceneGraph.obj
 0001:fffff010       __unwindfunclet$??$_Debug_range@V?$_Vector_const_iterator@PAVSceneGraphNode@@V?$allocator@PAVSceneGraphNode@@@std@@@std@@@std@@YAXV?$_Vector_const_iterator@PAVSceneGraphNode@@V?$allocator@PAVSceneGraphNode@@@std@@@0@0PB_WI@Z$2 60800010 f   NMS_SceneGraph.obj
 0001:fffff010       __unwindfunclet$??$_Uninit_copy@V?$_Vector_const_iterator@PAVSceneGraphNode@@V?$allocator@PAVSceneGraphNode@@@std@@@std@@PAPAVSceneGraphNode@@V?$allocator@PAVSceneGraphNode@@@2@@std@@YAPAPAVSceneGraphNode@@V?$_Vector_const_iterator@PAVSceneGraphNode@@V?$allocator@PAVSceneGraphNode@@@std@@@0@0PAPAV1@AAV?$allocator@PAVSceneGraphNode@@@0@U_Scalar_ptr_iterator_tag@0@U_Range_checked_iterator_tag@0@@Z$2 60800010 f   NMS_SceneRenderer.obj
 0001:fffff010       __unwindfunclet$??$_Assign@V?$_Const_iterator@$00@?$list@TSDL_Event@@V?$allocator@TSDL_Event@@@std@@@std@@@?$list@TSDL_Event@@V?$allocator@TSDL_Event@@@std@@@std@@QAEXV?$_Const_iterator@$00@01@0Uinput_iterator_tag@1@@Z$2 60800010 f   NMS_Framework.obj
 0001:fffff010       __unwindfunclet$??$unchecked_uninitialized_copy@V?$_Vector_const_iterator@PAVSceneGraphNode@@V?$allocator@PAVSceneGraphNode@@@std@@@std@@PAPAVSceneGraphNode@@V?$allocator@PAVSceneGraphNode@@@2@@stdext@@YAPAPAVSceneGraphNode@@V?$_Vector_const_iterator@PAVSceneGraphNode@@V?$allocator@PAVSceneGraphNode@@@std@@@std@@0PAPAV1@AAV?$allocator@PAVSceneGraphNode@@@3@@Z$2 60800010 f   NMS_Framework.obj
 0001:fffff010       __ehhandler$??$_Debug_range2@V?$_Vector_const_iterator@PAVSceneGraphNode@@V?$allocator@PAVSceneGraphNode@@@std@@@std@@@std@@YAXV?$_Vector_const_iterator@PAVSceneGraphNode@@V?$allocator@PAVSceneGraphNode@@@std@@@0@0PB_WIUrandom_access_iterator_tag@0@@Z 60800010 f   NMS_SceneRenderer.obj
 0001:fffff010       __unwindfunclet$??$_Ucopy@V?$_Vector_const_iterator@PAVSceneGraphNode@@V?$allocator@PAVSceneGraphNode@@@std@@@std@@@?$vector@PAVSceneGraphNode@@V?$allocator@PAVSceneGraphNode@@@std@@@std@@IAEPAPAVSceneGraphNode@@V?$_Vector_const_iterator@PAVSceneGraphNode@@V?$allocator@PAVSceneGraphNode@@@std@@@1@0PAPAV2@@Z$2 60800010 f   NMS_Engine.obj
 0001:fffff010       __unwindfunclet$??$unchecked_uninitialized_copy@V?$_Vector_const_iterator@PAVSceneGraphNode@@V?$allocator@PAVSceneGraphNode@@@std@@@std@@PAPAVSceneGraphNode@@V?$allocator@PAVSceneGraphNode@@@2@@stdext@@YAPAPAVSceneGraphNode@@V?$_Vector_const_iterator@PAVSceneGraphNode@@V?$allocator@PAVSceneGraphNode@@@std@@@std@@0PAPAV1@AAV?$allocator@PAVSceneGraphNode@@@3@@Z$2 60800010 f   NMS_Engine.obj
 0001:fffff010       __unwindfunclet$?erase@?$vector@PAVSceneGraphNode@@V?$allocator@PAVSceneGraphNode@@@std@@@std@@QAE?AV?$_Vector_iterator@PAVSceneGraphNode@@V?$allocator@PAVSceneGraphNode@@@std@@@2@V?$_Vector_const_iterator@PAVSceneGraphNode@@V?$allocator@PAVSceneGraphNode@@@std@@@2@0@Z$3 60800010 f   NMS_Framework.obj
 0001:fffff010       __unwindfunclet$??$_Uninit_copy@V?$_Vector_const_iterator@PAVSceneGraphNode@@V?$allocator@PAVSceneGraphNode@@@std@@@std@@PAPAVSceneGraphNode@@V?$allocator@PAVSceneGraphNode@@@2@@std@@YAPAPAVSceneGraphNode@@V?$_Vector_const_iterator@PAVSceneGraphNode@@V?$allocator@PAVSceneGraphNode@@@std@@@0@0PAPAV1@AAV?$allocator@PAVSceneGraphNode@@@0@U_Scalar_ptr_iterator_tag@0@U_Range_checked_iterator_tag@0@@Z$2 60800010 f   NMS_Engine.obj
 0001:fffff010       __unwindfunclet$??$_Debug_range@V?$_Vector_const_iterator@PAVSceneGraphNode@@V?$allocator@PAVSceneGraphNode@@@std@@@std@@@std@@YAXV?$_Vector_const_iterator@PAVSceneGraphNode@@V?$allocator@PAVSceneGraphNode@@@std@@@0@0PB_WI@Z$2 60800010 f   NMS_Engine.obj
 0001:fffff010       __ehhandler$??$_Debug_range2@V?$_Vector_const_iterator@PAVSceneGraphNode@@V?$allocator@PAVSceneGraphNode@@@std@@@std@@@std@@YAXV?$_Vector_const_iterator@PAVSceneGraphNode@@V?$allocator@PAVSceneGraphNode@@@std@@@0@0PB_WIUrandom_access_iterator_tag@0@@Z 60800010 f   NMS_Engine.obj
 0001:fffff010       __unwindfunclet$?erase@?$_Tree@V?$_Tmap_traits@PADUtextStruct@@U?$less@PAD@std@@V?$allocator@U?$pair@QADUtextStruct@@@std@@@3@$0A@@std@@@std@@QAE?AViterator@12@Vconst_iterator@12@0@Z$2 60800010 f   NMS_SceneRenderer.obj
 0001:fffff010       __unwindfunclet$??$_Debug_range@V?$_Const_iterator@$00@?$list@TSDL_Event@@V?$allocator@TSDL_Event@@@std@@@std@@@std@@YAXV?$_Const_iterator@$00@?$list@TSDL_Event@@V?$allocator@TSDL_Event@@@std@@@0@0PB_WI@Z$2 60800010 f   NMS_Framework.obj
 0001:fffff010       __unwindfunclet$?erase@?$_Tree@V?$_Tmap_traits@PADUtextStruct@@U?$less@PAD@std@@V?$allocator@U?$pair@QADUtextStruct@@@std@@@3@$0A@@std@@@std@@QAE?AViterator@12@Vconst_iterator@12@0@Z$2 60800010 f   NMS_Camera.obj
 0001:fffff010       __unwindfunclet$?erase@?$_Tree@V?$_Tmap_traits@PADUtextStruct@@U?$less@PAD@std@@V?$allocator@U?$pair@QADUtextStruct@@@std@@@3@$0A@@std@@@std@@QAE?AViterator@12@Vconst_iterator@12@0@Z$2 60800010 f   NMS_Framework.obj
 0001:fffff010       __unwindfunclet$?erase@?$vector@PAVSceneGraphNode@@V?$allocator@PAVSceneGraphNode@@@std@@@std@@QAE?AV?$_Vector_iterator@PAVSceneGraphNode@@V?$allocator@PAVSceneGraphNode@@@std@@@2@V?$_Vector_const_iterator@PAVSceneGraphNode@@V?$allocator@PAVSceneGraphNode@@@std@@@2@0@Z$3 60800010 f   NMS_SceneRenderer.obj
 0001:fffff010       __unwindfunclet$??$_Uninit_copy@V?$_Vector_const_iterator@PAVSceneGraphNode@@V?$allocator@PAVSceneGraphNode@@@std@@@std@@PAPAVSceneGraphNode@@V?$allocator@PAVSceneGraphNode@@@2@@std@@YAPAPAVSceneGraphNode@@V?$_Vector_const_iterator@PAVSceneGraphNode@@V?$allocator@PAVSceneGraphNode@@@std@@@0@0PAPAV1@AAV?$allocator@PAVSceneGraphNode@@@0@U_Scalar_ptr_iterator_tag@0@U_Range_checked_iterator_tag@0@@Z$2 60800010 f   NMS_Framework.obj
 0001:fffff010       __unwindfunclet$??$_Debug_range@V?$_Vector_const_iterator@PAVSceneGraphNode@@V?$allocator@PAVSceneGraphNode@@@std@@@std@@@std@@YAXV?$_Vector_const_iterator@PAVSceneGraphNode@@V?$allocator@PAVSceneGraphNode@@@std@@@0@0PB_WI@Z$2 60800010 f   NMS_Framework.obj
 0001:fffff010       __unwindfunclet$?erase@?$_Tree@V?$_Tmap_traits@PADUtextStruct@@U?$less@PAD@std@@V?$allocator@U?$pair@QADUtextStruct@@@std@@@3@$0A@@std@@@std@@QAE?AViterator@12@Vconst_iterator@12@0@Z$2 60800010 f   NMS_SceneGraph.obj
 0001:fffff010       __ehhandler$??$_Debug_range2@V?$_Vector_const_iterator@PAVSceneGraphNode@@V?$allocator@PAVSceneGraphNode@@@std@@@std@@@std@@YAXV?$_Vector_const_iterator@PAVSceneGraphNode@@V?$allocator@PAVSceneGraphNode@@@std@@@0@0PB_WIUrandom_access_iterator_tag@0@@Z 60800010 f   NMS_SceneGraph.obj
 0001:fffff010       __unwindfunclet$??$_Ucopy@V?$_Vector_const_iterator@PAVSceneGraphNode@@V?$allocator@PAVSceneGraphNode@@@std@@@std@@@?$vector@PAVSceneGraphNode@@V?$allocator@PAVSceneGraphNode@@@std@@@std@@IAEPAPAVSceneGraphNode@@V?$_Vector_const_iterator@PAVSceneGraphNode@@V?$allocator@PAVSceneGraphNode@@@std@@@1@0PAPAV2@@Z$2 60800010 f   NMS_SceneRenderer.obj
 0001:fffff010       __ehhandler$??$_Debug_range2@V?$_Vector_const_iterator@PAVSceneGraphNode@@V?$allocator@PAVSceneGraphNode@@@std@@@std@@@std@@YAXV?$_Vector_const_iterator@PAVSceneGraphNode@@V?$allocator@PAVSceneGraphNode@@@std@@@0@0PB_WIUrandom_access_iterator_tag@0@@Z 60800010 f   NMS_Framework.obj
 0001:fffff010       __unwindfunclet$?erase@?$_Tree@V?$_Tmap_traits@PADUtextStruct@@U?$less@PAD@std@@V?$allocator@U?$pair@QADUtextStruct@@@std@@@3@$0A@@std@@@std@@QAE?AViterator@12@Vconst_iterator@12@0@Z$2 60800010 f   NMS_AssetManager.obj
 0001:fffff010       __unwindfunclet$??$insert@V?$_Const_iterator@$00@?$list@TSDL_Event@@V?$allocator@TSDL_Event@@@std@@@std@@@?$list@TSDL_Event@@V?$allocator@TSDL_Event@@@std@@@std@@QAEXV?$_Const_iterator@$00@01@00@Z$2 60800010 f   NMS_SceneRenderer.obj
 0001:fffff010       __unwindfunclet$??$_Debug_range@V?$_Const_iterator@$00@?$list@TSDL_Event@@V?$allocator@TSDL_Event@@@std@@@std@@@std@@YAXV?$_Const_iterator@$00@?$list@TSDL_Event@@V?$allocator@TSDL_Event@@@std@@@0@0PB_WI@Z$2 60800010 f   NMS_Event.obj
 0001:fffff010       __unwindfunclet$?erase@?$_Tree@V?$_Tmap_traits@PADUtextStruct@@U?$less@PAD@std@@V?$allocator@U?$pair@QADUtextStruct@@@std@@@3@$0A@@std@@@std@@QAE?AViterator@12@Vconst_iterator@12@0@Z$2 60800010 f   NMS_Engine.obj
 0001:fffff010       __unwindfunclet$??$_Assign@V?$_Const_iterator@$00@?$list@TSDL_Event@@V?$allocator@TSDL_Event@@@std@@@std@@@?$list@TSDL_Event@@V?$allocator@TSDL_Event@@@std@@@std@@QAEXV?$_Const_iterator@$00@01@0Uinput_iterator_tag@1@@Z$2 60800010 f   NMS_Event.obj
 0001:fffff010       __unwindfunclet$??$_Ucopy@V?$_Vector_const_iterator@PAVSceneGraphNode@@V?$allocator@PAVSceneGraphNode@@@std@@@std@@@?$vector@PAVSceneGraphNode@@V?$allocator@PAVSceneGraphNode@@@std@@@std@@IAEPAPAVSceneGraphNode@@V?$_Vector_const_iterator@PAVSceneGraphNode@@V?$allocator@PAVSceneGraphNode@@@std@@@1@0PAPAV2@@Z$2 60800010 f   NMS_SceneGraph.obj
 0001:fffff010       __unwindfunclet$??$assign@V?$_Const_iterator@$00@?$list@TSDL_Event@@V?$allocator@TSDL_Event@@@std@@@std@@@?$list@TSDL_Event@@V?$allocator@TSDL_Event@@@std@@@std@@QAEXV?$_Const_iterator@$00@01@0@Z$2 60800010 f   NMS_SceneRenderer.obj
 0001:fffff010       __unwindfunclet$?erase@?$_Tree@V?$_Tmap_traits@PADUtextStruct@@U?$less@PAD@std@@V?$allocator@U?$pair@QADUtextStruct@@@std@@@3@$0A@@std@@@std@@QAE?AViterator@12@Vconst_iterator@12@0@Z$2 60800010 f   MD2Model.obj
 0001:fffff010       __unwindfunclet$??$unchecked_uninitialized_copy@V?$_Vector_const_iterator@PAVSceneGraphNode@@V?$allocator@PAVSceneGraphNode@@@std@@@std@@PAPAVSceneGraphNode@@V?$allocator@PAVSceneGraphNode@@@2@@stdext@@YAPAPAVSceneGraphNode@@V?$_Vector_const_iterator@PAVSceneGraphNode@@V?$allocator@PAVSceneGraphNode@@@std@@@std@@0PAPAV1@AAV?$allocator@PAVSceneGraphNode@@@3@@Z$2 60800010 f   NMS_SceneRenderer.obj
 0001:fffff010       __unwindfunclet$??$_Insert@V?$_Const_iterator@$00@?$list@TSDL_Event@@V?$allocator@TSDL_Event@@@std@@@std@@@?$list@TSDL_Event@@V?$allocator@TSDL_Event@@@std@@@std@@QAEXV?$_Const_iterator@$00@01@00Uforward_iterator_tag@1@@Z$4 60800010 f   NMS_SceneRenderer.obj
 0001:fffff010       __unwindfunclet$??$_Insert@V?$_Const_iterator@$00@?$list@TSDL_Event@@V?$allocator@TSDL_Event@@@std@@@std@@@?$list@TSDL_Event@@V?$allocator@TSDL_Event@@@std@@@std@@QAEXV?$_Const_iterator@$00@01@00Uforward_iterator_tag@1@@Z$4 60800010 f   NMS_Framework.obj
 0001:fffff010       __unwindfunclet$??$unchecked_uninitialized_copy@V?$_Vector_const_iterator@PAVSceneGraphNode@@V?$allocator@PAVSceneGraphNode@@@std@@@std@@PAPAVSceneGraphNode@@V?$allocator@PAVSceneGraphNode@@@2@@stdext@@YAPAPAVSceneGraphNode@@V?$_Vector_const_iterator@PAVSceneGraphNode@@V?$allocator@PAVSceneGraphNode@@@std@@@std@@0PAPAV1@AAV?$allocator@PAVSceneGraphNode@@@3@@Z$2 60800010 f   NMS_SceneGraph.obj
 0001:fffff010       __unwindfunclet$??$_Insert@V?$_Const_iterator@$00@?$list@TSDL_Event@@V?$allocator@TSDL_Event@@@std@@@std@@@?$list@TSDL_Event@@V?$allocator@TSDL_Event@@@std@@@std@@QAEXV?$_Const_iterator@$00@01@00Uforward_iterator_tag@1@@Z$4 60800010 f   NMS_Event.obj
 0001:fffff010       __unwindfunclet$??$_Uninit_copy@V?$_Vector_const_iterator@PAVSceneGraphNode@@V?$allocator@PAVSceneGraphNode@@@std@@@std@@PAPAVSceneGraphNode@@V?$allocator@PAVSceneGraphNode@@@2@@std@@YAPAPAVSceneGraphNode@@V?$_Vector_const_iterator@PAVSceneGraphNode@@V?$allocator@PAVSceneGraphNode@@@std@@@0@0PAPAV1@AAV?$allocator@PAVSceneGraphNode@@@0@U_Scalar_ptr_iterator_tag@0@U_Range_checked_iterator_tag@0@@Z$2 60800010 f   NMS_SceneGraph.obj
 0001:fffff010       __unwindfunclet$??$assign@V?$_Const_iterator@$00@?$list@TSDL_Event@@V?$allocator@TSDL_Event@@@std@@@std@@@?$list@TSDL_Event@@V?$allocator@TSDL_Event@@@std@@@std@@QAEXV?$_Const_iterator@$00@01@0@Z$2 60800010 f   NMS_Event.obj
 0001:fffff010       __unwindfunclet$??$insert@V?$_Const_iterator@$00@?$list@TSDL_Event@@V?$allocator@TSDL_Event@@@std@@@std@@@?$list@TSDL_Event@@V?$allocator@TSDL_Event@@@std@@@std@@QAEXV?$_Const_iterator@$00@01@00@Z$2 60800010 f   NMS_Event.obj
 0001:fffff010       __unwindfunclet$??$_Assign@V?$_Const_iterator@$00@?$list@TSDL_Event@@V?$allocator@TSDL_Event@@@std@@@std@@@?$list@TSDL_Event@@V?$allocator@TSDL_Event@@@std@@@std@@QAEXV?$_Const_iterator@$00@01@0Uinput_iterator_tag@1@@Z$2 60800010 f   NMS_SceneRenderer.obj
 0001:fffff012       __ehhandler$??0logic_error@std@@QAE@ABV?$basic_string@DU?$char_traits@D@std@@V?$allocator@D@2@@1@@Z 60800012 f   NMS_Event.obj
 0001:fffff012       __ehhandler$??1_Iterator_base@std@@QAE@XZ 60800012 f   NMS_Engine.obj
 0001:fffff012       __ehhandler$?_Adopt@_Iterator_base@std@@QAEXPBV_Container_base_secure@2@@Z 60800012 f   NMS_AssetManager.obj
 0001:fffff012       __ehhandler$??4_Iterator_base@std@@QAEAAV01@ABV01@@Z 60800012 f   NMS_AssetManager.obj
 0001:fffff012       __ehhandler$?_Adopt@_Iterator_base@std@@QAEXPBV_Container_base_secure@2@@Z 60800012 f   NMS_Engine.obj
 0001:fffff012       __ehhandler$??0logic_error@std@@QAE@ABV01@@Z 60800012 f   NMS_Camera.obj
 0001:fffff012       __ehhandler$??4_Iterator_base@std@@QAEAAV01@ABV01@@Z 60800012 f   NMS_SceneGraph.obj
 0001:fffff012       __ehhandler$??0logic_error@std@@QAE@ABV01@@Z 60800012 f   NMS_Event.obj
 0001:fffff012       __ehhandler$?_Adopt@_Iterator_base@std@@QAEXPBV_Container_base_secure@2@@Z 60800012 f   NMS_SceneGraph.obj
 0001:fffff012       __ehhandler$??0logic_error@std@@QAE@ABV?$basic_string@DU?$char_traits@D@std@@V?$allocator@D@2@@1@@Z 60800012 f   NMS_Camera.obj
 0001:fffff012       __ehhandler$??1_Iterator_base@std@@QAE@XZ 60800012 f   NMS_SceneGraph.obj
 0001:fffff012       __ehhandler$??1_Iterator_base@std@@QAE@XZ 60800012 f   NMS_Camera.obj
 0001:fffff012       __ehhandler$?_Adopt@_Iterator_base@std@@QAEXPBV_Container_base_secure@2@@Z 60800012 f   NMS_Camera.obj
 0001:fffff012       __ehhandler$??4_Iterator_base@std@@QAEAAV01@ABV01@@Z 60800012 f   NMS_Framework.obj
 0001:fffff012       __ehhandler$??4_Iterator_base@std@@QAEAAV01@ABV01@@Z 60800012 f   NMS_Camera.obj
 0001:fffff012       __ehhandler$?_Adopt@_Iterator_base@std@@QAEXPBV_Container_base_secure@2@@Z 60800012 f   NMS_Framework.obj
 0001:fffff012       __ehhandler$??0logic_error@std@@QAE@ABV01@@Z 60800012 f   NMS_SceneRenderer.obj
 0001:fffff012       __ehhandler$??4_Iterator_base@std@@QAEAAV01@ABV01@@Z 60800012 f   MD2Model.obj
 0001:fffff012       __ehhandler$??0logic_error@std@@QAE@ABV?$basic_string@DU?$char_traits@D@std@@V?$allocator@D@2@@1@@Z 60800012 f   NMS_SceneRenderer.obj
 0001:fffff012       __ehhandler$?_Adopt@_Iterator_base@std@@QAEXPBV_Container_base_secure@2@@Z 60800012 f   NMS_Event.obj
 0001:fffff012       __ehhandler$??1_Iterator_base@std@@QAE@XZ 60800012 f   NMS_Framework.obj
 0001:fffff012       __ehhandler$??0logic_error@std@@QAE@ABV01@@Z 60800012 f   NMS_SceneGraph.obj
 0001:fffff012       __ehhandler$??4_Iterator_base@std@@QAEAAV01@ABV01@@Z 60800012 f   NMS_Engine.obj
 0001:fffff012       __ehhandler$??0runtime_error@std@@QAE@ABV?$basic_string@DU?$char_traits@D@std@@V?$allocator@D@2@@1@@Z 60800012 f   NMS_Thread.obj
 0001:fffff012       __ehhandler$??1_Iterator_base@std@@QAE@XZ 60800012 f   NMS_SceneRenderer.obj
 0001:fffff012       __ehhandler$?_Adopt@_Iterator_base@std@@QAEXPBV_Container_base_secure@2@@Z 60800012 f   NMS_SceneRenderer.obj
 0001:fffff012       __ehhandler$??4_Iterator_base@std@@QAEAAV01@ABV01@@Z 60800012 f   NMS_SceneRenderer.obj
 0001:fffff012       __ehhandler$??0logic_error@std@@QAE@ABV?$basic_string@DU?$char_traits@D@std@@V?$allocator@D@2@@1@@Z 60800012 f   NMS_SceneGraph.obj
 0001:fffff012       __ehhandler$??4_Iterator_base@std@@QAEAAV01@ABV01@@Z 60800012 f   NMS_Event.obj
 0001:fffff012       __ehhandler$??0runtime_error@std@@QAE@ABV01@@Z 60800012 f   NMS_Thread.obj
 0001:fffff012       __ehhandler$?_Adopt@_Iterator_base@std@@QAEXPBV_Container_base_secure@2@@Z 60800012 f   MD2Model.obj
 0001:fffff012       __ehhandler$??1_Iterator_base@std@@QAE@XZ 60800012 f   NMS_TextureManager.obj
 0001:fffff012       __ehhandler$??0logic_error@std@@QAE@ABV?$basic_string@DU?$char_traits@D@std@@V?$allocator@D@2@@1@@Z 60800012 f   NMS_Framework.obj
 0001:fffff012       __ehhandler$??4_Iterator_base@std@@QAEAAV01@ABV01@@Z 60800012 f   NMS_TextureManager.obj
 0001:fffff012       __ehhandler$??0logic_error@std@@QAE@ABV01@@Z 60800012 f   NMS_Framework.obj
 0001:fffff012       __ehhandler$?_Adopt@_Iterator_base@std@@QAEXPBV_Container_base_secure@2@@Z 60800012 f   NMS_TextureManager.obj
 0001:fffff012       __ehhandler$??1_Iterator_base@std@@QAE@XZ 60800012 f   MD2Model.obj
 0001:fffff012       __ehhandler$??1_Iterator_base@std@@QAE@XZ 60800012 f   NMS_Event.obj
 0001:fffff012       __ehhandler$??0logic_error@std@@QAE@ABV01@@Z 60800012 f   NMS_Engine.obj
 0001:fffff012       __ehhandler$??0logic_error@std@@QAE@ABV?$basic_string@DU?$char_traits@D@std@@V?$allocator@D@2@@1@@Z 60800012 f   NMS_Engine.obj
 0001:fffff012       __ehhandler$??0logic_error@std@@QAE@ABV01@@Z 60800012 f   NMS_TextureManager.obj
 0001:fffff012       __ehhandler$??0logic_error@std@@QAE@ABV?$basic_string@DU?$char_traits@D@std@@V?$allocator@D@2@@1@@Z 60800012 f   NMS_TextureManager.obj
 0001:fffff012       __ehhandler$??1_Iterator_base@std@@QAE@XZ 60800012 f   NMS_AssetManager.obj
 0001:fffff013       __ehhandler$??0?$vector@PAVSceneGraphNode@@V?$allocator@PAVSceneGraphNode@@@std@@@std@@QAE@ABV01@@Z 60800013 f   NMS_SceneGraph.obj
 0001:fffff013       __unwindfunclet$??1NMSCameraController@@QAE@XZ$2 60800013 f   NMS_Engine.obj
 0001:fffff013       __unwindfunclet$?_Make_iter@?$_Tree@V?$_Tmap_traits@PADUtextStruct@@U?$less@PAD@std@@V?$allocator@U?$pair@QADUtextStruct@@@std@@@3@$0A@@std@@@std@@QBE?AViterator@12@Vconst_iterator@12@@Z$2 60800013 f   MD2Model.obj
 0001:fffff013       __unwindfunclet$??1NMS_Event@@QAE@XZ$2 60800013 f   NMS_SceneRenderer.obj
 0001:fffff013       __ehhandler$??0?$vector@PAVSceneGraphNode@@V?$allocator@PAVSceneGraphNode@@@std@@@std@@QAE@ABV01@@Z 60800013 f   NMS_Engine.obj
 0001:fffff013       __unwindfunclet$??0NMS_Event@@QAE@ABV0@@Z$2 60800013 f   NMS_SceneRenderer.obj
 0001:fffff013       __unwindfunclet$??0NMSCameraController@@QAE@XZ$2 60800013 f   NMS_Engine.obj
 0001:fffff013       __ehhandler$??0?$vector@PAVSceneGraphNode@@V?$allocator@PAVSceneGraphNode@@@std@@@std@@QAE@ABV01@@Z 60800013 f   NMS_SceneRenderer.obj
 0001:fffff013       __unwindfunclet$?erase@?$list@TSDL_Event@@V?$allocator@TSDL_Event@@@std@@@std@@QAE?AV?$_Iterator@$00@12@V?$_Const_iterator@$00@12@@Z$3 60800013 f   NMS_Framework.obj
 0001:fffff013       __unwindfunclet$?_Make_iter@?$_Tree@V?$_Tmap_traits@PADUtextStruct@@U?$less@PAD@std@@V?$allocator@U?$pair@QADUtextStruct@@@std@@@3@$0A@@std@@@std@@QBE?AViterator@12@Vconst_iterator@12@@Z$2 60800013 f   NMS_SceneGraph.obj
 0001:fffff013       __unwindfunclet$??1NMS_Event@@QAE@XZ$2 60800013 f   NMS_Framework.obj
 0001:fffff013       __unwindfunclet$??0?$list@TSDL_Event@@V?$allocator@TSDL_Event@@@std@@@std@@QAE@ABV01@@Z$4 60800013 f   NMS_SceneRenderer.obj
 0001:fffff013       __unwindfunclet$?_Make_iter@?$_Tree@V?$_Tmap_traits@PADUtextStruct@@U?$less@PAD@std@@V?$allocator@U?$pair@QADUtextStruct@@@std@@@3@$0A@@std@@@std@@QBE?AViterator@12@Vconst_iterator@12@@Z$2 60800013 f   NMS_Framework.obj
 0001:fffff013       __unwindfunclet$?_Make_iter@?$_Tree@V?$_Tmap_traits@PADUtextStruct@@U?$less@PAD@std@@V?$allocator@U?$pair@QADUtextStruct@@@std@@@3@$0A@@std@@@std@@QBE?AViterator@12@Vconst_iterator@12@@Z$2 60800013 f   NMS_SceneRenderer.obj
 0001:fffff013       __unwindfunclet$??0NMS_Event@@QAE@ABV0@@Z$2 60800013 f   NMS_Framework.obj
 0001:fffff013       __unwindfunclet$?erase@?$list@TSDL_Event@@V?$allocator@TSDL_Event@@@std@@@std@@QAE?AV?$_Iterator@$00@12@V?$_Const_iterator@$00@12@@Z$3 60800013 f   NMS_Event.obj
 0001:fffff013       __ehhandler$??0?$vector@PAVSceneGraphNode@@V?$allocator@PAVSceneGraphNode@@@std@@@std@@QAE@ABV01@@Z 60800013 f   NMS_Framework.obj
 0001:fffff013       __unwindfunclet$??0?$list@TSDL_Event@@V?$allocator@TSDL_Event@@@std@@@std@@QAE@ABV01@@Z$4 60800013 f   NMS_Framework.obj
 0001:fffff013       __unwindfunclet$?_Make_iter@?$_Tree@V?$_Tmap_traits@PADUtextStruct@@U?$less@PAD@std@@V?$allocator@U?$pair@QADUtextStruct@@@std@@@3@$0A@@std@@@std@@QBE?AViterator@12@Vconst_iterator@12@@Z$2 60800013 f   NMS_Camera.obj
 0001:fffff013       __unwindfunclet$?erase@?$list@TSDL_Event@@V?$allocator@TSDL_Event@@@std@@@std@@QAE?AV?$_Iterator@$00@12@V?$_Const_iterator@$00@12@@Z$3 60800013 f   NMS_SceneRenderer.obj
 0001:fffff013       __unwindfunclet$?_Make_iter@?$_Tree@V?$_Tmap_traits@PADUtextStruct@@U?$less@PAD@std@@V?$allocator@U?$pair@QADUtextStruct@@@std@@@3@$0A@@std@@@std@@QBE?AViterator@12@Vconst_iterator@12@@Z$2 60800013 f   NMS_Engine.obj
 0001:fffff013       __unwindfunclet$??0?$list@TSDL_Event@@V?$allocator@TSDL_Event@@@std@@@std@@QAE@ABV01@@Z$4 60800013 f   NMS_Event.obj
 0001:fffff013       __unwindfunclet$??1NMSCameraController@@QAE@XZ$2 60800013 f   NMS_Framework.obj
 0001:fffff013       __unwindfunclet$??0NMSCameraController@@QAE@XZ$2 60800013 f   NMS_Framework.obj
 0001:fffff013       __unwindfunclet$?_Make_iter@?$_Tree@V?$_Tmap_traits@PADUtextStruct@@U?$less@PAD@std@@V?$allocator@U?$pair@QADUtextStruct@@@std@@@3@$0A@@std@@@std@@QBE?AViterator@12@Vconst_iterator@12@@Z$2 60800013 f   NMS_AssetManager.obj
 0001:fffff013       __unwindfunclet$?_Make_iter@?$_Tree@V?$_Tmap_traits@PADUtextStruct@@U?$less@PAD@std@@V?$allocator@U?$pair@QADUtextStruct@@@std@@@3@$0A@@std@@@std@@QBE?AViterator@12@Vconst_iterator@12@@Z$2 60800013 f   NMS_TextureManager.obj
 0001:fffff013       __unwindfunclet$??1NMS_Event@@QAE@XZ$2 60800013 f   NMS_Event.obj
 0001:fffff013       __unwindfunclet$??0NMS_Event@@QAE@ABV0@@Z$2 60800013 f   NMS_Event.obj
 0001:fffff014       __ehhandler$?_Buynode@?$_Tree@V?$_Tmap_traits@PADUtextStruct@@U?$less@PAD@std@@V?$allocator@U?$pair@QADUtextStruct@@@std@@@3@$0A@@std@@@std@@IAEPAU_Node@?$_Tree_nod@V?$_Tmap_traits@PADUtextStruct@@U?$less@PAD@std@@V?$allocator@U?$pair@QADUtextStruct@@@std@@@3@$0A@@std@@@2@PAU342@00ABU?$pair@QADUtextStruct@@@2@D@Z 60800014 f   NMS_SceneGraph.obj
 0001:fffff014       __ehhandler$?_Buynode@?$_Tree@V?$_Tmap_traits@PADUtextStruct@@U?$less@PAD@std@@V?$allocator@U?$pair@QADUtextStruct@@@std@@@3@$0A@@std@@@std@@IAEPAU_Node@?$_Tree_nod@V?$_Tmap_traits@PADUtextStruct@@U?$less@PAD@std@@V?$allocator@U?$pair@QADUtextStruct@@@std@@@3@$0A@@std@@@2@PAU342@00ABU?$pair@QADUtextStruct@@@2@D@Z 60800014 f   NMS_AssetManager.obj
 0001:fffff014       __ehhandler$?_Buynode@?$_Tree@V?$_Tmap_traits@PADUtextStruct@@U?$less@PAD@std@@V?$allocator@U?$pair@QADUtextStruct@@@std@@@3@$0A@@std@@@std@@IAEPAU_Node@?$_Tree_nod@V?$_Tmap_traits@PADUtextStruct@@U?$less@PAD@std@@V?$allocator@U?$pair@QADUtextStruct@@@std@@@3@$0A@@std@@@2@PAU342@00ABU?$pair@QADUtextStruct@@@2@D@Z 60800014 f   NMS_Camera.obj
 0001:fffff014       __ehhandler$?_Buynode@?$_Tree@V?$_Tmap_traits@PADUtextStruct@@U?$less@PAD@std@@V?$allocator@U?$pair@QADUtextStruct@@@std@@@3@$0A@@std@@@std@@IAEPAU_Node@?$_Tree_nod@V?$_Tmap_traits@PADUtextStruct@@U?$less@PAD@std@@V?$allocator@U?$pair@QADUtextStruct@@@std@@@3@$0A@@std@@@2@PAU342@00ABU?$pair@QADUtextStruct@@@2@D@Z 60800014 f   NMS_SceneRenderer.obj
 0001:fffff014       __ehhandler$?_Buynode@?$_Tree@V?$_Tmap_traits@PADUtextStruct@@U?$less@PAD@std@@V?$allocator@U?$pair@QADUtextStruct@@@std@@@3@$0A@@std@@@std@@IAEPAU_Node@?$_Tree_nod@V?$_Tmap_traits@PADUtextStruct@@U?$less@PAD@std@@V?$allocator@U?$pair@QADUtextStruct@@@std@@@3@$0A@@std@@@2@PAU342@00ABU?$pair@QADUtextStruct@@@2@D@Z 60800014 f   NMS_Framework.obj
 0001:fffff014       __ehhandler$?_Buynode@?$_Tree@V?$_Tmap_traits@PADUtextStruct@@U?$less@PAD@std@@V?$allocator@U?$pair@QADUtextStruct@@@std@@@3@$0A@@std@@@std@@IAEPAU_Node@?$_Tree_nod@V?$_Tmap_traits@PADUtextStruct@@U?$less@PAD@std@@V?$allocator@U?$pair@QADUtextStruct@@@std@@@3@$0A@@std@@@2@PAU342@00ABU?$pair@QADUtextStruct@@@2@D@Z 60800014 f   NMS_Engine.obj
 0001:fffff014       __ehhandler$?_Buynode@?$_Tree@V?$_Tmap_traits@PADUtextStruct@@U?$less@PAD@std@@V?$allocator@U?$pair@QADUtextStruct@@@std@@@3@$0A@@std@@@std@@IAEPAU_Node@?$_Tree_nod@V?$_Tmap_traits@PADUtextStruct@@U?$less@PAD@std@@V?$allocator@U?$pair@QADUtextStruct@@@std@@@3@$0A@@std@@@2@PAU342@00ABU?$pair@QADUtextStruct@@@2@D@Z 60800014 f   NMS_TextureManager.obj
 0001:fffff014       __ehhandler$?_Buynode@?$_Tree@V?$_Tmap_traits@PADUtextStruct@@U?$less@PAD@std@@V?$allocator@U?$pair@QADUtextStruct@@@std@@@3@$0A@@std@@@std@@IAEPAU_Node@?$_Tree_nod@V?$_Tmap_traits@PADUtextStruct@@U?$less@PAD@std@@V?$allocator@U?$pair@QADUtextStruct@@@std@@@3@$0A@@std@@@2@PAU342@00ABU?$pair@QADUtextStruct@@@2@D@Z 60800014 f   MD2Model.obj
 0001:fffff015       __ehhandler$?_Xlen@?$vector@PAVSceneGraphNode@@V?$allocator@PAVSceneGraphNode@@@std@@@std@@KAXXZ 60800015 f   NMS_Framework.obj
 0001:fffff015       __ehhandler$?_Xlen@?$vector@PAVSceneGraphNode@@V?$allocator@PAVSceneGraphNode@@@std@@@std@@KAXXZ 60800015 f   NMS_SceneRenderer.obj
 0001:fffff015       __ehhandler$?_Incsize@?$list@TSDL_Event@@V?$allocator@TSDL_Event@@@std@@@std@@IAEXI@Z 60800015 f   NMS_Framework.obj
 0001:fffff015       __ehhandler$?_Incsize@?$list@TSDL_Event@@V?$allocator@TSDL_Event@@@std@@@std@@IAEXI@Z 60800015 f   NMS_Event.obj
 0001:fffff015       __ehhandler$?_Incsize@?$list@TSDL_Event@@V?$allocator@TSDL_Event@@@std@@@std@@IAEXI@Z 60800015 f   NMS_SceneRenderer.obj
 0001:fffff015       __ehhandler$?_Xlen@?$vector@PAVSceneGraphNode@@V?$allocator@PAVSceneGraphNode@@@std@@@std@@KAXXZ 60800015 f   NMS_Engine.obj
 0001:fffff015       __ehhandler$?_Xlen@?$vector@PAVSceneGraphNode@@V?$allocator@PAVSceneGraphNode@@@std@@@std@@KAXXZ 60800015 f   NMS_SceneGraph.obj
 0001:fffff016       __unwindfunclet$?_Tidy@?$_Tree@V?$_Tmap_traits@PADUtextStruct@@U?$less@PAD@std@@V?$allocator@U?$pair@QADUtextStruct@@@std@@@3@$0A@@std@@@std@@IAEXXZ$2 60800016 f   NMS_SceneGraph.obj
 0001:fffff016       __unwindfunclet$?_Tidy@?$_Tree@V?$_Tmap_traits@PADUtextStruct@@U?$less@PAD@std@@V?$allocator@U?$pair@QADUtextStruct@@@std@@@3@$0A@@std@@@std@@IAEXXZ$2 60800016 f   NMS_Engine.obj
 0001:fffff016       __unwindfunclet$?clear@?$vector@PAVSceneGraphNode@@V?$allocator@PAVSceneGraphNode@@@std@@@std@@QAEXXZ$2 60800016 f   NMS_SceneRenderer.obj
 0001:fffff016       __unwindfunclet$?clear@?$vector@PAVSceneGraphNode@@V?$allocator@PAVSceneGraphNode@@@std@@@std@@QAEXXZ$2 60800016 f   NMS_Framework.obj
 0001:fffff016       __unwindfunclet$?clear@?$vector@PAVSceneGraphNode@@V?$allocator@PAVSceneGraphNode@@@std@@@std@@QAEXXZ$2 60800016 f   NMS_Engine.obj
 0001:fffff016       __unwindfunclet$??4?$_Tree@V?$_Tmap_traits@PADUtextStruct@@U?$less@PAD@std@@V?$allocator@U?$pair@QADUtextStruct@@@std@@@3@$0A@@std@@@std@@QAEAAV01@ABV01@@Z$2 60800016 f   NMS_SceneRenderer.obj
 0001:fffff016       __unwindfunclet$?_Tidy@?$_Tree@V?$_Tmap_traits@PADUtextStruct@@U?$less@PAD@std@@V?$allocator@U?$pair@QADUtextStruct@@@std@@@3@$0A@@std@@@std@@IAEXXZ$2 60800016 f   NMS_Framework.obj
 0001:fffff016       __unwindfunclet$??4?$_Tree@V?$_Tmap_traits@PADUtextStruct@@U?$less@PAD@std@@V?$allocator@U?$pair@QADUtextStruct@@@std@@@3@$0A@@std@@@std@@QAEAAV01@ABV01@@Z$2 60800016 f   NMS_SceneGraph.obj
 0001:fffff016       __unwindfunclet$?_Tidy@?$_Tree@V?$_Tmap_traits@PADUtextStruct@@U?$less@PAD@std@@V?$allocator@U?$pair@QADUtextStruct@@@std@@@3@$0A@@std@@@std@@IAEXXZ$2 60800016 f   MD2Model.obj
 0001:fffff016       __unwindfunclet$??4?$_Tree@V?$_Tmap_traits@PADUtextStruct@@U?$less@PAD@std@@V?$allocator@U?$pair@QADUtextStruct@@@std@@@3@$0A@@std@@@std@@QAEAAV01@ABV01@@Z$2 60800016 f   MD2Model.obj
 0001:fffff016       __unwindfunclet$?_Tidy@?$_Tree@V?$_Tmap_traits@PADUtextStruct@@U?$less@PAD@std@@V?$allocator@U?$pair@QADUtextStruct@@@std@@@3@$0A@@std@@@std@@IAEXXZ$2 60800016 f   NMS_TextureManager.obj
 0001:fffff016       __unwindfunclet$??4?$_Tree@V?$_Tmap_traits@PADUtextStruct@@U?$less@PAD@std@@V?$allocator@U?$pair@QADUtextStruct@@@std@@@3@$0A@@std@@@std@@QAEAAV01@ABV01@@Z$2 60800016 f   NMS_TextureManager.obj
 0001:fffff016       __unwindfunclet$?clear@?$vector@PAVSceneGraphNode@@V?$allocator@PAVSceneGraphNode@@@std@@@std@@QAEXXZ$2 60800016 f   NMS_SceneGraph.obj
 0001:fffff016       __unwindfunclet$?_Tidy@?$_Tree@V?$_Tmap_traits@PADUtextStruct@@U?$less@PAD@std@@V?$allocator@U?$pair@QADUtextStruct@@@std@@@3@$0A@@std@@@std@@IAEXXZ$2 60800016 f   NMS_SceneRenderer.obj
 0001:fffff016       __unwindfunclet$??4?$_Tree@V?$_Tmap_traits@PADUtextStruct@@U?$less@PAD@std@@V?$allocator@U?$pair@QADUtextStruct@@@std@@@3@$0A@@std@@@std@@QAEAAV01@ABV01@@Z$2 60800016 f   NMS_Engine.obj
 0001:fffff016       __unwindfunclet$?_Tidy@?$_Tree@V?$_Tmap_traits@PADUtextStruct@@U?$less@PAD@std@@V?$allocator@U?$pair@QADUtextStruct@@@std@@@3@$0A@@std@@@std@@IAEXXZ$2 60800016 f   NMS_AssetManager.obj
 0001:fffff016       __unwindfunclet$??4?$_Tree@V?$_Tmap_traits@PADUtextStruct@@U?$less@PAD@std@@V?$allocator@U?$pair@QADUtextStruct@@@std@@@3@$0A@@std@@@std@@QAEAAV01@ABV01@@Z$2 60800016 f   NMS_Framework.obj
 0001:fffff016       __unwindfunclet$??4?$_Tree@V?$_Tmap_traits@PADUtextStruct@@U?$less@PAD@std@@V?$allocator@U?$pair@QADUtextStruct@@@std@@@3@$0A@@std@@@std@@QAEAAV01@ABV01@@Z$2 60800016 f   NMS_AssetManager.obj
 0001:fffff016       __unwindfunclet$??4?$_Tree@V?$_Tmap_traits@PADUtextStruct@@U?$less@PAD@std@@V?$allocator@U?$pair@QADUtextStruct@@@std@@@3@$0A@@std@@@std@@QAEAAV01@ABV01@@Z$2 60800016 f   NMS_Camera.obj
 0001:fffff016       __unwindfunclet$?_Tidy@?$_Tree@V?$_Tmap_traits@PADUtextStruct@@U?$less@PAD@std@@V?$allocator@U?$pair@QADUtextStruct@@@std@@@3@$0A@@std@@@std@@IAEXXZ$2 60800016 f   NMS_Camera.obj
 0001:fffff018       __unwindfunclet$??$_Insert@V?$_Const_iterator@$00@?$list@TSDL_Event@@V?$allocator@TSDL_Event@@@std@@@std@@@?$list@TSDL_Event@@V?$allocator@TSDL_Event@@@std@@@std@@QAEXV?$_Const_iterator@$00@01@00Uforward_iterator_tag@1@@Z$5 60800018 f   NMS_Framework.obj
 0001:fffff018       __unwindfunclet$??$insert@V?$_Const_iterator@$00@?$list@TSDL_Event@@V?$allocator@TSDL_Event@@@std@@@std@@@?$list@TSDL_Event@@V?$allocator@TSDL_Event@@@std@@@std@@QAEXV?$_Const_iterator@$00@01@00@Z$3 60800018 f   NMS_Event.obj
 0001:fffff018       __unwindfunclet$??$insert@V?$_Const_iterator@$00@?$list@TSDL_Event@@V?$allocator@TSDL_Event@@@std@@@std@@@?$list@TSDL_Event@@V?$allocator@TSDL_Event@@@std@@@std@@QAEXV?$_Const_iterator@$00@01@00@Z$3 60800018 f   NMS_SceneRenderer.obj
 0001:fffff018       __unwindfunclet$??$_Insert@V?$_Const_iterator@$00@?$list@TSDL_Event@@V?$allocator@TSDL_Event@@@std@@@std@@@?$list@TSDL_Event@@V?$allocator@TSDL_Event@@@std@@@std@@QAEXV?$_Const_iterator@$00@01@00Uforward_iterator_tag@1@@Z$5 60800018 f   NMS_Event.obj
 0001:fffff018       __unwindfunclet$?erase@?$vector@PAVSceneGraphNode@@V?$allocator@PAVSceneGraphNode@@@std@@@std@@QAE?AV?$_Vector_iterator@PAVSceneGraphNode@@V?$allocator@PAVSceneGraphNode@@@std@@@2@V?$_Vector_const_iterator@PAVSceneGraphNode@@V?$allocator@PAVSceneGraphNode@@@std@@@2@0@Z$5 60800018 f   NMS_SceneGraph.obj
 0001:fffff018       __unwindfunclet$?erase@?$vector@PAVSceneGraphNode@@V?$allocator@PAVSceneGraphNode@@@std@@@std@@QAE?AV?$_Vector_iterator@PAVSceneGraphNode@@V?$allocator@PAVSceneGraphNode@@@std@@@2@V?$_Vector_const_iterator@PAVSceneGraphNode@@V?$allocator@PAVSceneGraphNode@@@std@@@2@0@Z$5 60800018 f   NMS_SceneRenderer.obj
 0001:fffff018       __unwindfunclet$??$insert@V?$_Const_iterator@$00@?$list@TSDL_Event@@V?$allocator@TSDL_Event@@@std@@@std@@@?$list@TSDL_Event@@V?$allocator@TSDL_Event@@@std@@@std@@QAEXV?$_Const_iterator@$00@01@00@Z$3 60800018 f   NMS_Framework.obj
 0001:fffff018       __unwindfunclet$?erase@?$vector@PAVSceneGraphNode@@V?$allocator@PAVSceneGraphNode@@@std@@@std@@QAE?AV?$_Vector_iterator@PAVSceneGraphNode@@V?$allocator@PAVSceneGraphNode@@@std@@@2@V?$_Vector_const_iterator@PAVSceneGraphNode@@V?$allocator@PAVSceneGraphNode@@@std@@@2@0@Z$5 60800018 f   NMS_Engine.obj
 0001:fffff018       __unwindfunclet$??$_Insert@V?$_Const_iterator@$00@?$list@TSDL_Event@@V?$allocator@TSDL_Event@@@std@@@std@@@?$list@TSDL_Event@@V?$allocator@TSDL_Event@@@std@@@std@@QAEXV?$_Const_iterator@$00@01@00Uforward_iterator_tag@1@@Z$5 60800018 f   NMS_SceneRenderer.obj
 0001:fffff018       __unwindfunclet$?erase@?$vector@PAVSceneGraphNode@@V?$allocator@PAVSceneGraphNode@@@std@@@std@@QAE?AV?$_Vector_iterator@PAVSceneGraphNode@@V?$allocator@PAVSceneGraphNode@@@std@@@2@V?$_Vector_const_iterator@PAVSceneGraphNode@@V?$allocator@PAVSceneGraphNode@@@std@@@2@0@Z$5 60800018 f   NMS_Framework.obj
 0001:fffff01b       __ehhandler$??$unchecked_uninitialized_copy@V?$_Vector_const_iterator@PAVSceneGraphNode@@V?$allocator@PAVSceneGraphNode@@@std@@@std@@PAPAVSceneGraphNode@@V?$allocator@PAVSceneGraphNode@@@2@@stdext@@YAPAPAVSceneGraphNode@@V?$_Vector_const_iterator@PAVSceneGraphNode@@V?$allocator@PAVSceneGraphNode@@@std@@@std@@0PAPAV1@AAV?$allocator@PAVSceneGraphNode@@@3@@Z 6080001b f   NMS_Framework.obj
 0001:fffff01b       __ehhandler$??$_Debug_range@V?$_Const_iterator@$00@?$list@TSDL_Event@@V?$allocator@TSDL_Event@@@std@@@std@@@std@@YAXV?$_Const_iterator@$00@?$list@TSDL_Event@@V?$allocator@TSDL_Event@@@std@@@0@0PB_WI@Z 6080001b f   NMS_Event.obj
 0001:fffff01b       __ehhandler$??$_Ucopy@V?$_Vector_const_iterator@PAVSceneGraphNode@@V?$allocator@PAVSceneGraphNode@@@std@@@std@@@?$vector@PAVSceneGraphNode@@V?$allocator@PAVSceneGraphNode@@@std@@@std@@IAEPAPAVSceneGraphNode@@V?$_Vector_const_iterator@PAVSceneGraphNode@@V?$allocator@PAVSceneGraphNode@@@std@@@1@0PAPAV2@@Z 6080001b f   NMS_Engine.obj
 0001:fffff01b       __unwindfunclet$??$_Assign@V?$_Const_iterator@$00@?$list@TSDL_Event@@V?$allocator@TSDL_Event@@@std@@@std@@@?$list@TSDL_Event@@V?$allocator@TSDL_Event@@@std@@@std@@QAEXV?$_Const_iterator@$00@01@0Uinput_iterator_tag@1@@Z$3 6080001b f   NMS_Framework.obj
 0001:fffff01b       __unwindfunclet$??$_Assign@V?$_Const_iterator@$00@?$list@TSDL_Event@@V?$allocator@TSDL_Event@@@std@@@std@@@?$list@TSDL_Event@@V?$allocator@TSDL_Event@@@std@@@std@@QAEXV?$_Const_iterator@$00@01@0Uinput_iterator_tag@1@@Z$3 6080001b f   NMS_Event.obj
 0001:fffff01b       __ehhandler$??$_Ucopy@V?$_Vector_const_iterator@PAVSceneGraphNode@@V?$allocator@PAVSceneGraphNode@@@std@@@std@@@?$vector@PAVSceneGraphNode@@V?$allocator@PAVSceneGraphNode@@@std@@@std@@IAEPAPAVSceneGraphNode@@V?$_Vector_const_iterator@PAVSceneGraphNode@@V?$allocator@PAVSceneGraphNode@@@std@@@1@0PAPAV2@@Z 6080001b f   NMS_SceneRenderer.obj
 0001:fffff01b       __ehhandler$??$_Uninit_copy@V?$_Vector_const_iterator@PAVSceneGraphNode@@V?$allocator@PAVSceneGraphNode@@@std@@@std@@PAPAVSceneGraphNode@@V?$allocator@PAVSceneGraphNode@@@2@@std@@YAPAPAVSceneGraphNode@@V?$_Vector_const_iterator@PAVSceneGraphNode@@V?$allocator@PAVSceneGraphNode@@@std@@@0@0PAPAV1@AAV?$allocator@PAVSceneGraphNode@@@0@U_Scalar_ptr_iterator_tag@0@U_Range_checked_iterator_tag@0@@Z 6080001b f   NMS_SceneGraph.obj
 0001:fffff01b       __ehhandler$??$assign@V?$_Const_iterator@$00@?$list@TSDL_Event@@V?$allocator@TSDL_Event@@@std@@@std@@@?$list@TSDL_Event@@V?$allocator@TSDL_Event@@@std@@@std@@QAEXV?$_Const_iterator@$00@01@0@Z 6080001b f   NMS_SceneRenderer.obj
 0001:fffff01b       __ehhandler$??$_Ucopy@V?$_Vector_const_iterator@PAVSceneGraphNode@@V?$allocator@PAVSceneGraphNode@@@std@@@std@@@?$vector@PAVSceneGraphNode@@V?$allocator@PAVSceneGraphNode@@@std@@@std@@IAEPAPAVSceneGraphNode@@V?$_Vector_const_iterator@PAVSceneGraphNode@@V?$allocator@PAVSceneGraphNode@@@std@@@1@0PAPAV2@@Z 6080001b f   NMS_Framework.obj
 0001:fffff01b       __ehhandler$??$assign@V?$_Const_iterator@$00@?$list@TSDL_Event@@V?$allocator@TSDL_Event@@@std@@@std@@@?$list@TSDL_Event@@V?$allocator@TSDL_Event@@@std@@@std@@QAEXV?$_Const_iterator@$00@01@0@Z 6080001b f   NMS_Framework.obj
 0001:fffff01b       __ehhandler$??$unchecked_uninitialized_copy@V?$_Vector_const_iterator@PAVSceneGraphNode@@V?$allocator@PAVSceneGraphNode@@@std@@@std@@PAPAVSceneGraphNode@@V?$allocator@PAVSceneGraphNode@@@2@@stdext@@YAPAPAVSceneGraphNode@@V?$_Vector_const_iterator@PAVSceneGraphNode@@V?$allocator@PAVSceneGraphNode@@@std@@@std@@0PAPAV1@AAV?$allocator@PAVSceneGraphNode@@@3@@Z 6080001b f   NMS_Engine.obj
 0001:fffff01b       __ehhandler$??$unchecked_uninitialized_copy@V?$_Vector_const_iterator@PAVSceneGraphNode@@V?$allocator@PAVSceneGraphNode@@@std@@@std@@PAPAVSceneGraphNode@@V?$allocator@PAVSceneGraphNode@@@2@@stdext@@YAPAPAVSceneGraphNode@@V?$_Vector_const_iterator@PAVSceneGraphNode@@V?$allocator@PAVSceneGraphNode@@@std@@@std@@0PAPAV1@AAV?$allocator@PAVSceneGraphNode@@@3@@Z 6080001b f   NMS_SceneRenderer.obj
 0001:fffff01b       __ehhandler$??$_Debug_range@V?$_Vector_const_iterator@PAVSceneGraphNode@@V?$allocator@PAVSceneGraphNode@@@std@@@std@@@std@@YAXV?$_Vector_const_iterator@PAVSceneGraphNode@@V?$allocator@PAVSceneGraphNode@@@std@@@0@0PB_WI@Z 6080001b f   NMS_Engine.obj
 0001:fffff01b       __ehhandler$??$_Debug_range@V?$_Const_iterator@$00@?$list@TSDL_Event@@V?$allocator@TSDL_Event@@@std@@@std@@@std@@YAXV?$_Const_iterator@$00@?$list@TSDL_Event@@V?$allocator@TSDL_Event@@@std@@@0@0PB_WI@Z 6080001b f   NMS_SceneRenderer.obj
 0001:fffff01b       __ehhandler$??$_Debug_range@V?$_Vector_const_iterator@PAVSceneGraphNode@@V?$allocator@PAVSceneGraphNode@@@std@@@std@@@std@@YAXV?$_Vector_const_iterator@PAVSceneGraphNode@@V?$allocator@PAVSceneGraphNode@@@std@@@0@0PB_WI@Z 6080001b f   NMS_SceneRenderer.obj
 0001:fffff01b       __ehhandler$??$_Debug_range@V?$_Vector_const_iterator@PAVSceneGraphNode@@V?$allocator@PAVSceneGraphNode@@@std@@@std@@@std@@YAXV?$_Vector_const_iterator@PAVSceneGraphNode@@V?$allocator@PAVSceneGraphNode@@@std@@@0@0PB_WI@Z 6080001b f   NMS_Framework.obj
 0001:fffff01b       __ehhandler$??$_Debug_range@V?$_Const_iterator@$00@?$list@TSDL_Event@@V?$allocator@TSDL_Event@@@std@@@std@@@std@@YAXV?$_Const_iterator@$00@?$list@TSDL_Event@@V?$allocator@TSDL_Event@@@std@@@0@0PB_WI@Z 6080001b f   NMS_Framework.obj
 0001:fffff01b       __unwindfunclet$??$_Assign@V?$_Const_iterator@$00@?$list@TSDL_Event@@V?$allocator@TSDL_Event@@@std@@@std@@@?$list@TSDL_Event@@V?$allocator@TSDL_Event@@@std@@@std@@QAEXV?$_Const_iterator@$00@01@0Uinput_iterator_tag@1@@Z$3 6080001b f   NMS_SceneRenderer.obj
 0001:fffff01b       __ehhandler$??$assign@V?$_Const_iterator@$00@?$list@TSDL_Event@@V?$allocator@TSDL_Event@@@std@@@std@@@?$list@TSDL_Event@@V?$allocator@TSDL_Event@@@std@@@std@@QAEXV?$_Const_iterator@$00@01@0@Z 6080001b f   NMS_Event.obj
 0001:fffff01b       __ehhandler$??$_Uninit_copy@V?$_Vector_const_iterator@PAVSceneGraphNode@@V?$allocator@PAVSceneGraphNode@@@std@@@std@@PAPAVSceneGraphNode@@V?$allocator@PAVSceneGraphNode@@@2@@std@@YAPAPAVSceneGraphNode@@V?$_Vector_const_iterator@PAVSceneGraphNode@@V?$allocator@PAVSceneGraphNode@@@std@@@0@0PAPAV1@AAV?$allocator@PAVSceneGraphNode@@@0@U_Scalar_ptr_iterator_tag@0@U_Range_checked_iterator_tag@0@@Z 6080001b f   NMS_Framework.obj
 0001:fffff01b       __ehhandler$??$_Uninit_copy@V?$_Vector_const_iterator@PAVSceneGraphNode@@V?$allocator@PAVSceneGraphNode@@@std@@@std@@PAPAVSceneGraphNode@@V?$allocator@PAVSceneGraphNode@@@2@@std@@YAPAPAVSceneGraphNode@@V?$_Vector_const_iterator@PAVSceneGraphNode@@V?$allocator@PAVSceneGraphNode@@@std@@@0@0PAPAV1@AAV?$allocator@PAVSceneGraphNode@@@0@U_Scalar_ptr_iterator_tag@0@U_Range_checked_iterator_tag@0@@Z 6080001b f   NMS_SceneRenderer.obj
 0001:fffff01b       __ehhandler$??$_Ucopy@V?$_Vector_const_iterator@PAVSceneGraphNode@@V?$allocator@PAVSceneGraphNode@@@std@@@std@@@?$vector@PAVSceneGraphNode@@V?$allocator@PAVSceneGraphNode@@@std@@@std@@IAEPAPAVSceneGraphNode@@V?$_Vector_const_iterator@PAVSceneGraphNode@@V?$allocator@PAVSceneGraphNode@@@std@@@1@0PAPAV2@@Z 6080001b f   NMS_SceneGraph.obj
 0001:fffff01b       __ehhandler$??$_Debug_range@V?$_Vector_const_iterator@PAVSceneGraphNode@@V?$allocator@PAVSceneGraphNode@@@std@@@std@@@std@@YAXV?$_Vector_const_iterator@PAVSceneGraphNode@@V?$allocator@PAVSceneGraphNode@@@std@@@0@0PB_WI@Z 6080001b f   NMS_SceneGraph.obj
 0001:fffff01b       __ehhandler$??$unchecked_uninitialized_copy@V?$_Vector_const_iterator@PAVSceneGraphNode@@V?$allocator@PAVSceneGraphNode@@@std@@@std@@PAPAVSceneGraphNode@@V?$allocator@PAVSceneGraphNode@@@2@@stdext@@YAPAPAVSceneGraphNode@@V?$_Vector_const_iterator@PAVSceneGraphNode@@V?$allocator@PAVSceneGraphNode@@@std@@@std@@0PAPAV1@AAV?$allocator@PAVSceneGraphNode@@@3@@Z 6080001b f   NMS_SceneGraph.obj
 0001:fffff01b       __ehhandler$??$_Uninit_copy@V?$_Vector_const_iterator@PAVSceneGraphNode@@V?$allocator@PAVSceneGraphNode@@@std@@@std@@PAPAVSceneGraphNode@@V?$allocator@PAVSceneGraphNode@@@2@@std@@YAPAPAVSceneGraphNode@@V?$_Vector_const_iterator@PAVSceneGraphNode@@V?$allocator@PAVSceneGraphNode@@@std@@@0@0PAPAV1@AAV?$allocator@PAVSceneGraphNode@@@0@U_Scalar_ptr_iterator_tag@0@U_Range_checked_iterator_tag@0@@Z 6080001b f   NMS_Engine.obj
 0001:fffff01e       __unwindfunclet$??0NMS_Event@@QAE@ABV0@@Z$3 6080001e f   NMS_Framework.obj
 0001:fffff01e       __unwindfunclet$??1NMSCameraController@@QAE@XZ$3 6080001e f   NMS_Framework.obj
 0001:fffff01e       __unwindfunclet$??0?$list@TSDL_Event@@V?$allocator@TSDL_Event@@@std@@@std@@QAE@ABV01@@Z$5 6080001e f   NMS_SceneRenderer.obj
 0001:fffff01e       __unwindfunclet$??0NMSCameraController@@QAE@XZ$3 6080001e f   NMS_Engine.obj
 0001:fffff01e       __unwindfunclet$??0NMS_Event@@QAE@ABV0@@Z$3 6080001e f   NMS_SceneRenderer.obj
 0001:fffff01e       __unwindfunclet$??0?$list@TSDL_Event@@V?$allocator@TSDL_Event@@@std@@@std@@QAE@ABV01@@Z$5 6080001e f   NMS_Event.obj
 0001:fffff01e       __unwindfunclet$??0NMSCameraController@@QAE@XZ$3 6080001e f   NMS_Framework.obj
 0001:fffff01e       __unwindfunclet$??1NMS_Event@@QAE@XZ$3 6080001e f   NMS_SceneRenderer.obj
 0001:fffff01e       __unwindfunclet$??0NMS_Event@@QAE@ABV0@@Z$3 6080001e f   NMS_Event.obj
 0001:fffff01e       __unwindfunclet$??0?$list@TSDL_Event@@V?$allocator@TSDL_Event@@@std@@@std@@QAE@ABV01@@Z$5 6080001e f   NMS_Framework.obj
 0001:fffff01e       __unwindfunclet$??1NMS_Event@@QAE@XZ$3 6080001e f   NMS_Framework.obj
 0001:fffff01e       __unwindfunclet$??1NMSCameraController@@QAE@XZ$3 6080001e f   NMS_Engine.obj
 0001:fffff01e       __unwindfunclet$??1NMS_Event@@QAE@XZ$3 6080001e f   NMS_Event.obj
 0001:fffff01f       __unwindfunclet$?subString@?$string@D@core@irr@@QAE?AV123@HH@Z$1 6080001f f   ColladaModel.obj
 0001:fffff020       __unwindfunclet$?erase@?$vector@PAVSceneGraphNode@@V?$allocator@PAVSceneGraphNode@@@std@@@std@@QAE?AV?$_Vector_iterator@PAVSceneGraphNode@@V?$allocator@PAVSceneGraphNode@@@std@@@2@V?$_Vector_const_iterator@PAVSceneGraphNode@@V?$allocator@PAVSceneGraphNode@@@std@@@2@0@Z$6 60800020 f   NMS_SceneRenderer.obj
 0001:fffff020       __unwindfunclet$?erase@?$vector@PAVSceneGraphNode@@V?$allocator@PAVSceneGraphNode@@@std@@@std@@QAE?AV?$_Vector_iterator@PAVSceneGraphNode@@V?$allocator@PAVSceneGraphNode@@@std@@@2@V?$_Vector_const_iterator@PAVSceneGraphNode@@V?$allocator@PAVSceneGraphNode@@@std@@@2@0@Z$6 60800020 f   NMS_Engine.obj
 0001:fffff020       __unwindfunclet$?erase@?$vector@PAVSceneGraphNode@@V?$allocator@PAVSceneGraphNode@@@std@@@std@@QAE?AV?$_Vector_iterator@PAVSceneGraphNode@@V?$allocator@PAVSceneGraphNode@@@std@@@2@V?$_Vector_const_iterator@PAVSceneGraphNode@@V?$allocator@PAVSceneGraphNode@@@std@@@2@0@Z$6 60800020 f   NMS_Framework.obj
 0001:fffff020       __unwindfunclet$?erase@?$vector@PAVSceneGraphNode@@V?$allocator@PAVSceneGraphNode@@@std@@@std@@QAE?AV?$_Vector_iterator@PAVSceneGraphNode@@V?$allocator@PAVSceneGraphNode@@@std@@@2@V?$_Vector_const_iterator@PAVSceneGraphNode@@V?$allocator@PAVSceneGraphNode@@@std@@@2@0@Z$6 60800020 f   NMS_SceneGraph.obj
 0001:fffff021       __ehhandler$?_Tidy@?$_Tree@V?$_Tmap_traits@PADUtextStruct@@U?$less@PAD@std@@V?$allocator@U?$pair@QADUtextStruct@@@std@@@3@$0A@@std@@@std@@IAEXXZ 60800021 f   NMS_SceneGraph.obj
 0001:fffff021       __ehhandler$??4?$_Tree@V?$_Tmap_traits@PADUtextStruct@@U?$less@PAD@std@@V?$allocator@U?$pair@QADUtextStruct@@@std@@@3@$0A@@std@@@std@@QAEAAV01@ABV01@@Z 60800021 f   NMS_Framework.obj
 0001:fffff021       __ehhandler$?clear@?$vector@PAVSceneGraphNode@@V?$allocator@PAVSceneGraphNode@@@std@@@std@@QAEXXZ 60800021 f   NMS_SceneGraph.obj
 0001:fffff021       __ehhandler$??4?$_Tree@V?$_Tmap_traits@PADUtextStruct@@U?$less@PAD@std@@V?$allocator@U?$pair@QADUtextStruct@@@std@@@3@$0A@@std@@@std@@QAEAAV01@ABV01@@Z 60800021 f   NMS_TextureManager.obj
 0001:fffff021       __ehhandler$??4?$_Tree@V?$_Tmap_traits@PADUtextStruct@@U?$less@PAD@std@@V?$allocator@U?$pair@QADUtextStruct@@@std@@@3@$0A@@std@@@std@@QAEAAV01@ABV01@@Z 60800021 f   NMS_Camera.obj
 0001:fffff021       __ehhandler$?_Tidy@?$_Tree@V?$_Tmap_traits@PADUtextStruct@@U?$less@PAD@std@@V?$allocator@U?$pair@QADUtextStruct@@@std@@@3@$0A@@std@@@std@@IAEXXZ 60800021 f   NMS_Engine.obj
 0001:fffff021       __ehhandler$??4?$_Tree@V?$_Tmap_traits@PADUtextStruct@@U?$less@PAD@std@@V?$allocator@U?$pair@QADUtextStruct@@@std@@@3@$0A@@std@@@std@@QAEAAV01@ABV01@@Z 60800021 f   NMS_SceneGraph.obj
 0001:fffff021       __ehhandler$?clear@?$vector@PAVSceneGraphNode@@V?$allocator@PAVSceneGraphNode@@@std@@@std@@QAEXXZ 60800021 f   NMS_Engine.obj
 0001:fffff021       __ehhandler$??4?$_Tree@V?$_Tmap_traits@PADUtextStruct@@U?$less@PAD@std@@V?$allocator@U?$pair@QADUtextStruct@@@std@@@3@$0A@@std@@@std@@QAEAAV01@ABV01@@Z 60800021 f   MD2Model.obj
 0001:fffff021       __ehhandler$?_Tidy@?$_Tree@V?$_Tmap_traits@PADUtextStruct@@U?$less@PAD@std@@V?$allocator@U?$pair@QADUtextStruct@@@std@@@3@$0A@@std@@@std@@IAEXXZ 60800021 f   NMS_SceneRenderer.obj
 0001:fffff021       __ehhandler$?_Tidy@?$_Tree@V?$_Tmap_traits@PADUtextStruct@@U?$less@PAD@std@@V?$allocator@U?$pair@QADUtextStruct@@@std@@@3@$0A@@std@@@std@@IAEXXZ 60800021 f   NMS_TextureManager.obj
 0001:fffff021       __ehhandler$?clear@?$vector@PAVSceneGraphNode@@V?$allocator@PAVSceneGraphNode@@@std@@@std@@QAEXXZ 60800021 f   NMS_Framework.obj
 0001:fffff021       __ehhandler$?clear@?$vector@PAVSceneGraphNode@@V?$allocator@PAVSceneGraphNode@@@std@@@std@@QAEXXZ 60800021 f   NMS_SceneRenderer.obj
 0001:fffff021       __ehhandler$?_Tidy@?$_Tree@V?$_Tmap_traits@PADUtextStruct@@U?$less@PAD@std@@V?$allocator@U?$pair@QADUtextStruct@@@std@@@3@$0A@@std@@@std@@IAEXXZ 60800021 f   NMS_Camera.obj
 0001:fffff021       __ehhandler$??4?$_Tree@V?$_Tmap_traits@PADUtextStruct@@U?$less@PAD@std@@V?$allocator@U?$pair@QADUtextStruct@@@std@@@3@$0A@@std@@@std@@QAEAAV01@ABV01@@Z 60800021 f   NMS_AssetManager.obj
 0001:fffff021       __ehhandler$?_Tidy@?$_Tree@V?$_Tmap_traits@PADUtextStruct@@U?$less@PAD@std@@V?$allocator@U?$pair@QADUtextStruct@@@std@@@3@$0A@@std@@@std@@IAEXXZ 60800021 f   NMS_Framework.obj
 0001:fffff021       __ehhandler$?_Tidy@?$_Tree@V?$_Tmap_traits@PADUtextStruct@@U?$less@PAD@std@@V?$allocator@U?$pair@QADUtextStruct@@@std@@@3@$0A@@std@@@std@@IAEXXZ 60800021 f   MD2Model.obj
 0001:fffff021       __ehhandler$??4?$_Tree@V?$_Tmap_traits@PADUtextStruct@@U?$less@PAD@std@@V?$allocator@U?$pair@QADUtextStruct@@@std@@@3@$0A@@std@@@std@@QAEAAV01@ABV01@@Z 60800021 f   NMS_SceneRenderer.obj
 0001:fffff021       __ehhandler$?_Tidy@?$_Tree@V?$_Tmap_traits@PADUtextStruct@@U?$less@PAD@std@@V?$allocator@U?$pair@QADUtextStruct@@@std@@@3@$0A@@std@@@std@@IAEXXZ 60800021 f   NMS_AssetManager.obj
 0001:fffff021       __ehhandler$??4?$_Tree@V?$_Tmap_traits@PADUtextStruct@@U?$less@PAD@std@@V?$allocator@U?$pair@QADUtextStruct@@@std@@@3@$0A@@std@@@std@@QAEAAV01@ABV01@@Z 60800021 f   NMS_Engine.obj
 0001:fffff023       __unwindfunclet$??$insert@V?$_Const_iterator@$00@?$list@TSDL_Event@@V?$allocator@TSDL_Event@@@std@@@std@@@?$list@TSDL_Event@@V?$allocator@TSDL_Event@@@std@@@std@@QAEXV?$_Const_iterator@$00@01@00@Z$4 60800023 f   NMS_Framework.obj
 0001:fffff023       __unwindfunclet$??$_Insert@V?$_Const_iterator@$00@?$list@TSDL_Event@@V?$allocator@TSDL_Event@@@std@@@std@@@?$list@TSDL_Event@@V?$allocator@TSDL_Event@@@std@@@std@@QAEXV?$_Const_iterator@$00@01@00Uforward_iterator_tag@1@@Z$7 60800023 f   NMS_SceneRenderer.obj
 0001:fffff023       __unwindfunclet$??$_Insert@V?$_Const_iterator@$00@?$list@TSDL_Event@@V?$allocator@TSDL_Event@@@std@@@std@@@?$list@TSDL_Event@@V?$allocator@TSDL_Event@@@std@@@std@@QAEXV?$_Const_iterator@$00@01@00Uforward_iterator_tag@1@@Z$7 60800023 f   NMS_Event.obj
 0001:fffff023       __unwindfunclet$??$insert@V?$_Const_iterator@$00@?$list@TSDL_Event@@V?$allocator@TSDL_Event@@@std@@@std@@@?$list@TSDL_Event@@V?$allocator@TSDL_Event@@@std@@@std@@QAEXV?$_Const_iterator@$00@01@00@Z$4 60800023 f   NMS_Event.obj
 0001:fffff023       __unwindfunclet$??$_Insert@V?$_Const_iterator@$00@?$list@TSDL_Event@@V?$allocator@TSDL_Event@@@std@@@std@@@?$list@TSDL_Event@@V?$allocator@TSDL_Event@@@std@@@std@@QAEXV?$_Const_iterator@$00@01@00Uforward_iterator_tag@1@@Z$7 60800023 f   NMS_Framework.obj
 0001:fffff023       __unwindfunclet$??$insert@V?$_Const_iterator@$00@?$list@TSDL_Event@@V?$allocator@TSDL_Event@@@std@@@std@@@?$list@TSDL_Event@@V?$allocator@TSDL_Event@@@std@@@std@@QAEXV?$_Const_iterator@$00@01@00@Z$4 60800023 f   NMS_SceneRenderer.obj
 0001:fffff026       __unwindfunclet$??$_Assign@V?$_Const_iterator@$00@?$list@TSDL_Event@@V?$allocator@TSDL_Event@@@std@@@std@@@?$list@TSDL_Event@@V?$allocator@TSDL_Event@@@std@@@std@@QAEXV?$_Const_iterator@$00@01@0Uinput_iterator_tag@1@@Z$4 60800026 f   NMS_SceneRenderer.obj
 0001:fffff026       __unwindfunclet$??$_Assign@V?$_Const_iterator@$00@?$list@TSDL_Event@@V?$allocator@TSDL_Event@@@std@@@std@@@?$list@TSDL_Event@@V?$allocator@TSDL_Event@@@std@@@std@@QAEXV?$_Const_iterator@$00@01@0Uinput_iterator_tag@1@@Z$4 60800026 f   NMS_Event.obj
 0001:fffff026       __unwindfunclet$??$_Assign@V?$_Const_iterator@$00@?$list@TSDL_Event@@V?$allocator@TSDL_Event@@@std@@@std@@@?$list@TSDL_Event@@V?$allocator@TSDL_Event@@@std@@@std@@QAEXV?$_Const_iterator@$00@01@0Uinput_iterator_tag@1@@Z$4 60800026 f   NMS_Framework.obj
 0001:fffff027       __ehhandler$?erase@?$_Tree@V?$_Tmap_traits@PADUtextStruct@@U?$less@PAD@std@@V?$allocator@U?$pair@QADUtextStruct@@@std@@@3@$0A@@std@@@std@@QAE?AViterator@12@Vconst_iterator@12@@Z 60800027 f   NMS_AssetManager.obj
 0001:fffff027       __ehhandler$?_Make_iter@?$vector@PAVSceneGraphNode@@V?$allocator@PAVSceneGraphNode@@@std@@@std@@QBE?AV?$_Vector_iterator@PAVSceneGraphNode@@V?$allocator@PAVSceneGraphNode@@@std@@@2@V?$_Vector_const_iterator@PAVSceneGraphNode@@V?$allocator@PAVSceneGraphNode@@@std@@@2@@Z 60800027 f   NMS_SceneRenderer.obj
 0001:fffff027       __ehhandler$??E?$_Const_iterator@$00@?$list@TSDL_Event@@V?$allocator@TSDL_Event@@@std@@@std@@QAE?AV012@H@Z 60800027 f   NMS_SceneRenderer.obj
 0001:fffff027       __ehhandler$??Econst_iterator@?$_Tree@V?$_Tmap_traits@PADUtextStruct@@U?$less@PAD@std@@V?$allocator@U?$pair@QADUtextStruct@@@std@@@3@$0A@@std@@@std@@QAE?AV012@H@Z 60800027 f   NMS_Engine.obj
 0001:fffff027       __ehhandler$?erase@?$_Tree@V?$_Tmap_traits@PADUtextStruct@@U?$less@PAD@std@@V?$allocator@U?$pair@QADUtextStruct@@@std@@@3@$0A@@std@@@std@@QAE?AViterator@12@Vconst_iterator@12@@Z 60800027 f   MD2Model.obj
 0001:fffff027       __ehhandler$??Econst_iterator@?$_Tree@V?$_Tmap_traits@PADUtextStruct@@U?$less@PAD@std@@V?$allocator@U?$pair@QADUtextStruct@@@std@@@3@$0A@@std@@@std@@QAE?AV012@H@Z 60800027 f   NMS_SceneGraph.obj
 0001:fffff027       __ehhandler$?erase@?$_Tree@V?$_Tmap_traits@PADUtextStruct@@U?$less@PAD@std@@V?$allocator@U?$pair@QADUtextStruct@@@std@@@3@$0A@@std@@@std@@QAE?AViterator@12@Vconst_iterator@12@@Z 60800027 f   NMS_SceneRenderer.obj
 0001:fffff027       __ehhandler$??Econst_iterator@?$_Tree@V?$_Tmap_traits@PADUtextStruct@@U?$less@PAD@std@@V?$allocator@U?$pair@QADUtextStruct@@@std@@@3@$0A@@std@@@std@@QAE?AV012@H@Z 60800027 f   NMS_Framework.obj
 0001:fffff027       __ehhandler$??Econst_iterator@?$_Tree@V?$_Tmap_traits@PADUtextStruct@@U?$less@PAD@std@@V?$allocator@U?$pair@QADUtextStruct@@@std@@@3@$0A@@std@@@std@@QAE?AV012@H@Z 60800027 f   MD2Model.obj
 0001:fffff027       __ehhandler$??Econst_iterator@?$_Tree@V?$_Tmap_traits@PADUtextStruct@@U?$less@PAD@std@@V?$allocator@U?$pair@QADUtextStruct@@@std@@@3@$0A@@std@@@std@@QAE?AV012@H@Z 60800027 f   NMS_Camera.obj
 0001:fffff027       __ehhandler$??Econst_iterator@?$_Tree@V?$_Tmap_traits@PADUtextStruct@@U?$less@PAD@std@@V?$allocator@U?$pair@QADUtextStruct@@@std@@@3@$0A@@std@@@std@@QAE?AV012@H@Z 60800027 f   NMS_AssetManager.obj
 0001:fffff027       __ehhandler$?subString@?$string@D@core@irr@@QAE?AV123@HH@Z 60800027 f   ColladaModel.obj
 0001:fffff027       __ehhandler$?_Make_iter@?$list@TSDL_Event@@V?$allocator@TSDL_Event@@@std@@@std@@QBE?AV?$_Iterator@$00@12@V?$_Const_iterator@$00@12@@Z 60800027 f   NMS_SceneRenderer.obj
 0001:fffff027       __ehhandler$?_Make_iter@?$list@TSDL_Event@@V?$allocator@TSDL_Event@@@std@@@std@@QBE?AV?$_Iterator@$00@12@V?$_Const_iterator@$00@12@@Z 60800027 f   NMS_Event.obj
 0001:fffff027       __ehhandler$?_Make_iter@?$vector@PAVSceneGraphNode@@V?$allocator@PAVSceneGraphNode@@@std@@@std@@QBE?AV?$_Vector_iterator@PAVSceneGraphNode@@V?$allocator@PAVSceneGraphNode@@@std@@@2@V?$_Vector_const_iterator@PAVSceneGraphNode@@V?$allocator@PAVSceneGraphNode@@@std@@@2@@Z 60800027 f   NMS_Engine.obj
 0001:fffff027       __ehhandler$??E?$_Const_iterator@$00@?$list@TSDL_Event@@V?$allocator@TSDL_Event@@@std@@@std@@QAE?AV012@H@Z 60800027 f   NMS_Event.obj
 0001:fffff027       __ehhandler$?erase@?$_Tree@V?$_Tmap_traits@PADUtextStruct@@U?$less@PAD@std@@V?$allocator@U?$pair@QADUtextStruct@@@std@@@3@$0A@@std@@@std@@QAE?AViterator@12@Vconst_iterator@12@@Z 60800027 f   NMS_TextureManager.obj
 0001:fffff027       __ehhandler$??E?$_Const_iterator@$00@?$list@TSDL_Event@@V?$allocator@TSDL_Event@@@std@@@std@@QAE?AV012@H@Z 60800027 f   NMS_Framework.obj
 0001:fffff027       __ehhandler$?_Make_iter@?$vector@PAVSceneGraphNode@@V?$allocator@PAVSceneGraphNode@@@std@@@std@@QBE?AV?$_Vector_iterator@PAVSceneGraphNode@@V?$allocator@PAVSceneGraphNode@@@std@@@2@V?$_Vector_const_iterator@PAVSceneGraphNode@@V?$allocator@PAVSceneGraphNode@@@std@@@2@@Z 60800027 f   NMS_Framework.obj
 0001:fffff027       __ehhandler$?_Make_iter@?$list@TSDL_Event@@V?$allocator@TSDL_Event@@@std@@@std@@QBE?AV?$_Iterator@$00@12@V?$_Const_iterator@$00@12@@Z 60800027 f   NMS_Framework.obj
 0001:fffff027       __ehhandler$?erase@?$_Tree@V?$_Tmap_traits@PADUtextStruct@@U?$less@PAD@std@@V?$allocator@U?$pair@QADUtextStruct@@@std@@@3@$0A@@std@@@std@@QAE?AViterator@12@Vconst_iterator@12@@Z 60800027 f   NMS_Framework.obj
 0001:fffff027       __ehhandler$?erase@?$_Tree@V?$_Tmap_traits@PADUtextStruct@@U?$less@PAD@std@@V?$allocator@U?$pair@QADUtextStruct@@@std@@@3@$0A@@std@@@std@@QAE?AViterator@12@Vconst_iterator@12@@Z 60800027 f   NMS_SceneGraph.obj
 0001:fffff027       __ehhandler$?_Make_iter@?$vector@PAVSceneGraphNode@@V?$allocator@PAVSceneGraphNode@@@std@@@std@@QBE?AV?$_Vector_iterator@PAVSceneGraphNode@@V?$allocator@PAVSceneGraphNode@@@std@@@2@V?$_Vector_const_iterator@PAVSceneGraphNode@@V?$allocator@PAVSceneGraphNode@@@std@@@2@@Z 60800027 f   NMS_SceneGraph.obj
 0001:fffff027       __ehhandler$?erase@?$_Tree@V?$_Tmap_traits@PADUtextStruct@@U?$less@PAD@std@@V?$allocator@U?$pair@QADUtextStruct@@@std@@@3@$0A@@std@@@std@@QAE?AViterator@12@Vconst_iterator@12@@Z 60800027 f   NMS_Camera.obj
 0001:fffff027       __ehhandler$??Econst_iterator@?$_Tree@V?$_Tmap_traits@PADUtextStruct@@U?$less@PAD@std@@V?$allocator@U?$pair@QADUtextStruct@@@std@@@3@$0A@@std@@@std@@QAE?AV012@H@Z 60800027 f   NMS_SceneRenderer.obj
 0001:fffff027       __ehhandler$?erase@?$_Tree@V?$_Tmap_traits@PADUtextStruct@@U?$less@PAD@std@@V?$allocator@U?$pair@QADUtextStruct@@@std@@@3@$0A@@std@@@std@@QAE?AViterator@12@Vconst_iterator@12@@Z 60800027 f   NMS_Engine.obj
 0001:fffff027       __ehhandler$??Econst_iterator@?$_Tree@V?$_Tmap_traits@PADUtextStruct@@U?$less@PAD@std@@V?$allocator@U?$pair@QADUtextStruct@@@std@@@3@$0A@@std@@@std@@QAE?AV012@H@Z 60800027 f   NMS_TextureManager.obj
 0001:fffff029       __ehhandler$??0?$list@TSDL_Event@@V?$allocator@TSDL_Event@@@std@@@std@@QAE@ABV01@@Z 60800029 f   NMS_Framework.obj
 0001:fffff029       __unwindfunclet$??1NMS_Event@@QAE@XZ$4 60800029 f   NMS_Framework.obj
 0001:fffff029       __ehhandler$??0?$list@TSDL_Event@@V?$allocator@TSDL_Event@@@std@@@std@@QAE@ABV01@@Z 60800029 f   NMS_SceneRenderer.obj
 0001:fffff029       __unwindfunclet$??0NMS_Event@@QAE@ABV0@@Z$4 60800029 f   NMS_Framework.obj
 0001:fffff029       __unwindfunclet$??1NMS_Event@@QAE@XZ$4 60800029 f   NMS_SceneRenderer.obj
 0001:fffff029       __unwindfunclet$??1NMSCameraController@@QAE@XZ$4 60800029 f   NMS_Engine.obj
 0001:fffff029       __unwindfunclet$??1NMS_Event@@QAE@XZ$4 60800029 f   NMS_Event.obj
 0001:fffff029       __unwindfunclet$??0NMSCameraController@@QAE@XZ$4 60800029 f   NMS_Engine.obj
 0001:fffff029       __unwindfunclet$??0NMSCameraController@@QAE@XZ$4 60800029 f   NMS_Framework.obj
 0001:fffff029       __unwindfunclet$??0NMS_Event@@QAE@ABV0@@Z$4 60800029 f   NMS_Event.obj
 0001:fffff029       __unwindfunclet$??1NMSCameraController@@QAE@XZ$4 60800029 f   NMS_Framework.obj
 0001:fffff029       __ehhandler$??0?$list@TSDL_Event@@V?$allocator@TSDL_Event@@@std@@@std@@QAE@ABV01@@Z 60800029 f   NMS_Event.obj
 0001:fffff029       __unwindfunclet$??0NMS_Event@@QAE@ABV0@@Z$4 60800029 f   NMS_SceneRenderer.obj
 0001:fffff02b       __unwindfunclet$??$_Insert@V?$_Const_iterator@$00@?$list@TSDL_Event@@V?$allocator@TSDL_Event@@@std@@@std@@@?$list@TSDL_Event@@V?$allocator@TSDL_Event@@@std@@@std@@QAEXV?$_Const_iterator@$00@01@00Uforward_iterator_tag@1@@Z$9 6080002b f   NMS_SceneRenderer.obj
 0001:fffff02b       __unwindfunclet$??$_Insert@V?$_Const_iterator@$00@?$list@TSDL_Event@@V?$allocator@TSDL_Event@@@std@@@std@@@?$list@TSDL_Event@@V?$allocator@TSDL_Event@@@std@@@std@@QAEXV?$_Const_iterator@$00@01@00Uforward_iterator_tag@1@@Z$9 6080002b f   NMS_Event.obj
 0001:fffff02b       __unwindfunclet$??$_Insert@V?$_Const_iterator@$00@?$list@TSDL_Event@@V?$allocator@TSDL_Event@@@std@@@std@@@?$list@TSDL_Event@@V?$allocator@TSDL_Event@@@std@@@std@@QAEXV?$_Const_iterator@$00@01@00Uforward_iterator_tag@1@@Z$9 6080002b f   NMS_Framework.obj
 0001:fffff02e       __ehhandler$??$insert@V?$_Const_iterator@$00@?$list@TSDL_Event@@V?$allocator@TSDL_Event@@@std@@@std@@@?$list@TSDL_Event@@V?$allocator@TSDL_Event@@@std@@@std@@QAEXV?$_Const_iterator@$00@01@00@Z 6080002e f   NMS_SceneRenderer.obj
 0001:fffff02e       __ehhandler$??$insert@V?$_Const_iterator@$00@?$list@TSDL_Event@@V?$allocator@TSDL_Event@@@std@@@std@@@?$list@TSDL_Event@@V?$allocator@TSDL_Event@@@std@@@std@@QAEXV?$_Const_iterator@$00@01@00@Z 6080002e f   NMS_Framework.obj
 0001:fffff02e       __ehhandler$??$insert@V?$_Const_iterator@$00@?$list@TSDL_Event@@V?$allocator@TSDL_Event@@@std@@@std@@@?$list@TSDL_Event@@V?$allocator@TSDL_Event@@@std@@@std@@QAEXV?$_Const_iterator@$00@01@00@Z 6080002e f   NMS_Event.obj
 0001:fffff031       __ehhandler$??$_Assign@V?$_Const_iterator@$00@?$list@TSDL_Event@@V?$allocator@TSDL_Event@@@std@@@std@@@?$list@TSDL_Event@@V?$allocator@TSDL_Event@@@std@@@std@@QAEXV?$_Const_iterator@$00@01@0Uinput_iterator_tag@1@@Z 60800031 f   NMS_Framework.obj
 0001:fffff031       __ehhandler$??$_Assign@V?$_Const_iterator@$00@?$list@TSDL_Event@@V?$allocator@TSDL_Event@@@std@@@std@@@?$list@TSDL_Event@@V?$allocator@TSDL_Event@@@std@@@std@@QAEXV?$_Const_iterator@$00@01@0Uinput_iterator_tag@1@@Z 60800031 f   NMS_Event.obj
 0001:fffff031       __ehhandler$??$_Assign@V?$_Const_iterator@$00@?$list@TSDL_Event@@V?$allocator@TSDL_Event@@@std@@@std@@@?$list@TSDL_Event@@V?$allocator@TSDL_Event@@@std@@@std@@QAEXV?$_Const_iterator@$00@01@0Uinput_iterator_tag@1@@Z 60800031 f   NMS_SceneRenderer.obj
 0001:fffff032       __ehhandler$?_Make_iter@?$_Tree@V?$_Tmap_traits@PADUtextStruct@@U?$less@PAD@std@@V?$allocator@U?$pair@QADUtextStruct@@@std@@@3@$0A@@std@@@std@@QBE?AViterator@12@Vconst_iterator@12@@Z 60800032 f   NMS_SceneGraph.obj
 0001:fffff032       __ehhandler$?_Make_iter@?$_Tree@V?$_Tmap_traits@PADUtextStruct@@U?$less@PAD@std@@V?$allocator@U?$pair@QADUtextStruct@@@std@@@3@$0A@@std@@@std@@QBE?AViterator@12@Vconst_iterator@12@@Z 60800032 f   NMS_Engine.obj
 0001:fffff032       __ehhandler$?_Make_iter@?$_Tree@V?$_Tmap_traits@PADUtextStruct@@U?$less@PAD@std@@V?$allocator@U?$pair@QADUtextStruct@@@std@@@3@$0A@@std@@@std@@QBE?AViterator@12@Vconst_iterator@12@@Z 60800032 f   NMS_AssetManager.obj
 0001:fffff032       __unwindfunclet$?erase@?$_Tree@V?$_Tmap_traits@PADUtextStruct@@U?$less@PAD@std@@V?$allocator@U?$pair@QADUtextStruct@@@std@@@3@$0A@@std@@@std@@QAE?AViterator@12@Vconst_iterator@12@0@Z$3 60800032 f   NMS_AssetManager.obj
 0001:fffff032       __ehhandler$?_Make_iter@?$_Tree@V?$_Tmap_traits@PADUtextStruct@@U?$less@PAD@std@@V?$allocator@U?$pair@QADUtextStruct@@@std@@@3@$0A@@std@@@std@@QBE?AViterator@12@Vconst_iterator@12@@Z 60800032 f   NMS_SceneRenderer.obj
 0001:fffff032       __ehhandler$?_Make_iter@?$_Tree@V?$_Tmap_traits@PADUtextStruct@@U?$less@PAD@std@@V?$allocator@U?$pair@QADUtextStruct@@@std@@@3@$0A@@std@@@std@@QBE?AViterator@12@Vconst_iterator@12@@Z 60800032 f   NMS_Camera.obj
 0001:fffff032       __unwindfunclet$?erase@?$_Tree@V?$_Tmap_traits@PADUtextStruct@@U?$less@PAD@std@@V?$allocator@U?$pair@QADUtextStruct@@@std@@@3@$0A@@std@@@std@@QAE?AViterator@12@Vconst_iterator@12@0@Z$3 60800032 f   NMS_Camera.obj
 0001:fffff032       __ehhandler$?_Make_iter@?$_Tree@V?$_Tmap_traits@PADUtextStruct@@U?$less@PAD@std@@V?$allocator@U?$pair@QADUtextStruct@@@std@@@3@$0A@@std@@@std@@QBE?AViterator@12@Vconst_iterator@12@@Z 60800032 f   NMS_Framework.obj
 0001:fffff032       __unwindfunclet$?erase@?$_Tree@V?$_Tmap_traits@PADUtextStruct@@U?$less@PAD@std@@V?$allocator@U?$pair@QADUtextStruct@@@std@@@3@$0A@@std@@@std@@QAE?AViterator@12@Vconst_iterator@12@0@Z$3 60800032 f   MD2Model.obj
 0001:fffff032       __unwindfunclet$?erase@?$_Tree@V?$_Tmap_traits@PADUtextStruct@@U?$less@PAD@std@@V?$allocator@U?$pair@QADUtextStruct@@@std@@@3@$0A@@std@@@std@@QAE?AViterator@12@Vconst_iterator@12@0@Z$3 60800032 f   NMS_SceneRenderer.obj
 0001:fffff032       __ehhandler$?erase@?$list@TSDL_Event@@V?$allocator@TSDL_Event@@@std@@@std@@QAE?AV?$_Iterator@$00@12@V?$_Const_iterator@$00@12@@Z 60800032 f   NMS_Framework.obj
 0001:fffff032       __ehhandler$?_Make_iter@?$_Tree@V?$_Tmap_traits@PADUtextStruct@@U?$less@PAD@std@@V?$allocator@U?$pair@QADUtextStruct@@@std@@@3@$0A@@std@@@std@@QBE?AViterator@12@Vconst_iterator@12@@Z 60800032 f   MD2Model.obj
 0001:fffff032       __unwindfunclet$?erase@?$_Tree@V?$_Tmap_traits@PADUtextStruct@@U?$less@PAD@std@@V?$allocator@U?$pair@QADUtextStruct@@@std@@@3@$0A@@std@@@std@@QAE?AViterator@12@Vconst_iterator@12@0@Z$3 60800032 f   NMS_Framework.obj
 0001:fffff032       __ehhandler$?_Make_iter@?$_Tree@V?$_Tmap_traits@PADUtextStruct@@U?$less@PAD@std@@V?$allocator@U?$pair@QADUtextStruct@@@std@@@3@$0A@@std@@@std@@QBE?AViterator@12@Vconst_iterator@12@@Z 60800032 f   NMS_TextureManager.obj
 0001:fffff032       __ehhandler$?erase@?$list@TSDL_Event@@V?$allocator@TSDL_Event@@@std@@@std@@QAE?AV?$_Iterator@$00@12@V?$_Const_iterator@$00@12@@Z 60800032 f   NMS_Event.obj
 0001:fffff032       __unwindfunclet$?erase@?$_Tree@V?$_Tmap_traits@PADUtextStruct@@U?$less@PAD@std@@V?$allocator@U?$pair@QADUtextStruct@@@std@@@3@$0A@@std@@@std@@QAE?AViterator@12@Vconst_iterator@12@0@Z$3 60800032 f   NMS_Engine.obj
 0001:fffff032       __ehhandler$?erase@?$list@TSDL_Event@@V?$allocator@TSDL_Event@@@std@@@std@@QAE?AV?$_Iterator@$00@12@V?$_Const_iterator@$00@12@@Z 60800032 f   NMS_SceneRenderer.obj
 0001:fffff032       __unwindfunclet$?erase@?$_Tree@V?$_Tmap_traits@PADUtextStruct@@U?$less@PAD@std@@V?$allocator@U?$pair@QADUtextStruct@@@std@@@3@$0A@@std@@@std@@QAE?AViterator@12@Vconst_iterator@12@0@Z$3 60800032 f   NMS_SceneGraph.obj
 0001:fffff032       __unwindfunclet$?erase@?$_Tree@V?$_Tmap_traits@PADUtextStruct@@U?$less@PAD@std@@V?$allocator@U?$pair@QADUtextStruct@@@std@@@3@$0A@@std@@@std@@QAE?AViterator@12@Vconst_iterator@12@0@Z$3 60800032 f   NMS_TextureManager.obj
 0001:fffff033       __ehhandler$??$_Insert@V?$_Const_iterator@$00@?$list@TSDL_Event@@V?$allocator@TSDL_Event@@@std@@@std@@@?$list@TSDL_Event@@V?$allocator@TSDL_Event@@@std@@@std@@QAEXV?$_Const_iterator@$00@01@00Uforward_iterator_tag@1@@Z 60800033 f   NMS_SceneRenderer.obj
 0001:fffff033       __ehhandler$??$_Insert@V?$_Const_iterator@$00@?$list@TSDL_Event@@V?$allocator@TSDL_Event@@@std@@@std@@@?$list@TSDL_Event@@V?$allocator@TSDL_Event@@@std@@@std@@QAEXV?$_Const_iterator@$00@01@00Uforward_iterator_tag@1@@Z 60800033 f   NMS_Event.obj
 0001:fffff033       __ehhandler$??$_Insert@V?$_Const_iterator@$00@?$list@TSDL_Event@@V?$allocator@TSDL_Event@@@std@@@std@@@?$list@TSDL_Event@@V?$allocator@TSDL_Event@@@std@@@std@@QAEXV?$_Const_iterator@$00@01@00Uforward_iterator_tag@1@@Z 60800033 f   NMS_Framework.obj
 0001:fffff034       __ehhandler$??1NMSCameraController@@QAE@XZ 60800034 f   NMS_Engine.obj
 0001:fffff034       __ehhandler$??1NMSCameraController@@QAE@XZ 60800034 f   NMS_Framework.obj
 0001:fffff034       __ehhandler$??0NMSCameraController@@QAE@XZ 60800034 f   NMS_Engine.obj
 0001:fffff034       __ehhandler$??0NMSCameraController@@QAE@XZ 60800034 f   NMS_Framework.obj
 0001:fffff037       __ehhandler$??0NMS_Event@@QAE@ABV0@@Z 60800037 f   NMS_Event.obj
 0001:fffff037       __ehhandler$??1NMS_Event@@QAE@XZ 60800037 f   NMS_Event.obj
 0001:fffff037       __ehhandler$??1NMS_Event@@QAE@XZ 60800037 f   NMS_SceneRenderer.obj
 0001:fffff037       __ehhandler$??0NMS_Event@@QAE@ABV0@@Z 60800037 f   NMS_SceneRenderer.obj
 0001:fffff037       __ehhandler$??1NMS_Event@@QAE@XZ 60800037 f   NMS_Framework.obj
 0001:fffff037       __ehhandler$??0NMS_Event@@QAE@ABV0@@Z 60800037 f   NMS_Framework.obj
 0001:fffff03f       __ehhandler$?erase@?$vector@PAVSceneGraphNode@@V?$allocator@PAVSceneGraphNode@@@std@@@std@@QAE?AV?$_Vector_iterator@PAVSceneGraphNode@@V?$allocator@PAVSceneGraphNode@@@std@@@2@V?$_Vector_const_iterator@PAVSceneGraphNode@@V?$allocator@PAVSceneGraphNode@@@std@@@2@0@Z 6080003f f   NMS_SceneGraph.obj
 0001:fffff03f       __ehhandler$?erase@?$vector@PAVSceneGraphNode@@V?$allocator@PAVSceneGraphNode@@@std@@@std@@QAE?AV?$_Vector_iterator@PAVSceneGraphNode@@V?$allocator@PAVSceneGraphNode@@@std@@@2@V?$_Vector_const_iterator@PAVSceneGraphNode@@V?$allocator@PAVSceneGraphNode@@@std@@@2@0@Z 6080003f f   NMS_Framework.obj
 0001:fffff03f       __ehhandler$?erase@?$vector@PAVSceneGraphNode@@V?$allocator@PAVSceneGraphNode@@@std@@@std@@QAE?AV?$_Vector_iterator@PAVSceneGraphNode@@V?$allocator@PAVSceneGraphNode@@@std@@@2@V?$_Vector_const_iterator@PAVSceneGraphNode@@V?$allocator@PAVSceneGraphNode@@@std@@@2@0@Z 6080003f f   NMS_Engine.obj
 0001:fffff03f       __ehhandler$?erase@?$vector@PAVSceneGraphNode@@V?$allocator@PAVSceneGraphNode@@@std@@@std@@QAE?AV?$_Vector_iterator@PAVSceneGraphNode@@V?$allocator@PAVSceneGraphNode@@@std@@@2@V?$_Vector_const_iterator@PAVSceneGraphNode@@V?$allocator@PAVSceneGraphNode@@@std@@@2@0@Z 6080003f f   NMS_SceneRenderer.obj
 0001:fffff054       __unwindfunclet$?erase@?$_Tree@V?$_Tmap_traits@PADUtextStruct@@U?$less@PAD@std@@V?$allocator@U?$pair@QADUtextStruct@@@std@@@3@$0A@@std@@@std@@QAE?AViterator@12@Vconst_iterator@12@0@Z$4 60800054 f   NMS_TextureManager.obj
 0001:fffff054       __unwindfunclet$?erase@?$_Tree@V?$_Tmap_traits@PADUtextStruct@@U?$less@PAD@std@@V?$allocator@U?$pair@QADUtextStruct@@@std@@@3@$0A@@std@@@std@@QAE?AViterator@12@Vconst_iterator@12@0@Z$4 60800054 f   NMS_SceneRenderer.obj
 0001:fffff054       __unwindfunclet$?erase@?$_Tree@V?$_Tmap_traits@PADUtextStruct@@U?$less@PAD@std@@V?$allocator@U?$pair@QADUtextStruct@@@std@@@3@$0A@@std@@@std@@QAE?AViterator@12@Vconst_iterator@12@0@Z$4 60800054 f   NMS_Engine.obj
 0001:fffff054       __unwindfunclet$?erase@?$_Tree@V?$_Tmap_traits@PADUtextStruct@@U?$less@PAD@std@@V?$allocator@U?$pair@QADUtextStruct@@@std@@@3@$0A@@std@@@std@@QAE?AViterator@12@Vconst_iterator@12@0@Z$4 60800054 f   NMS_Camera.obj
 0001:fffff054       __unwindfunclet$?erase@?$_Tree@V?$_Tmap_traits@PADUtextStruct@@U?$less@PAD@std@@V?$allocator@U?$pair@QADUtextStruct@@@std@@@3@$0A@@std@@@std@@QAE?AViterator@12@Vconst_iterator@12@0@Z$4 60800054 f   NMS_AssetManager.obj
 0001:fffff054       __unwindfunclet$?erase@?$_Tree@V?$_Tmap_traits@PADUtextStruct@@U?$less@PAD@std@@V?$allocator@U?$pair@QADUtextStruct@@@std@@@3@$0A@@std@@@std@@QAE?AViterator@12@Vconst_iterator@12@0@Z$4 60800054 f   NMS_SceneGraph.obj
 0001:fffff054       __unwindfunclet$?erase@?$_Tree@V?$_Tmap_traits@PADUtextStruct@@U?$less@PAD@std@@V?$allocator@U?$pair@QADUtextStruct@@@std@@@3@$0A@@std@@@std@@QAE?AViterator@12@Vconst_iterator@12@0@Z$4 60800054 f   NMS_Framework.obj
 0001:fffff054       __unwindfunclet$?erase@?$_Tree@V?$_Tmap_traits@PADUtextStruct@@U?$less@PAD@std@@V?$allocator@U?$pair@QADUtextStruct@@@std@@@3@$0A@@std@@@std@@QAE?AViterator@12@Vconst_iterator@12@0@Z$4 60800054 f   MD2Model.obj
 0001:fffff063       __catch$??$?4P6AXHH@Z@?$function2@XHH@boost@@QAEAAV01@P6AXHH@Z@Z$0 60800063 f   NMS_Event.obj
 0001:fffff063       __catch$??$?4P6AXW4SDLKey@@@Z@?$function1@XW4SDLKey@@@boost@@QAEAAV01@P6AXW4SDLKey@@@Z@Z$0 60800063 f   NMS_Framework.obj
 0001:fffff063       __catch$??$?4P6AXW4SDLKey@@@Z@?$function1@XW4SDLKey@@@boost@@QAEAAV01@P6AXW4SDLKey@@@Z@Z$0 60800063 f   NMS_Event.obj
 0001:fffff063       __catch$??$?4P6AXHH@Z@?$function2@XHH@boost@@QAEAAV01@P6AXHH@Z@Z$0 60800063 f   NMS_Framework.obj
 0001:fffff063       __catch$??$?4P6AXW4SDLKey@@@Z@?$function1@XW4SDLKey@@@boost@@QAEAAV01@P6AXW4SDLKey@@@Z@Z$0 60800063 f   NMS_SceneRenderer.obj
 0001:fffff063       __catch$??$?4P6AXHH@Z@?$function2@XHH@boost@@QAEAAV01@P6AXHH@Z@Z$0 60800063 f   NMS_SceneRenderer.obj
 0001:fffff063       __catch$??$?4P6AXH@Z@?$function1@XH@boost@@QAEAAV01@P6AXH@Z@Z$0 60800063 f   NMS_SceneRenderer.obj
 0001:fffff063       __catch$??$?4P6AXH@Z@?$function1@XH@boost@@QAEAAV01@P6AXH@Z@Z$0 60800063 f   NMS_Event.obj
 0001:fffff063       __catch$??$?4P6AXH@Z@?$function1@XH@boost@@QAEAAV01@P6AXH@Z@Z$0 60800063 f   NMS_Framework.obj
 0001:fffff070       __catch$??4?$function2@XHH@boost@@QAEAAV01@ABV01@@Z$0 60800070 f   NMS_SceneRenderer.obj
 0001:fffff070       __catch$??4?$function1@XH@boost@@QAEAAV01@ABV01@@Z$0 60800070 f   NMS_SceneRenderer.obj
 0001:fffff070       __catch$??4?$function1@XW4SDLKey@@@boost@@QAEAAV01@ABV01@@Z$0 60800070 f   NMS_Framework.obj
 0001:fffff070       __catch$??4?$function2@XHH@boost@@QAEAAV01@ABV01@@Z$0 60800070 f   NMS_Framework.obj
 0001:fffff070       __catch$??4?$function1@XH@boost@@QAEAAV01@ABV01@@Z$0 60800070 f   NMS_Framework.obj
 0001:fffff070       __catch$??4?$function1@XW4SDLKey@@@boost@@QAEAAV01@ABV01@@Z$0 60800070 f   NMS_SceneRenderer.obj
 0001:fffff070       __catch$??4?$function1@XW4SDLKey@@@boost@@QAEAAV01@ABV01@@Z$0 60800070 f   NMS_Event.obj
 0001:fffff070       __catch$??4?$function2@XHH@boost@@QAEAAV01@ABV01@@Z$0 60800070 f   NMS_Event.obj
 0001:fffff070       __catch$??4?$function1@XH@boost@@QAEAAV01@ABV01@@Z$0 60800070 f   NMS_Event.obj
 0001:fffff073       __ehhandler$?erase@?$_Tree@V?$_Tmap_traits@PADUtextStruct@@U?$less@PAD@std@@V?$allocator@U?$pair@QADUtextStruct@@@std@@@3@$0A@@std@@@std@@QAE?AViterator@12@Vconst_iterator@12@0@Z 60800073 f   NMS_Engine.obj
 0001:fffff073       __ehhandler$?erase@?$_Tree@V?$_Tmap_traits@PADUtextStruct@@U?$less@PAD@std@@V?$allocator@U?$pair@QADUtextStruct@@@std@@@3@$0A@@std@@@std@@QAE?AViterator@12@Vconst_iterator@12@0@Z 60800073 f   NMS_SceneGraph.obj
 0001:fffff073       __ehhandler$?erase@?$_Tree@V?$_Tmap_traits@PADUtextStruct@@U?$less@PAD@std@@V?$allocator@U?$pair@QADUtextStruct@@@std@@@3@$0A@@std@@@std@@QAE?AViterator@12@Vconst_iterator@12@0@Z 60800073 f   MD2Model.obj
 0001:fffff073       __ehhandler$?erase@?$_Tree@V?$_Tmap_traits@PADUtextStruct@@U?$less@PAD@std@@V?$allocator@U?$pair@QADUtextStruct@@@std@@@3@$0A@@std@@@std@@QAE?AViterator@12@Vconst_iterator@12@0@Z 60800073 f   NMS_SceneRenderer.obj
 0001:fffff073       __ehhandler$?erase@?$_Tree@V?$_Tmap_traits@PADUtextStruct@@U?$less@PAD@std@@V?$allocator@U?$pair@QADUtextStruct@@@std@@@3@$0A@@std@@@std@@QAE?AViterator@12@Vconst_iterator@12@0@Z 60800073 f   NMS_AssetManager.obj
 0001:fffff073       __ehhandler$?erase@?$_Tree@V?$_Tmap_traits@PADUtextStruct@@U?$less@PAD@std@@V?$allocator@U?$pair@QADUtextStruct@@@std@@@3@$0A@@std@@@std@@QAE?AViterator@12@Vconst_iterator@12@0@Z 60800073 f   NMS_TextureManager.obj
 0001:fffff073       __ehhandler$?erase@?$_Tree@V?$_Tmap_traits@PADUtextStruct@@U?$less@PAD@std@@V?$allocator@U?$pair@QADUtextStruct@@@std@@@3@$0A@@std@@@std@@QAE?AViterator@12@Vconst_iterator@12@0@Z 60800073 f   NMS_Framework.obj
 0001:fffff073       __ehhandler$?erase@?$_Tree@V?$_Tmap_traits@PADUtextStruct@@U?$less@PAD@std@@V?$allocator@U?$pair@QADUtextStruct@@@std@@@3@$0A@@std@@@std@@QAE?AViterator@12@Vconst_iterator@12@0@Z 60800073 f   NMS_Camera.obj
 0001:fffff091       __catch$??0?$_Tree@V?$_Tmap_traits@PADUtextStruct@@U?$less@PAD@std@@V?$allocator@U?$pair@QADUtextStruct@@@std@@@3@$0A@@std@@@std@@QAE@ABV01@@Z$0 60800091 f   NMS_TextureManager.obj
 0001:fffff091       __catch$??0?$_Tree@V?$_Tmap_traits@PADUtextStruct@@U?$less@PAD@std@@V?$allocator@U?$pair@QADUtextStruct@@@std@@@3@$0A@@std@@@std@@QAE@ABV01@@Z$0 60800091 f   NMS_AssetManager.obj
 0001:fffff091       __catch$??0?$_Tree@V?$_Tmap_traits@PADUtextStruct@@U?$less@PAD@std@@V?$allocator@U?$pair@QADUtextStruct@@@std@@@3@$0A@@std@@@std@@QAE@ABV01@@Z$0 60800091 f   NMS_Framework.obj
 0001:fffff091       __catch$??0?$_Tree@V?$_Tmap_traits@PADUtextStruct@@U?$less@PAD@std@@V?$allocator@U?$pair@QADUtextStruct@@@std@@@3@$0A@@std@@@std@@QAE@ABV01@@Z$0 60800091 f   MD2Model.obj
 0001:fffff091       __catch$??0?$_Tree@V?$_Tmap_traits@PADUtextStruct@@U?$less@PAD@std@@V?$allocator@U?$pair@QADUtextStruct@@@std@@@3@$0A@@std@@@std@@QAE@ABV01@@Z$0 60800091 f   NMS_Camera.obj
 0001:fffff091       __catch$??0?$_Tree@V?$_Tmap_traits@PADUtextStruct@@U?$less@PAD@std@@V?$allocator@U?$pair@QADUtextStruct@@@std@@@3@$0A@@std@@@std@@QAE@ABV01@@Z$0 60800091 f   NMS_SceneRenderer.obj
 0001:fffff091       __catch$??0?$_Tree@V?$_Tmap_traits@PADUtextStruct@@U?$less@PAD@std@@V?$allocator@U?$pair@QADUtextStruct@@@std@@@3@$0A@@std@@@std@@QAE@ABV01@@Z$0 60800091 f   NMS_SceneGraph.obj
 0001:fffff091       __catch$??0?$_Tree@V?$_Tmap_traits@PADUtextStruct@@U?$less@PAD@std@@V?$allocator@U?$pair@QADUtextStruct@@@std@@@3@$0A@@std@@@std@@QAE@ABV01@@Z$0 60800091 f   NMS_Engine.obj
 0001:fffff0bf       __catch$?_Buynode@?$list@TSDL_Event@@V?$allocator@TSDL_Event@@@std@@@std@@IAEPAU_Node@?$_List_nod@TSDL_Event@@V?$allocator@TSDL_Event@@@std@@@2@XZ$0 608000bf f   NMS_Event.obj
 0001:fffff0bf       __catch$?_Buynode@?$list@TSDL_Event@@V?$allocator@TSDL_Event@@@std@@@std@@IAEPAU_Node@?$_List_nod@TSDL_Event@@V?$allocator@TSDL_Event@@@std@@@2@XZ$0 608000bf f   NMS_SceneRenderer.obj
 0001:fffff0bf       __catch$?_Buynode@?$list@TSDL_Event@@V?$allocator@TSDL_Event@@@std@@@std@@IAEPAU_Node@?$_List_nod@TSDL_Event@@V?$allocator@TSDL_Event@@@std@@@2@XZ$0 608000bf f   NMS_Framework.obj
 0001:fffff0ce       __catch$?_Buynode@?$_Tree@V?$_Tmap_traits@PADUtextStruct@@U?$less@PAD@std@@V?$allocator@U?$pair@QADUtextStruct@@@std@@@3@$0A@@std@@@std@@IAEPAU_Node@?$_Tree_nod@V?$_Tmap_traits@PADUtextStruct@@U?$less@PAD@std@@V?$allocator@U?$pair@QADUtextStruct@@@std@@@3@$0A@@std@@@2@PAU342@00ABU?$pair@QADUtextStruct@@@2@D@Z$0 608000ce f   NMS_Framework.obj
 0001:fffff0ce       __catch$?_Buynode@?$_Tree@V?$_Tmap_traits@PADUtextStruct@@U?$less@PAD@std@@V?$allocator@U?$pair@QADUtextStruct@@@std@@@3@$0A@@std@@@std@@IAEPAU_Node@?$_Tree_nod@V?$_Tmap_traits@PADUtextStruct@@U?$less@PAD@std@@V?$allocator@U?$pair@QADUtextStruct@@@std@@@3@$0A@@std@@@2@PAU342@00ABU?$pair@QADUtextStruct@@@2@D@Z$0 608000ce f   NMS_Engine.obj
 0001:fffff0ce       __catch$?_Buynode@?$_Tree@V?$_Tmap_traits@PADUtextStruct@@U?$less@PAD@std@@V?$allocator@U?$pair@QADUtextStruct@@@std@@@3@$0A@@std@@@std@@IAEPAU_Node@?$_Tree_nod@V?$_Tmap_traits@PADUtextStruct@@U?$less@PAD@std@@V?$allocator@U?$pair@QADUtextStruct@@@std@@@3@$0A@@std@@@2@PAU342@00ABU?$pair@QADUtextStruct@@@2@D@Z$0 608000ce f   NMS_TextureManager.obj
 0001:fffff0ce       __catch$?_Buynode@?$_Tree@V?$_Tmap_traits@PADUtextStruct@@U?$less@PAD@std@@V?$allocator@U?$pair@QADUtextStruct@@@std@@@3@$0A@@std@@@std@@IAEPAU_Node@?$_Tree_nod@V?$_Tmap_traits@PADUtextStruct@@U?$less@PAD@std@@V?$allocator@U?$pair@QADUtextStruct@@@std@@@3@$0A@@std@@@2@PAU342@00ABU?$pair@QADUtextStruct@@@2@D@Z$0 608000ce f   NMS_SceneRenderer.obj
 0001:fffff0ce       __catch$?_Buynode@?$_Tree@V?$_Tmap_traits@PADUtextStruct@@U?$less@PAD@std@@V?$allocator@U?$pair@QADUtextStruct@@@std@@@3@$0A@@std@@@std@@IAEPAU_Node@?$_Tree_nod@V?$_Tmap_traits@PADUtextStruct@@U?$less@PAD@std@@V?$allocator@U?$pair@QADUtextStruct@@@std@@@3@$0A@@std@@@2@PAU342@00ABU?$pair@QADUtextStruct@@@2@D@Z$0 608000ce f   MD2Model.obj
 0001:fffff0ce       __catch$?_Buynode@?$_Tree@V?$_Tmap_traits@PADUtextStruct@@U?$less@PAD@std@@V?$allocator@U?$pair@QADUtextStruct@@@std@@@3@$0A@@std@@@std@@IAEPAU_Node@?$_Tree_nod@V?$_Tmap_traits@PADUtextStruct@@U?$less@PAD@std@@V?$allocator@U?$pair@QADUtextStruct@@@std@@@3@$0A@@std@@@2@PAU342@00ABU?$pair@QADUtextStruct@@@2@D@Z$0 608000ce f   NMS_SceneGraph.obj
 0001:fffff0ce       __catch$?_Buynode@?$_Tree@V?$_Tmap_traits@PADUtextStruct@@U?$less@PAD@std@@V?$allocator@U?$pair@QADUtextStruct@@@std@@@3@$0A@@std@@@std@@IAEPAU_Node@?$_Tree_nod@V?$_Tmap_traits@PADUtextStruct@@U?$less@PAD@std@@V?$allocator@U?$pair@QADUtextStruct@@@std@@@3@$0A@@std@@@2@PAU342@00ABU?$pair@QADUtextStruct@@@2@D@Z$0 608000ce f   NMS_AssetManager.obj
 0001:fffff0ce       __catch$?_Buynode@?$_Tree@V?$_Tmap_traits@PADUtextStruct@@U?$less@PAD@std@@V?$allocator@U?$pair@QADUtextStruct@@@std@@@3@$0A@@std@@@std@@IAEPAU_Node@?$_Tree_nod@V?$_Tmap_traits@PADUtextStruct@@U?$less@PAD@std@@V?$allocator@U?$pair@QADUtextStruct@@@std@@@3@$0A@@std@@@2@PAU342@00ABU?$pair@QADUtextStruct@@@2@D@Z$0 608000ce f   NMS_Camera.obj
 0001:fffff0f0       __catch$?_Buynode@?$list@TSDL_Event@@V?$allocator@TSDL_Event@@@std@@@std@@IAEPAU_Node@?$_List_nod@TSDL_Event@@V?$allocator@TSDL_Event@@@std@@@2@PAU342@0ABTSDL_Event@@@Z$0 608000f0 f   NMS_Framework.obj
 0001:fffff0f0       __catch$?_Buynode@?$list@TSDL_Event@@V?$allocator@TSDL_Event@@@std@@@std@@IAEPAU_Node@?$_List_nod@TSDL_Event@@V?$allocator@TSDL_Event@@@std@@@2@PAU342@0ABTSDL_Event@@@Z$0 608000f0 f   NMS_Event.obj
 0001:fffff0f0       __catch$?_Buynode@?$list@TSDL_Event@@V?$allocator@TSDL_Event@@@std@@@std@@IAEPAU_Node@?$_List_nod@TSDL_Event@@V?$allocator@TSDL_Event@@@std@@@2@PAU342@0ABTSDL_Event@@@Z$0 608000f0 f   NMS_SceneRenderer.obj
 0001:fffff0f5       __catch$??0?$vector@PAVSceneGraphNode@@V?$allocator@PAVSceneGraphNode@@@std@@@std@@QAE@ABV01@@Z$0 608000f5 f   NMS_SceneGraph.obj
 0001:fffff0f5       __catch$??0?$vector@PAVSceneGraphNode@@V?$allocator@PAVSceneGraphNode@@@std@@@std@@QAE@ABV01@@Z$0 608000f5 f   NMS_SceneRenderer.obj
 0001:fffff0f5       __catch$??0?$vector@PAVSceneGraphNode@@V?$allocator@PAVSceneGraphNode@@@std@@@std@@QAE@ABV01@@Z$0 608000f5 f   NMS_Engine.obj
 0001:fffff0f5       __catch$??0?$vector@PAVSceneGraphNode@@V?$allocator@PAVSceneGraphNode@@@std@@@std@@QAE@ABV01@@Z$0 608000f5 f   NMS_Framework.obj
 0001:fffff117       __catch$?_Buynode@?$_Tree@V?$_Tmap_traits@PADUtextStruct@@U?$less@PAD@std@@V?$allocator@U?$pair@QADUtextStruct@@@std@@@3@$0A@@std@@@std@@IAEPAU_Node@?$_Tree_nod@V?$_Tmap_traits@PADUtextStruct@@U?$less@PAD@std@@V?$allocator@U?$pair@QADUtextStruct@@@std@@@3@$0A@@std@@@2@XZ$0 60800117 f   NMS_Camera.obj
 0001:fffff117       __catch$?_Buynode@?$_Tree@V?$_Tmap_traits@PADUtextStruct@@U?$less@PAD@std@@V?$allocator@U?$pair@QADUtextStruct@@@std@@@3@$0A@@std@@@std@@IAEPAU_Node@?$_Tree_nod@V?$_Tmap_traits@PADUtextStruct@@U?$less@PAD@std@@V?$allocator@U?$pair@QADUtextStruct@@@std@@@3@$0A@@std@@@2@XZ$0 60800117 f   NMS_Engine.obj
 0001:fffff117       __catch$?_Buynode@?$_Tree@V?$_Tmap_traits@PADUtextStruct@@U?$less@PAD@std@@V?$allocator@U?$pair@QADUtextStruct@@@std@@@3@$0A@@std@@@std@@IAEPAU_Node@?$_Tree_nod@V?$_Tmap_traits@PADUtextStruct@@U?$less@PAD@std@@V?$allocator@U?$pair@QADUtextStruct@@@std@@@3@$0A@@std@@@2@XZ$0 60800117 f   NMS_TextureManager.obj
 0001:fffff117       __catch$?_Buynode@?$_Tree@V?$_Tmap_traits@PADUtextStruct@@U?$less@PAD@std@@V?$allocator@U?$pair@QADUtextStruct@@@std@@@3@$0A@@std@@@std@@IAEPAU_Node@?$_Tree_nod@V?$_Tmap_traits@PADUtextStruct@@U?$less@PAD@std@@V?$allocator@U?$pair@QADUtextStruct@@@std@@@3@$0A@@std@@@2@XZ$0 60800117 f   NMS_AssetManager.obj
 0001:fffff117       __catch$?_Buynode@?$_Tree@V?$_Tmap_traits@PADUtextStruct@@U?$less@PAD@std@@V?$allocator@U?$pair@QADUtextStruct@@@std@@@3@$0A@@std@@@std@@IAEPAU_Node@?$_Tree_nod@V?$_Tmap_traits@PADUtextStruct@@U?$less@PAD@std@@V?$allocator@U?$pair@QADUtextStruct@@@std@@@3@$0A@@std@@@2@XZ$0 60800117 f   NMS_SceneGraph.obj
 0001:fffff117       __catch$?_Buynode@?$_Tree@V?$_Tmap_traits@PADUtextStruct@@U?$less@PAD@std@@V?$allocator@U?$pair@QADUtextStruct@@@std@@@3@$0A@@std@@@std@@IAEPAU_Node@?$_Tree_nod@V?$_Tmap_traits@PADUtextStruct@@U?$less@PAD@std@@V?$allocator@U?$pair@QADUtextStruct@@@std@@@3@$0A@@std@@@2@XZ$0 60800117 f   NMS_SceneRenderer.obj
 0001:fffff117       __catch$?_Buynode@?$_Tree@V?$_Tmap_traits@PADUtextStruct@@U?$less@PAD@std@@V?$allocator@U?$pair@QADUtextStruct@@@std@@@3@$0A@@std@@@std@@IAEPAU_Node@?$_Tree_nod@V?$_Tmap_traits@PADUtextStruct@@U?$less@PAD@std@@V?$allocator@U?$pair@QADUtextStruct@@@std@@@3@$0A@@std@@@2@XZ$0 60800117 f   NMS_Framework.obj
 0001:fffff117       __catch$?_Buynode@?$_Tree@V?$_Tmap_traits@PADUtextStruct@@U?$less@PAD@std@@V?$allocator@U?$pair@QADUtextStruct@@@std@@@3@$0A@@std@@@std@@IAEPAU_Node@?$_Tree_nod@V?$_Tmap_traits@PADUtextStruct@@U?$less@PAD@std@@V?$allocator@U?$pair@QADUtextStruct@@@std@@@3@$0A@@std@@@2@XZ$0 60800117 f   MD2Model.obj
 0001:fffff120       __catch$??$_Insert@V?$_Const_iterator@$00@?$list@TSDL_Event@@V?$allocator@TSDL_Event@@@std@@@std@@@?$list@TSDL_Event@@V?$allocator@TSDL_Event@@@std@@@std@@QAEXV?$_Const_iterator@$00@01@00Uforward_iterator_tag@1@@Z$0 60800120 f   NMS_Framework.obj
 0001:fffff120       __catch$??$_Insert@V?$_Const_iterator@$00@?$list@TSDL_Event@@V?$allocator@TSDL_Event@@@std@@@std@@@?$list@TSDL_Event@@V?$allocator@TSDL_Event@@@std@@@std@@QAEXV?$_Const_iterator@$00@01@00Uforward_iterator_tag@1@@Z$0 60800120 f   NMS_SceneRenderer.obj
 0001:fffff120       __catch$??$_Insert@V?$_Const_iterator@$00@?$list@TSDL_Event@@V?$allocator@TSDL_Event@@@std@@@std@@@?$list@TSDL_Event@@V?$allocator@TSDL_Event@@@std@@@std@@QAEXV?$_Const_iterator@$00@01@00Uforward_iterator_tag@1@@Z$0 60800120 f   NMS_Event.obj
 0001:fffff139       __catch$??0?$list@TSDL_Event@@V?$allocator@TSDL_Event@@@std@@@std@@QAE@ABV01@@Z$0 60800139 f   NMS_Framework.obj
 0001:fffff139       __catch$??0?$list@TSDL_Event@@V?$allocator@TSDL_Event@@@std@@@std@@QAE@ABV01@@Z$0 60800139 f   NMS_SceneRenderer.obj
 0001:fffff139       __catch$??0?$list@TSDL_Event@@V?$allocator@TSDL_Event@@@std@@@std@@QAE@ABV01@@Z$0 60800139 f   NMS_Event.obj
 0001:fffff15c       __catch$?_Copy@?$_Tree@V?$_Tmap_traits@PADUtextStruct@@U?$less@PAD@std@@V?$allocator@U?$pair@QADUtextStruct@@@std@@@3@$0A@@std@@@std@@IAEPAU_Node@?$_Tree_nod@V?$_Tmap_traits@PADUtextStruct@@U?$less@PAD@std@@V?$allocator@U?$pair@QADUtextStruct@@@std@@@3@$0A@@std@@@2@PAU342@0@Z$0 6080015c f   NMS_SceneGraph.obj
 0001:fffff15c       __catch$?_Copy@?$_Tree@V?$_Tmap_traits@PADUtextStruct@@U?$less@PAD@std@@V?$allocator@U?$pair@QADUtextStruct@@@std@@@3@$0A@@std@@@std@@IAEPAU_Node@?$_Tree_nod@V?$_Tmap_traits@PADUtextStruct@@U?$less@PAD@std@@V?$allocator@U?$pair@QADUtextStruct@@@std@@@3@$0A@@std@@@2@PAU342@0@Z$0 6080015c f   NMS_SceneRenderer.obj
 0001:fffff15c       __catch$?_Copy@?$_Tree@V?$_Tmap_traits@PADUtextStruct@@U?$less@PAD@std@@V?$allocator@U?$pair@QADUtextStruct@@@std@@@3@$0A@@std@@@std@@IAEPAU_Node@?$_Tree_nod@V?$_Tmap_traits@PADUtextStruct@@U?$less@PAD@std@@V?$allocator@U?$pair@QADUtextStruct@@@std@@@3@$0A@@std@@@2@PAU342@0@Z$0 6080015c f   NMS_AssetManager.obj
 0001:fffff15c       __catch$?_Copy@?$_Tree@V?$_Tmap_traits@PADUtextStruct@@U?$less@PAD@std@@V?$allocator@U?$pair@QADUtextStruct@@@std@@@3@$0A@@std@@@std@@IAEPAU_Node@?$_Tree_nod@V?$_Tmap_traits@PADUtextStruct@@U?$less@PAD@std@@V?$allocator@U?$pair@QADUtextStruct@@@std@@@3@$0A@@std@@@2@PAU342@0@Z$0 6080015c f   NMS_Engine.obj
 0001:fffff15c       __catch$?_Copy@?$_Tree@V?$_Tmap_traits@PADUtextStruct@@U?$less@PAD@std@@V?$allocator@U?$pair@QADUtextStruct@@@std@@@3@$0A@@std@@@std@@IAEPAU_Node@?$_Tree_nod@V?$_Tmap_traits@PADUtextStruct@@U?$less@PAD@std@@V?$allocator@U?$pair@QADUtextStruct@@@std@@@3@$0A@@std@@@2@PAU342@0@Z$0 6080015c f   NMS_Framework.obj
 0001:fffff15c       __catch$?_Copy@?$_Tree@V?$_Tmap_traits@PADUtextStruct@@U?$less@PAD@std@@V?$allocator@U?$pair@QADUtextStruct@@@std@@@3@$0A@@std@@@std@@IAEPAU_Node@?$_Tree_nod@V?$_Tmap_traits@PADUtextStruct@@U?$less@PAD@std@@V?$allocator@U?$pair@QADUtextStruct@@@std@@@3@$0A@@std@@@2@PAU342@0@Z$0 6080015c f   MD2Model.obj
 0001:fffff15c       __catch$?_Copy@?$_Tree@V?$_Tmap_traits@PADUtextStruct@@U?$less@PAD@std@@V?$allocator@U?$pair@QADUtextStruct@@@std@@@3@$0A@@std@@@std@@IAEPAU_Node@?$_Tree_nod@V?$_Tmap_traits@PADUtextStruct@@U?$less@PAD@std@@V?$allocator@U?$pair@QADUtextStruct@@@std@@@3@$0A@@std@@@2@PAU342@0@Z$0 6080015c f   NMS_TextureManager.obj
 0001:fffff15c       __catch$?_Copy@?$_Tree@V?$_Tmap_traits@PADUtextStruct@@U?$less@PAD@std@@V?$allocator@U?$pair@QADUtextStruct@@@std@@@3@$0A@@std@@@std@@IAEPAU_Node@?$_Tree_nod@V?$_Tmap_traits@PADUtextStruct@@U?$less@PAD@std@@V?$allocator@U?$pair@QADUtextStruct@@@std@@@3@$0A@@std@@@2@PAU342@0@Z$0 6080015c f   NMS_Camera.obj
 0001:fffff2ff       __catch$??$?6U?$char_traits@D@std@@@std@@YAAAV?$basic_ostream@DU?$char_traits@D@std@@@0@AAV10@D@Z$0 608002ff f   nms_math:Point.obj
 0001:fffff2ff       __catch$??$?6U?$char_traits@D@std@@@std@@YAAAV?$basic_ostream@DU?$char_traits@D@std@@@0@AAV10@D@Z$0 608002ff f   nms_math:Matrix.obj
 0001:fffff31e       __catch$??$?6U?$char_traits@D@std@@@std@@YAAAV?$basic_ostream@DU?$char_traits@D@std@@@0@AAV10@PBD@Z$0 6080031e f   nms_math:Vector.obj
 0001:fffff31e       __catch$??$?6U?$char_traits@D@std@@@std@@YAAAV?$basic_ostream@DU?$char_traits@D@std@@@0@AAV10@PBD@Z$0 6080031e f   nms_math:Matrix.obj
 0001:fffff31e       __catch$??$?6U?$char_traits@D@std@@@std@@YAAAV?$basic_ostream@DU?$char_traits@D@std@@@0@AAV10@PBD@Z$0 6080031e f   nms_math:Point.obj
 0001:fffff3a3       __catch$??$?6U?$char_traits@D@std@@@std@@YAAAV?$basic_ostream@DU?$char_traits@D@std@@@0@AAV10@PBD@Z$0 608003a3 f   NMS_Thread.obj
 0001:0000a3a1       __catch$??0?$_Tree@V?$_Tmap_traits@PADUtextStruct@@U?$less@PAD@std@@V?$allocator@U?$pair@QADUtextStruct@@@std@@@3@$0A@@std@@@std@@QAE@ABV01@@Z$0 6080b3a1 f i ColladaModel.obj
 0001:0000a9d5       __catch$??0?$vector@VSource@@V?$allocator@VSource@@@std@@@std@@QAE@ABV01@@Z$0 6080b9d5 f i ColladaModel.obj
 0001:0000b1a5       __catch$??0?$vector@VTriangle@@V?$allocator@VTriangle@@@std@@@std@@QAE@ABV01@@Z$0 6080c1a5 f i ColladaModel.obj
 0001:0000b885       __catch$??0?$vector@VColMesh@@V?$allocator@VColMesh@@@std@@@std@@QAE@ABV01@@Z$0 6080c885 f i ColladaModel.obj
 0001:0000fdec       __catch$?_Copy@?$_Tree@V?$_Tmap_traits@PADUtextStruct@@U?$less@PAD@std@@V?$allocator@U?$pair@QADUtextStruct@@@std@@@3@$0A@@std@@@std@@IAEPAU_Node@?$_Tree_nod@V?$_Tmap_traits@PADUtextStruct@@U?$less@PAD@std@@V?$allocator@U?$pair@QADUtextStruct@@@std@@@3@$0A@@std@@@2@PAU342@0@Z$0 60810dec f i ColladaModel.obj
 0001:00010127       __catch$?_Buynode@?$_Tree@V?$_Tmap_traits@PADUtextStruct@@U?$less@PAD@std@@V?$allocator@U?$pair@QADUtextStruct@@@std@@@3@$0A@@std@@@std@@IAEPAU_Node@?$_Tree_nod@V?$_Tmap_traits@PADUtextStruct@@U?$less@PAD@std@@V?$allocator@U?$pair@QADUtextStruct@@@std@@@3@$0A@@std@@@2@XZ$0 60811127 f i ColladaModel.obj
 0001:000107ac       __catch$?_Insert_n@?$vector@VSource@@V?$allocator@VSource@@@std@@@std@@IAEXV?$_Vector_const_iterator@VSource@@V?$allocator@VSource@@@std@@@2@IABVSource@@@Z$0 608117ac f i ColladaModel.obj
 0001:000108f5       __catch$?_Insert_n@?$vector@VSource@@V?$allocator@VSource@@@std@@@std@@IAEXV?$_Vector_const_iterator@VSource@@V?$allocator@VSource@@@std@@@2@IABVSource@@@Z$2 608118f5 f i ColladaModel.obj
 0001:0001141c       __catch$?_Insert_n@?$vector@VTriangle@@V?$allocator@VTriangle@@@std@@@std@@IAEXV?$_Vector_const_iterator@VTriangle@@V?$allocator@VTriangle@@@std@@@2@IABVTriangle@@@Z$0 6081241c f i ColladaModel.obj
 0001:0001156b       __catch$?_Insert_n@?$vector@VTriangle@@V?$allocator@VTriangle@@@std@@@std@@IAEXV?$_Vector_const_iterator@VTriangle@@V?$allocator@VTriangle@@@std@@@2@IABVTriangle@@@Z$2 6081256b f i ColladaModel.obj
 0001:00011d0c       __catch$?_Insert_n@?$vector@VColMesh@@V?$allocator@VColMesh@@@std@@@std@@IAEXV?$_Vector_const_iterator@VColMesh@@V?$allocator@VColMesh@@@std@@@2@IABVColMesh@@@Z$0 60812d0c f i ColladaModel.obj
 0001:00011e55       __catch$?_Insert_n@?$vector@VColMesh@@V?$allocator@VColMesh@@@std@@@std@@IAEXV?$_Vector_const_iterator@VColMesh@@V?$allocator@VColMesh@@@std@@@2@IABVColMesh@@@Z$2 60812e55 f i ColladaModel.obj
 0001:0001367e       __catch$?_Buynode@?$_Tree@V?$_Tmap_traits@PADUtextStruct@@U?$less@PAD@std@@V?$allocator@U?$pair@QADUtextStruct@@@std@@@3@$0A@@std@@@std@@IAEPAU_Node@?$_Tree_nod@V?$_Tmap_traits@PADUtextStruct@@U?$less@PAD@std@@V?$allocator@U?$pair@QADUtextStruct@@@std@@@3@$0A@@std@@@2@PAU342@00ABU?$pair@QADUtextStruct@@@2@D@Z$0 6081467e f i ColladaModel.obj
 0001:00016a0c       __catch$??$_Uninit_fill_n@PAVSource@@IV1@V?$allocator@VSource@@@std@@@std@@YAXPAVSource@@IABV1@AAV?$allocator@VSource@@@0@U_Nonscalar_ptr_iterator_tag@0@U_Range_checked_iterator_tag@0@@Z$0 60817a0c f i ColladaModel.obj
 0001:00016b4c       __catch$??$_Uninit_fill_n@PAVTriangle@@IV1@V?$allocator@VTriangle@@@std@@@std@@YAXPAVTriangle@@IABV1@AAV?$allocator@VTriangle@@@0@U_Nonscalar_ptr_iterator_tag@0@U_Range_checked_iterator_tag@0@@Z$0 60817b4c f i ColladaModel.obj
 0001:00016c8c       __catch$??$_Uninit_fill_n@PAVColMesh@@IV1@V?$allocator@VColMesh@@@std@@@std@@YAXPAVColMesh@@IABV1@AAV?$allocator@VColMesh@@@0@U_Nonscalar_ptr_iterator_tag@0@U_Range_checked_iterator_tag@0@@Z$0 60817c8c f i ColladaModel.obj
 0001:00017681       __catch$??$_Uninit_copy@V?$_Vector_const_iterator@VSource@@V?$allocator@VSource@@@std@@@std@@PAVSource@@V?$allocator@VSource@@@2@@std@@YAPAVSource@@V?$_Vector_const_iterator@VSource@@V?$allocator@VSource@@@std@@@0@0PAV1@AAV?$allocator@VSource@@@0@U_Nonscalar_ptr_iterator_tag@0@U_Range_checked_iterator_tag@0@@Z$0 60818681 f i ColladaModel.obj
 0001:00017868       __catch$??$_Uninit_copy@PAVSource@@PAV1@V?$allocator@VSource@@@std@@@std@@YAPAVSource@@PAV1@00AAV?$allocator@VSource@@@0@U_Nonscalar_ptr_iterator_tag@0@U_Range_checked_iterator_tag@0@@Z$0 60818868 f i ColladaModel.obj
 0001:00017ae1       __catch$??$_Uninit_copy@V?$_Vector_const_iterator@VTriangle@@V?$allocator@VTriangle@@@std@@@std@@PAVTriangle@@V?$allocator@VTriangle@@@2@@std@@YAPAVTriangle@@V?$_Vector_const_iterator@VTriangle@@V?$allocator@VTriangle@@@std@@@0@0PAV1@AAV?$allocator@VTriangle@@@0@U_Nonscalar_ptr_iterator_tag@0@U_Range_checked_iterator_tag@0@@Z$0 60818ae1 f i ColladaModel.obj
 0001:00017cc8       __catch$??$_Uninit_copy@PAVTriangle@@PAV1@V?$allocator@VTriangle@@@std@@@std@@YAPAVTriangle@@PAV1@00AAV?$allocator@VTriangle@@@0@U_Nonscalar_ptr_iterator_tag@0@U_Range_checked_iterator_tag@0@@Z$0 60818cc8 f i ColladaModel.obj
 0001:00017f41       __catch$??$_Uninit_copy@V?$_Vector_const_iterator@VColMesh@@V?$allocator@VColMesh@@@std@@@std@@PAVColMesh@@V?$allocator@VColMesh@@@2@@std@@YAPAVColMesh@@V?$_Vector_const_iterator@VColMesh@@V?$allocator@VColMesh@@@std@@@0@0PAV1@AAV?$allocator@VColMesh@@@0@U_Nonscalar_ptr_iterator_tag@0@U_Range_checked_iterator_tag@0@@Z$0 60818f41 f i ColladaModel.obj
 0001:00018128       __catch$??$_Uninit_copy@PAVColMesh@@PAV1@V?$allocator@VColMesh@@@std@@@std@@YAPAVColMesh@@PAV1@00AAV?$allocator@VColMesh@@@0@U_Nonscalar_ptr_iterator_tag@0@U_Range_checked_iterator_tag@0@@Z$0 60819128 f i ColladaModel.obj
 0001:0001bf03       __catch$??$?6U?$char_traits@D@std@@@std@@YAAAV?$basic_ostream@DU?$char_traits@D@std@@@0@AAV10@PBD@Z$0 6081cf03 f i NMS_3DObject.obj
 0001:0001c68c       __catch$??$?6U?$char_traits@D@std@@@std@@YAAAV?$basic_ostream@DU?$char_traits@D@std@@@0@AAV10@D@Z$0 6081d68c f i NMS_3DObject.obj
 0001:0001ec75       __catch$??0?$vector@PAVSceneGraphNode@@V?$allocator@PAVSceneGraphNode@@@std@@@std@@QAE@ABV01@@Z$0 6081fc75 f i NMS_Camera.obj
 0001:00021f79       __catch$??0?$list@TSDL_Event@@V?$allocator@TSDL_Event@@@std@@@std@@QAE@ABV01@@Z$0 60822f79 f i NMS_Engine.obj
 0001:00022270       __catch$??4?$function1@XH@boost@@QAEAAV01@ABV01@@Z$0 60823270 f i NMS_Engine.obj
 0001:000223c0       __catch$??4?$function1@XW4SDLKey@@@boost@@QAEAAV01@ABV01@@Z$0 608233c0 f i NMS_Engine.obj
 0001:00022510       __catch$??4?$function2@XHH@boost@@QAEAAV01@ABV01@@Z$0 60823510 f i NMS_Engine.obj
 0001:00022a4f       __catch$?_Buynode@?$list@TSDL_Event@@V?$allocator@TSDL_Event@@@std@@@std@@IAEPAU_Node@?$_List_nod@TSDL_Event@@V?$allocator@TSDL_Event@@@std@@@2@XZ$0 60823a4f f i NMS_Engine.obj
 0001:00023953       __catch$??$?4P6AXH@Z@?$function1@XH@boost@@QAEAAV01@P6AXH@Z@Z$0 60824953 f i NMS_Engine.obj
 0001:00023a03       __catch$??$?4P6AXW4SDLKey@@@Z@?$function1@XW4SDLKey@@@boost@@QAEAAV01@P6AXW4SDLKey@@@Z@Z$0 60824a03 f i NMS_Engine.obj
 0001:00023ab3       __catch$??$?4P6AXHH@Z@?$function2@XHH@boost@@QAEAAV01@P6AXHH@Z@Z$0 60824ab3 f i NMS_Engine.obj
 0001:00024210       __catch$??$_Insert@V?$_Const_iterator@$00@?$list@TSDL_Event@@V?$allocator@TSDL_Event@@@std@@@std@@@?$list@TSDL_Event@@V?$allocator@TSDL_Event@@@std@@@std@@QAEXV?$_Const_iterator@$00@01@00Uforward_iterator_tag@1@@Z$0 60825210 f i NMS_Engine.obj
 0001:00024f30       __catch$?_Buynode@?$list@TSDL_Event@@V?$allocator@TSDL_Event@@@std@@@std@@IAEPAU_Node@?$_List_nod@TSDL_Event@@V?$allocator@TSDL_Event@@@std@@@2@PAU342@0ABTSDL_Event@@@Z$0 60825f30 f i NMS_Engine.obj
 0001:00028327       __catch$??$?4V?$binder1st@V?$mem_fun1_t@XVNMS_Framework@@H@std@@@std@@@?$function1@XH@boost@@QAEAAV01@V?$binder1st@V?$mem_fun1_t@XVNMS_Framework@@H@std@@@std@@@Z$0 60829327 f i NMS_Framework.obj
 0001:0002a6fc       __catch$?_Insert_n@?$vector@PAVSceneGraphNode@@V?$allocator@PAVSceneGraphNode@@@std@@@std@@IAEXV?$_Vector_const_iterator@PAVSceneGraphNode@@V?$allocator@PAVSceneGraphNode@@@std@@@2@IABQAVSceneGraphNode@@@Z$0 6082b6fc f i NMS_SceneGraph.obj
 0001:0002a82e       __catch$?_Insert_n@?$vector@PAVSceneGraphNode@@V?$allocator@PAVSceneGraphNode@@@std@@@std@@IAEXV?$_Vector_const_iterator@PAVSceneGraphNode@@V?$allocator@PAVSceneGraphNode@@@std@@@2@IABQAVSceneGraphNode@@@Z$2 6082b82e f i NMS_SceneGraph.obj
 0001:0002f77a       __catch$?threadProxy@@YAHPAX@Z$0 6083077a f   NMS_Thread.obj
 0001:0002f7d4       __catch$?threadProxy@@YAHPAX@Z$1 608307d4 f   NMS_Thread.obj
 0001:00033a70       ?DebuggerProbe@@YAHK@Z     60834a70 f   MSVCRTD:_error_.obj
 0001:00033b60       ?failwithmessage@@YAXPAXHHPBD@Z 60834b60 f   MSVCRTD:_error_.obj
 0001:00033d70       ?DebuggerRuntime@@YAHKHPAXPB_W@Z 60834d70 f   MSVCRTD:_error_.obj
 0001:00034050       ?_getMemBlockDataString@@YAXPAD00I@Z 60835050 f   MSVCRTD:_error_.obj
 0001:00034430       _pre_c_init                60835430 f   MSVCRTD:crtdll.obj
 0001:00034800       ___DllMainCRTStartup       60835800 f   MSVCRTD:crtdll.obj
 0001:00034b30       ?ArrayUnwindFilter@@YAHPAU_EXCEPTION_POINTERS@@@Z 60835b30 f   MSVCRTD:ehvecdtr.obj
 0001:000350f0       ?GetPdbDll@@YAPAUHINSTANCE__@@XZ 608360f0 f   MSVCRTD:_pdblkup_.obj
 0001:00035370       _has_osfxsr_set            60836370 f   MSVCRTD:cpu_disp.obj
 0001:000358c0       __unwindfunclet$??0Source@@QAE@XZ$0 608368c0 f   ColladaModel.obj
 0001:000358c8       __ehhandler$??0Source@@QAE@XZ 608368c8 f   ColladaModel.obj
 0001:000358f0       __unwindfunclet$??1Source@@QAE@XZ$0 608368f0 f   ColladaModel.obj
 0001:000358f8       __ehhandler$??1Source@@QAE@XZ 608368f8 f   ColladaModel.obj
 0001:00035920       __unwindfunclet$??0Source@@QAE@ABV0@@Z$0 60836920 f   ColladaModel.obj
 0001:00035928       __ehhandler$??0Source@@QAE@ABV0@@Z 60836928 f   ColladaModel.obj
 0001:00035950       __unwindfunclet$??1Triangle@@QAE@XZ$0 60836950 f   ColladaModel.obj
 0001:00035958       __unwindfunclet$??1Triangle@@QAE@XZ$1 60836958 f   ColladaModel.obj
 0001:00035963       __unwindfunclet$??1Triangle@@QAE@XZ$2 60836963 f   ColladaModel.obj
 0001:0003596e       __ehhandler$??1Triangle@@QAE@XZ 6083696e f   ColladaModel.obj
 0001:00035990       __unwindfunclet$??0Triangle@@QAE@ABV0@@Z$0 60836990 f   ColladaModel.obj
 0001:00035998       __unwindfunclet$??0Triangle@@QAE@ABV0@@Z$1 60836998 f   ColladaModel.obj
 0001:000359a3       __unwindfunclet$??0Triangle@@QAE@ABV0@@Z$2 608369a3 f   ColladaModel.obj
 0001:000359ae       __ehhandler$??0Triangle@@QAE@ABV0@@Z 608369ae f   ColladaModel.obj
 0001:000359d0       __unwindfunclet$??1ColMesh@@QAE@XZ$0 608369d0 f   ColladaModel.obj
 0001:000359d8       __unwindfunclet$??1ColMesh@@QAE@XZ$1 608369d8 f   ColladaModel.obj
 0001:000359e3       __ehhandler$??1ColMesh@@QAE@XZ 608369e3 f   ColladaModel.obj
 0001:00035a10       __unwindfunclet$??0ColMesh@@QAE@ABV0@@Z$0 60836a10 f   ColladaModel.obj
 0001:00035a18       __unwindfunclet$??0ColMesh@@QAE@ABV0@@Z$1 60836a18 f   ColladaModel.obj
 0001:00035a23       __ehhandler$??0ColMesh@@QAE@ABV0@@Z 60836a23 f   ColladaModel.obj
 0001:00035a50       __unwindfunclet$??0ColladaModel@@QAE@ABV0@@Z$0 60836a50 f   ColladaModel.obj
 0001:00035a58       __unwindfunclet$??0ColladaModel@@QAE@ABV0@@Z$1 60836a58 f   ColladaModel.obj
 0001:00035a63       __ehhandler$??0ColladaModel@@QAE@ABV0@@Z 60836a63 f   ColladaModel.obj
 0001:00035a90       __unwindfunclet$??0ColladaModel@@QAE@XZ$0 60836a90 f   ColladaModel.obj
 0001:00035a98       __unwindfunclet$??0ColladaModel@@QAE@XZ$1 60836a98 f   ColladaModel.obj
 0001:00035aa3       __ehhandler$??0ColladaModel@@QAE@XZ 60836aa3 f   ColladaModel.obj
 0001:00035ad0       __unwindfunclet$??1ColladaModel@@QAE@XZ$0 60836ad0 f   ColladaModel.obj
 0001:00035ad8       __unwindfunclet$??1ColladaModel@@QAE@XZ$1 60836ad8 f   ColladaModel.obj
 0001:00035ae3       __ehhandler$??1ColladaModel@@QAE@XZ 60836ae3 f   ColladaModel.obj
 0001:00035b10       __unwindfunclet$??0Triangle@@QAE@XZ$0 60836b10 f   ColladaModel.obj
 0001:00035b18       __unwindfunclet$??0Triangle@@QAE@XZ$1 60836b18 f   ColladaModel.obj
 0001:00035b23       __unwindfunclet$??0Triangle@@QAE@XZ$2 60836b23 f   ColladaModel.obj
 0001:00035b2e       __unwindfunclet$??0Triangle@@QAE@XZ$3 60836b2e f   ColladaModel.obj
 0001:00035b39       __unwindfunclet$??0Triangle@@QAE@XZ$4 60836b39 f   ColladaModel.obj
 0001:00035b44       __unwindfunclet$??0Triangle@@QAE@XZ$5 60836b44 f   ColladaModel.obj
 0001:00035b4f       __unwindfunclet$??0Triangle@@QAE@XZ$6 60836b4f f   ColladaModel.obj
 0001:00035b5a       __unwindfunclet$??0Triangle@@QAE@XZ$7 60836b5a f   ColladaModel.obj
 0001:00035b65       __ehhandler$??0Triangle@@QAE@XZ 60836b65 f   ColladaModel.obj
 0001:00035b90       __unwindfunclet$??0ColMesh@@QAE@XZ$0 60836b90 f   ColladaModel.obj
 0001:00035b98       __unwindfunclet$??0ColMesh@@QAE@XZ$1 60836b98 f   ColladaModel.obj
 0001:00035ba3       __unwindfunclet$??0ColMesh@@QAE@XZ$2 60836ba3 f   ColladaModel.obj
 0001:00035bae       __unwindfunclet$??0ColMesh@@QAE@XZ$3 60836bae f   ColladaModel.obj
 0001:00035bb9       __ehhandler$??0ColMesh@@QAE@XZ 60836bb9 f   ColladaModel.obj
 0001:00035be0       __unwindfunclet$?readLibraryGeometries@ColladaModel@@AAEXPAV?$IIrrXMLReader@DVIXMLBase@io@irr@@@io@irr@@@Z$0 60836be0 f   ColladaModel.obj
 0001:00035be8       __unwindfunclet$?readLibraryGeometries@ColladaModel@@AAEXPAV?$IIrrXMLReader@DVIXMLBase@io@irr@@@io@irr@@@Z$1 60836be8 f   ColladaModel.obj
 0001:00035bf3       __unwindfunclet$?readLibraryGeometries@ColladaModel@@AAEXPAV?$IIrrXMLReader@DVIXMLBase@io@irr@@@io@irr@@@Z$2 60836bf3 f   ColladaModel.obj
 0001:00035bfe       __ehhandler$?readLibraryGeometries@ColladaModel@@AAEXPAV?$IIrrXMLReader@DVIXMLBase@io@irr@@@io@irr@@@Z 60836bfe f   ColladaModel.obj
 0001:00035c20       __unwindfunclet$??0?$_Tree@V?$_Tmap_traits@PADUtextStruct@@U?$less@PAD@std@@V?$allocator@U?$pair@QADUtextStruct@@@std@@@3@$0A@@std@@@std@@QAE@ABV01@@Z$2 60836c20 f   ColladaModel.obj
 0001:00035c28       __ehhandler$??0?$_Tree@V?$_Tmap_traits@PADUtextStruct@@U?$less@PAD@std@@V?$allocator@U?$pair@QADUtextStruct@@@std@@@3@$0A@@std@@@std@@QAE@ABV01@@Z 60836c28 f   ColladaModel.obj
 0001:00035c50       __unwindfunclet$??4?$_Tree@V?$_Tmap_traits@PADUtextStruct@@U?$less@PAD@std@@V?$allocator@U?$pair@QADUtextStruct@@@std@@@3@$0A@@std@@@std@@QAEAAV01@ABV01@@Z$0 60836c50 f   ColladaModel.obj
 0001:00035c5b       __unwindfunclet$??4?$_Tree@V?$_Tmap_traits@PADUtextStruct@@U?$less@PAD@std@@V?$allocator@U?$pair@QADUtextStruct@@@std@@@3@$0A@@std@@@std@@QAEAAV01@ABV01@@Z$1 60836c5b f   ColladaModel.obj
 0001:00035c66       __unwindfunclet$??4?$_Tree@V?$_Tmap_traits@PADUtextStruct@@U?$less@PAD@std@@V?$allocator@U?$pair@QADUtextStruct@@@std@@@3@$0A@@std@@@std@@QAEAAV01@ABV01@@Z$2 60836c66 f   ColladaModel.obj
 0001:00035c71       __ehhandler$??4?$_Tree@V?$_Tmap_traits@PADUtextStruct@@U?$less@PAD@std@@V?$allocator@U?$pair@QADUtextStruct@@@std@@@3@$0A@@std@@@std@@QAEAAV01@ABV01@@Z 60836c71 f   ColladaModel.obj
 0001:00035c90       __unwindfunclet$?trim@?$string@D@core@irr@@QAEXXZ$0 60836c90 f   ColladaModel.obj
 0001:00035c9b       __ehhandler$?trim@?$string@D@core@irr@@QAEXXZ 60836c9b f   ColladaModel.obj
 0001:00035cc0       __unwindfunclet$??0?$vector@VSource@@V?$allocator@VSource@@@std@@@std@@QAE@XZ$0 60836cc0 f   ColladaModel.obj
 0001:00035cc8       __ehhandler$??0?$vector@VSource@@V?$allocator@VSource@@@std@@@std@@QAE@XZ 60836cc8 f   ColladaModel.obj
 0001:00035cf0       __unwindfunclet$??0?$vector@VSource@@V?$allocator@VSource@@@std@@@std@@QAE@ABV01@@Z$2 60836cf0 f   ColladaModel.obj
 0001:00035cf8       __unwindfunclet$??0?$vector@VSource@@V?$allocator@VSource@@@std@@@std@@QAE@ABV01@@Z$3 60836cf8 f   ColladaModel.obj
 0001:00035d03       __ehhandler$??0?$vector@VSource@@V?$allocator@VSource@@@std@@@std@@QAE@ABV01@@Z 60836d03 f   ColladaModel.obj
 0001:00035d30       __unwindfunclet$??1?$vector@VSource@@V?$allocator@VSource@@@std@@@std@@QAE@XZ$0 60836d30 f   ColladaModel.obj
 0001:00035d38       __ehhandler$??1?$vector@VSource@@V?$allocator@VSource@@@std@@@std@@QAE@XZ 60836d38 f   ColladaModel.obj
 0001:00035d60       __unwindfunclet$?back@?$vector@VSource@@V?$allocator@VSource@@@std@@@std@@QAEAAVSource@@XZ$0 60836d60 f   ColladaModel.obj
 0001:00035d6b       __unwindfunclet$?back@?$vector@VSource@@V?$allocator@VSource@@@std@@@std@@QAEAAVSource@@XZ$1 60836d6b f   ColladaModel.obj
 0001:00035d76       __ehhandler$?back@?$vector@VSource@@V?$allocator@VSource@@@std@@@std@@QAEAAVSource@@XZ 60836d76 f   ColladaModel.obj
 0001:00035da0       __unwindfunclet$?push_back@?$vector@VSource@@V?$allocator@VSource@@@std@@@std@@QAEXABVSource@@@Z$0 60836da0 f   ColladaModel.obj
 0001:00035dab       __ehhandler$?push_back@?$vector@VSource@@V?$allocator@VSource@@@std@@@std@@QAEXABVSource@@@Z 60836dab f   ColladaModel.obj
 0001:00035dd0       __unwindfunclet$??0?$vector@VTriangle@@V?$allocator@VTriangle@@@std@@@std@@QAE@XZ$0 60836dd0 f   ColladaModel.obj
 0001:00035dd8       __ehhandler$??0?$vector@VTriangle@@V?$allocator@VTriangle@@@std@@@std@@QAE@XZ 60836dd8 f   ColladaModel.obj
 0001:00035e00       __unwindfunclet$??0?$vector@VTriangle@@V?$allocator@VTriangle@@@std@@@std@@QAE@ABV01@@Z$2 60836e00 f   ColladaModel.obj
 0001:00035e08       __unwindfunclet$??0?$vector@VTriangle@@V?$allocator@VTriangle@@@std@@@std@@QAE@ABV01@@Z$3 60836e08 f   ColladaModel.obj
 0001:00035e13       __ehhandler$??0?$vector@VTriangle@@V?$allocator@VTriangle@@@std@@@std@@QAE@ABV01@@Z 60836e13 f   ColladaModel.obj
 0001:00035e40       __unwindfunclet$??1?$vector@VTriangle@@V?$allocator@VTriangle@@@std@@@std@@QAE@XZ$0 60836e40 f   ColladaModel.obj
 0001:00035e48       __ehhandler$??1?$vector@VTriangle@@V?$allocator@VTriangle@@@std@@@std@@QAE@XZ 60836e48 f   ColladaModel.obj
 0001:00035e70       __unwindfunclet$?push_back@?$vector@VTriangle@@V?$allocator@VTriangle@@@std@@@std@@QAEXABVTriangle@@@Z$0 60836e70 f   ColladaModel.obj
 0001:00035e7b       __ehhandler$?push_back@?$vector@VTriangle@@V?$allocator@VTriangle@@@std@@@std@@QAEXABVTriangle@@@Z 60836e7b f   ColladaModel.obj
 0001:00035ea0       __unwindfunclet$??0?$vector@VColMesh@@V?$allocator@VColMesh@@@std@@@std@@QAE@XZ$0 60836ea0 f   ColladaModel.obj
 0001:00035ea8       __ehhandler$??0?$vector@VColMesh@@V?$allocator@VColMesh@@@std@@@std@@QAE@XZ 60836ea8 f   ColladaModel.obj
 0001:00035ed0       __unwindfunclet$??0?$vector@VColMesh@@V?$allocator@VColMesh@@@std@@@std@@QAE@ABV01@@Z$2 60836ed0 f   ColladaModel.obj
 0001:00035ed8       __unwindfunclet$??0?$vector@VColMesh@@V?$allocator@VColMesh@@@std@@@std@@QAE@ABV01@@Z$3 60836ed8 f   ColladaModel.obj
 0001:00035ee3       __ehhandler$??0?$vector@VColMesh@@V?$allocator@VColMesh@@@std@@@std@@QAE@ABV01@@Z 60836ee3 f   ColladaModel.obj
 0001:00035f10       __unwindfunclet$??1?$vector@VColMesh@@V?$allocator@VColMesh@@@std@@@std@@QAE@XZ$0 60836f10 f   ColladaModel.obj
 0001:00035f18       __ehhandler$??1?$vector@VColMesh@@V?$allocator@VColMesh@@@std@@@std@@QAE@XZ 60836f18 f   ColladaModel.obj
 0001:00035f40       __unwindfunclet$?back@?$vector@VColMesh@@V?$allocator@VColMesh@@@std@@@std@@QAEAAVColMesh@@XZ$0 60836f40 f   ColladaModel.obj
 0001:00035f4b       __unwindfunclet$?back@?$vector@VColMesh@@V?$allocator@VColMesh@@@std@@@std@@QAEAAVColMesh@@XZ$1 60836f4b f   ColladaModel.obj
 0001:00035f56       __ehhandler$?back@?$vector@VColMesh@@V?$allocator@VColMesh@@@std@@@std@@QAEAAVColMesh@@XZ 60836f56 f   ColladaModel.obj
 0001:00035f80       __unwindfunclet$?push_back@?$vector@VColMesh@@V?$allocator@VColMesh@@@std@@@std@@QAEXABVColMesh@@@Z$0 60836f80 f   ColladaModel.obj
 0001:00035f8b       __ehhandler$?push_back@?$vector@VColMesh@@V?$allocator@VColMesh@@@std@@@std@@QAEXABVColMesh@@@Z 60836f8b f   ColladaModel.obj
 0001:00035fb0       __unwindfunclet$??4_Iterator_base@std@@QAEAAV01@ABV01@@Z$0 60836fb0 f   ColladaModel.obj
 0001:00035fc2       __ehhandler$??4_Iterator_base@std@@QAEAAV01@ABV01@@Z 60836fc2 f   ColladaModel.obj
 0001:00035fe0       __unwindfunclet$?_Adopt@_Iterator_base@std@@QAEXPBV_Container_base_secure@2@@Z$0 60836fe0 f   ColladaModel.obj
 0001:00035ff2       __ehhandler$?_Adopt@_Iterator_base@std@@QAEXPBV_Container_base_secure@2@@Z 60836ff2 f   ColladaModel.obj
 0001:00036010       __unwindfunclet$??1_Iterator_base@std@@QAE@XZ$0 60837010 f   ColladaModel.obj
 0001:00036022       __ehhandler$??1_Iterator_base@std@@QAE@XZ 60837022 f   ColladaModel.obj
 0001:00036040       __unwindfunclet$?erase@?$_Tree@V?$_Tmap_traits@PADUtextStruct@@U?$less@PAD@std@@V?$allocator@U?$pair@QADUtextStruct@@@std@@@3@$0A@@std@@@std@@QAE?AViterator@12@Vconst_iterator@12@0@Z$0 60837040 f   ColladaModel.obj
 0001:00036048       __unwindfunclet$?erase@?$_Tree@V?$_Tmap_traits@PADUtextStruct@@U?$less@PAD@std@@V?$allocator@U?$pair@QADUtextStruct@@@std@@@3@$0A@@std@@@std@@QAE?AViterator@12@Vconst_iterator@12@0@Z$1 60837048 f   ColladaModel.obj
 0001:00036050       __unwindfunclet$?erase@?$_Tree@V?$_Tmap_traits@PADUtextStruct@@U?$less@PAD@std@@V?$allocator@U?$pair@QADUtextStruct@@@std@@@3@$0A@@std@@@std@@QAE?AViterator@12@Vconst_iterator@12@0@Z$2 60837050 f   ColladaModel.obj
 0001:00036072       __unwindfunclet$?erase@?$_Tree@V?$_Tmap_traits@PADUtextStruct@@U?$less@PAD@std@@V?$allocator@U?$pair@QADUtextStruct@@@std@@@3@$0A@@std@@@std@@QAE?AViterator@12@Vconst_iterator@12@0@Z$3 60837072 f   ColladaModel.obj
 0001:00036094       __unwindfunclet$?erase@?$_Tree@V?$_Tmap_traits@PADUtextStruct@@U?$less@PAD@std@@V?$allocator@U?$pair@QADUtextStruct@@@std@@@3@$0A@@std@@@std@@QAE?AViterator@12@Vconst_iterator@12@0@Z$4 60837094 f   ColladaModel.obj
 0001:000360b3       __ehhandler$?erase@?$_Tree@V?$_Tmap_traits@PADUtextStruct@@U?$less@PAD@std@@V?$allocator@U?$pair@QADUtextStruct@@@std@@@3@$0A@@std@@@std@@QAE?AViterator@12@Vconst_iterator@12@0@Z 608370b3 f   ColladaModel.obj
 0001:000360e0       __unwindfunclet$?_Tidy@?$_Tree@V?$_Tmap_traits@PADUtextStruct@@U?$less@PAD@std@@V?$allocator@U?$pair@QADUtextStruct@@@std@@@3@$0A@@std@@@std@@IAEXXZ$0 608370e0 f   ColladaModel.obj
 0001:000360eb       __unwindfunclet$?_Tidy@?$_Tree@V?$_Tmap_traits@PADUtextStruct@@U?$less@PAD@std@@V?$allocator@U?$pair@QADUtextStruct@@@std@@@3@$0A@@std@@@std@@IAEXXZ$1 608370eb f   ColladaModel.obj
 0001:000360f6       __unwindfunclet$?_Tidy@?$_Tree@V?$_Tmap_traits@PADUtextStruct@@U?$less@PAD@std@@V?$allocator@U?$pair@QADUtextStruct@@@std@@@3@$0A@@std@@@std@@IAEXXZ$2 608370f6 f   ColladaModel.obj
 0001:00036101       __ehhandler$?_Tidy@?$_Tree@V?$_Tmap_traits@PADUtextStruct@@U?$less@PAD@std@@V?$allocator@U?$pair@QADUtextStruct@@@std@@@3@$0A@@std@@@std@@IAEXXZ 60837101 f   ColladaModel.obj
 0001:00036120       __unwindfunclet$?insert@?$vector@VSource@@V?$allocator@VSource@@@std@@@std@@QAE?AV?$_Vector_iterator@VSource@@V?$allocator@VSource@@@std@@@2@V?$_Vector_const_iterator@VSource@@V?$allocator@VSource@@@std@@@2@ABVSource@@@Z$0 60837120 f   ColladaModel.obj
 0001:00036128       __unwindfunclet$?insert@?$vector@VSource@@V?$allocator@VSource@@@std@@@std@@QAE?AV?$_Vector_iterator@VSource@@V?$allocator@VSource@@@std@@@2@V?$_Vector_const_iterator@VSource@@V?$allocator@VSource@@@std@@@2@ABVSource@@@Z$1 60837128 f   ColladaModel.obj
 0001:0003614a       __unwindfunclet$?insert@?$vector@VSource@@V?$allocator@VSource@@@std@@@std@@QAE?AV?$_Vector_iterator@VSource@@V?$allocator@VSource@@@std@@@2@V?$_Vector_const_iterator@VSource@@V?$allocator@VSource@@@std@@@2@ABVSource@@@Z$3 6083714a f   ColladaModel.obj
 0001:00036155       __unwindfunclet$?insert@?$vector@VSource@@V?$allocator@VSource@@@std@@@std@@QAE?AV?$_Vector_iterator@VSource@@V?$allocator@VSource@@@std@@@2@V?$_Vector_const_iterator@VSource@@V?$allocator@VSource@@@std@@@2@ABVSource@@@Z$4 60837155 f   ColladaModel.obj
 0001:00036174       __ehhandler$?insert@?$vector@VSource@@V?$allocator@VSource@@@std@@@std@@QAE?AV?$_Vector_iterator@VSource@@V?$allocator@VSource@@@std@@@2@V?$_Vector_const_iterator@VSource@@V?$allocator@VSource@@@std@@@2@ABVSource@@@Z 60837174 f   ColladaModel.obj
 0001:000361a0       __unwindfunclet$?clear@?$vector@VSource@@V?$allocator@VSource@@@std@@@std@@QAEXXZ$0 608371a0 f   ColladaModel.obj
 0001:000361ab       __unwindfunclet$?clear@?$vector@VSource@@V?$allocator@VSource@@@std@@@std@@QAEXXZ$1 608371ab f   ColladaModel.obj
 0001:000361b6       __unwindfunclet$?clear@?$vector@VSource@@V?$allocator@VSource@@@std@@@std@@QAEXXZ$2 608371b6 f   ColladaModel.obj
 0001:000361c1       __ehhandler$?clear@?$vector@VSource@@V?$allocator@VSource@@@std@@@std@@QAEXXZ 608371c1 f   ColladaModel.obj
 0001:000361e0       __unwindfunclet$?insert@?$vector@VTriangle@@V?$allocator@VTriangle@@@std@@@std@@QAE?AV?$_Vector_iterator@VTriangle@@V?$allocator@VTriangle@@@std@@@2@V?$_Vector_const_iterator@VTriangle@@V?$allocator@VTriangle@@@std@@@2@ABVTriangle@@@Z$0 608371e0 f   ColladaModel.obj
 0001:000361e8       __unwindfunclet$?insert@?$vector@VTriangle@@V?$allocator@VTriangle@@@std@@@std@@QAE?AV?$_Vector_iterator@VTriangle@@V?$allocator@VTriangle@@@std@@@2@V?$_Vector_const_iterator@VTriangle@@V?$allocator@VTriangle@@@std@@@2@ABVTriangle@@@Z$1 608371e8 f   ColladaModel.obj
 0001:0003620a       __unwindfunclet$?insert@?$vector@VTriangle@@V?$allocator@VTriangle@@@std@@@std@@QAE?AV?$_Vector_iterator@VTriangle@@V?$allocator@VTriangle@@@std@@@2@V?$_Vector_const_iterator@VTriangle@@V?$allocator@VTriangle@@@std@@@2@ABVTriangle@@@Z$3 6083720a f   ColladaModel.obj
 0001:00036215       __unwindfunclet$?insert@?$vector@VTriangle@@V?$allocator@VTriangle@@@std@@@std@@QAE?AV?$_Vector_iterator@VTriangle@@V?$allocator@VTriangle@@@std@@@2@V?$_Vector_const_iterator@VTriangle@@V?$allocator@VTriangle@@@std@@@2@ABVTriangle@@@Z$4 60837215 f   ColladaModel.obj
 0001:00036234       __ehhandler$?insert@?$vector@VTriangle@@V?$allocator@VTriangle@@@std@@@std@@QAE?AV?$_Vector_iterator@VTriangle@@V?$allocator@VTriangle@@@std@@@2@V?$_Vector_const_iterator@VTriangle@@V?$allocator@VTriangle@@@std@@@2@ABVTriangle@@@Z 60837234 f   ColladaModel.obj
 0001:00036260       __unwindfunclet$?clear@?$vector@VTriangle@@V?$allocator@VTriangle@@@std@@@std@@QAEXXZ$0 60837260 f   ColladaModel.obj
 0001:0003626b       __unwindfunclet$?clear@?$vector@VTriangle@@V?$allocator@VTriangle@@@std@@@std@@QAEXXZ$1 6083726b f   ColladaModel.obj
 0001:00036276       __unwindfunclet$?clear@?$vector@VTriangle@@V?$allocator@VTriangle@@@std@@@std@@QAEXXZ$2 60837276 f   ColladaModel.obj
 0001:00036281       __ehhandler$?clear@?$vector@VTriangle@@V?$allocator@VTriangle@@@std@@@std@@QAEXXZ 60837281 f   ColladaModel.obj
 0001:000362a0       __unwindfunclet$?insert@?$vector@VColMesh@@V?$allocator@VColMesh@@@std@@@std@@QAE?AV?$_Vector_iterator@VColMesh@@V?$allocator@VColMesh@@@std@@@2@V?$_Vector_const_iterator@VColMesh@@V?$allocator@VColMesh@@@std@@@2@ABVColMesh@@@Z$0 608372a0 f   ColladaModel.obj
 0001:000362a8       __unwindfunclet$?insert@?$vector@VColMesh@@V?$allocator@VColMesh@@@std@@@std@@QAE?AV?$_Vector_iterator@VColMesh@@V?$allocator@VColMesh@@@std@@@2@V?$_Vector_const_iterator@VColMesh@@V?$allocator@VColMesh@@@std@@@2@ABVColMesh@@@Z$1 608372a8 f   ColladaModel.obj
 0001:000362ca       __unwindfunclet$?insert@?$vector@VColMesh@@V?$allocator@VColMesh@@@std@@@std@@QAE?AV?$_Vector_iterator@VColMesh@@V?$allocator@VColMesh@@@std@@@2@V?$_Vector_const_iterator@VColMesh@@V?$allocator@VColMesh@@@std@@@2@ABVColMesh@@@Z$3 608372ca f   ColladaModel.obj
 0001:000362d5       __unwindfunclet$?insert@?$vector@VColMesh@@V?$allocator@VColMesh@@@std@@@std@@QAE?AV?$_Vector_iterator@VColMesh@@V?$allocator@VColMesh@@@std@@@2@V?$_Vector_const_iterator@VColMesh@@V?$allocator@VColMesh@@@std@@@2@ABVColMesh@@@Z$4 608372d5 f   ColladaModel.obj
 0001:000362f4       __ehhandler$?insert@?$vector@VColMesh@@V?$allocator@VColMesh@@@std@@@std@@QAE?AV?$_Vector_iterator@VColMesh@@V?$allocator@VColMesh@@@std@@@2@V?$_Vector_const_iterator@VColMesh@@V?$allocator@VColMesh@@@std@@@2@ABVColMesh@@@Z 608372f4 f   ColladaModel.obj
 0001:00036320       __unwindfunclet$?clear@?$vector@VColMesh@@V?$allocator@VColMesh@@@std@@@std@@QAEXXZ$0 60837320 f   ColladaModel.obj
 0001:0003632b       __unwindfunclet$?clear@?$vector@VColMesh@@V?$allocator@VColMesh@@@std@@@std@@QAEXXZ$1 6083732b f   ColladaModel.obj
 0001:00036336       __unwindfunclet$?clear@?$vector@VColMesh@@V?$allocator@VColMesh@@@std@@@std@@QAEXXZ$2 60837336 f   ColladaModel.obj
 0001:00036341       __ehhandler$?clear@?$vector@VColMesh@@V?$allocator@VColMesh@@@std@@@std@@QAEXXZ 60837341 f   ColladaModel.obj
 0001:00036360       __unwindfunclet$??G?$_Vector_iterator@VSource@@V?$allocator@VSource@@@std@@@std@@QBE?AV01@H@Z$0 60837360 f   ColladaModel.obj
 0001:00036368       __unwindfunclet$??G?$_Vector_iterator@VSource@@V?$allocator@VSource@@@std@@@std@@QBE?AV01@H@Z$1 60837368 f   ColladaModel.obj
 0001:00036387       __ehhandler$??G?$_Vector_iterator@VSource@@V?$allocator@VSource@@@std@@@std@@QBE?AV01@H@Z 60837387 f   ColladaModel.obj
 0001:000363b0       __unwindfunclet$??G?$_Vector_iterator@VColMesh@@V?$allocator@VColMesh@@@std@@@std@@QBE?AV01@H@Z$0 608373b0 f   ColladaModel.obj
 0001:000363b8       __unwindfunclet$??G?$_Vector_iterator@VColMesh@@V?$allocator@VColMesh@@@std@@@std@@QBE?AV01@H@Z$1 608373b8 f   ColladaModel.obj
 0001:000363d7       __ehhandler$??G?$_Vector_iterator@VColMesh@@V?$allocator@VColMesh@@@std@@@std@@QBE?AV01@H@Z 608373d7 f   ColladaModel.obj
 0001:00036400       __unwindfunclet$?_Make_iter@?$_Tree@V?$_Tmap_traits@PADUtextStruct@@U?$less@PAD@std@@V?$allocator@U?$pair@QADUtextStruct@@@std@@@3@$0A@@std@@@std@@QBE?AViterator@12@Vconst_iterator@12@@Z$0 60837400 f   ColladaModel.obj
 0001:00036408       __unwindfunclet$?_Make_iter@?$_Tree@V?$_Tmap_traits@PADUtextStruct@@U?$less@PAD@std@@V?$allocator@U?$pair@QADUtextStruct@@@std@@@3@$0A@@std@@@std@@QBE?AViterator@12@Vconst_iterator@12@@Z$1 60837408 f   ColladaModel.obj
 0001:00036413       __unwindfunclet$?_Make_iter@?$_Tree@V?$_Tmap_traits@PADUtextStruct@@U?$less@PAD@std@@V?$allocator@U?$pair@QADUtextStruct@@@std@@@3@$0A@@std@@@std@@QBE?AViterator@12@Vconst_iterator@12@@Z$2 60837413 f   ColladaModel.obj
 0001:00036432       __ehhandler$?_Make_iter@?$_Tree@V?$_Tmap_traits@PADUtextStruct@@U?$less@PAD@std@@V?$allocator@U?$pair@QADUtextStruct@@@std@@@3@$0A@@std@@@std@@QBE?AViterator@12@Vconst_iterator@12@@Z 60837432 f   ColladaModel.obj
 0001:00036450       __unwindfunclet$?erase@?$_Tree@V?$_Tmap_traits@PADUtextStruct@@U?$less@PAD@std@@V?$allocator@U?$pair@QADUtextStruct@@@std@@@3@$0A@@std@@@std@@QAE?AViterator@12@Vconst_iterator@12@@Z$0 60837450 f   ColladaModel.obj
 0001:00036458       __unwindfunclet$?erase@?$_Tree@V?$_Tmap_traits@PADUtextStruct@@U?$less@PAD@std@@V?$allocator@U?$pair@QADUtextStruct@@@std@@@3@$0A@@std@@@std@@QAE?AViterator@12@Vconst_iterator@12@@Z$2 60837458 f   ColladaModel.obj
 0001:00036477       __ehhandler$?erase@?$_Tree@V?$_Tmap_traits@PADUtextStruct@@U?$less@PAD@std@@V?$allocator@U?$pair@QADUtextStruct@@@std@@@3@$0A@@std@@@std@@QAE?AViterator@12@Vconst_iterator@12@@Z 60837477 f   ColladaModel.obj
 0001:000364a0       __ehhandler$?_Copy@?$_Tree@V?$_Tmap_traits@PADUtextStruct@@U?$less@PAD@std@@V?$allocator@U?$pair@QADUtextStruct@@@std@@@3@$0A@@std@@@std@@IAEPAU_Node@?$_Tree_nod@V?$_Tmap_traits@PADUtextStruct@@U?$less@PAD@std@@V?$allocator@U?$pair@QADUtextStruct@@@std@@@3@$0A@@std@@@2@PAU342@0@Z 608374a0 f   ColladaModel.obj
 0001:000364c0       __ehhandler$?_Buynode@?$_Tree@V?$_Tmap_traits@PADUtextStruct@@U?$less@PAD@std@@V?$allocator@U?$pair@QADUtextStruct@@@std@@@3@$0A@@std@@@std@@IAEPAU_Node@?$_Tree_nod@V?$_Tmap_traits@PADUtextStruct@@U?$less@PAD@std@@V?$allocator@U?$pair@QADUtextStruct@@@std@@@3@$0A@@std@@@2@XZ 608374c0 f   ColladaModel.obj
 0001:000364e0       __unwindfunclet$?erase@?$vector@VSource@@V?$allocator@VSource@@@std@@@std@@QAE?AV?$_Vector_iterator@VSource@@V?$allocator@VSource@@@std@@@2@V?$_Vector_const_iterator@VSource@@V?$allocator@VSource@@@std@@@2@0@Z$0 608374e0 f   ColladaModel.obj
 0001:000364e8       __unwindfunclet$?erase@?$vector@VSource@@V?$allocator@VSource@@@std@@@std@@QAE?AV?$_Vector_iterator@VSource@@V?$allocator@VSource@@@std@@@2@V?$_Vector_const_iterator@VSource@@V?$allocator@VSource@@@std@@@2@0@Z$1 608374e8 f   ColladaModel.obj
 0001:000364f0       __unwindfunclet$?erase@?$vector@VSource@@V?$allocator@VSource@@@std@@@std@@QAE?AV?$_Vector_iterator@VSource@@V?$allocator@VSource@@@std@@@2@V?$_Vector_const_iterator@VSource@@V?$allocator@VSource@@@std@@@2@0@Z$3 608374f0 f   ColladaModel.obj
 0001:000364f8       __unwindfunclet$?erase@?$vector@VSource@@V?$allocator@VSource@@@std@@@std@@QAE?AV?$_Vector_iterator@VSource@@V?$allocator@VSource@@@std@@@2@V?$_Vector_const_iterator@VSource@@V?$allocator@VSource@@@std@@@2@0@Z$5 608374f8 f   ColladaModel.obj
 0001:00036500       __unwindfunclet$?erase@?$vector@VSource@@V?$allocator@VSource@@@std@@@std@@QAE?AV?$_Vector_iterator@VSource@@V?$allocator@VSource@@@std@@@2@V?$_Vector_const_iterator@VSource@@V?$allocator@VSource@@@std@@@2@0@Z$6 60837500 f   ColladaModel.obj
 0001:0003651f       __ehhandler$?erase@?$vector@VSource@@V?$allocator@VSource@@@std@@@std@@QAE?AV?$_Vector_iterator@VSource@@V?$allocator@VSource@@@std@@@2@V?$_Vector_const_iterator@VSource@@V?$allocator@VSource@@@std@@@2@0@Z 6083751f f   ColladaModel.obj
 0001:00036540       __unwindfunclet$?_Insert_n@?$vector@VSource@@V?$allocator@VSource@@@std@@@std@@IAEXV?$_Vector_const_iterator@VSource@@V?$allocator@VSource@@@std@@@2@IABVSource@@@Z$4 60837540 f   ColladaModel.obj
 0001:00036548       __unwindfunclet$?_Insert_n@?$vector@VSource@@V?$allocator@VSource@@@std@@@std@@IAEXV?$_Vector_const_iterator@VSource@@V?$allocator@VSource@@@std@@@2@IABVSource@@@Z$5 60837548 f   ColladaModel.obj
 0001:00036550       __unwindfunclet$?_Insert_n@?$vector@VSource@@V?$allocator@VSource@@@std@@@std@@IAEXV?$_Vector_const_iterator@VSource@@V?$allocator@VSource@@@std@@@2@IABVSource@@@Z$6 60837550 f   ColladaModel.obj
 0001:0003655b       __ehhandler$?_Insert_n@?$vector@VSource@@V?$allocator@VSource@@@std@@@std@@IAEXV?$_Vector_const_iterator@VSource@@V?$allocator@VSource@@@std@@@2@IABVSource@@@Z 6083755b f   ColladaModel.obj
 0001:00036580       __unwindfunclet$?_Xlen@?$vector@VSource@@V?$allocator@VSource@@@std@@@std@@KAXXZ$0 60837580 f   ColladaModel.obj
 0001:00036595       __ehhandler$?_Xlen@?$vector@VSource@@V?$allocator@VSource@@@std@@@std@@KAXXZ 60837595 f   ColladaModel.obj
 0001:000365c0       __unwindfunclet$??0logic_error@std@@QAE@ABV?$basic_string@DU?$char_traits@D@std@@V?$allocator@D@2@@1@@Z$0 608375c0 f   ColladaModel.obj
 0001:000365d2       __ehhandler$??0logic_error@std@@QAE@ABV?$basic_string@DU?$char_traits@D@std@@V?$allocator@D@2@@1@@Z 608375d2 f   ColladaModel.obj
 0001:000365f0       __unwindfunclet$??0logic_error@std@@QAE@ABV01@@Z$0 608375f0 f   ColladaModel.obj
 0001:00036602       __ehhandler$??0logic_error@std@@QAE@ABV01@@Z 60837602 f   ColladaModel.obj
 0001:00036620       __unwindfunclet$?erase@?$vector@VTriangle@@V?$allocator@VTriangle@@@std@@@std@@QAE?AV?$_Vector_iterator@VTriangle@@V?$allocator@VTriangle@@@std@@@2@V?$_Vector_const_iterator@VTriangle@@V?$allocator@VTriangle@@@std@@@2@0@Z$0 60837620 f   ColladaModel.obj
 0001:00036628       __unwindfunclet$?erase@?$vector@VTriangle@@V?$allocator@VTriangle@@@std@@@std@@QAE?AV?$_Vector_iterator@VTriangle@@V?$allocator@VTriangle@@@std@@@2@V?$_Vector_const_iterator@VTriangle@@V?$allocator@VTriangle@@@std@@@2@0@Z$1 60837628 f   ColladaModel.obj
 0001:00036630       __unwindfunclet$?erase@?$vector@VTriangle@@V?$allocator@VTriangle@@@std@@@std@@QAE?AV?$_Vector_iterator@VTriangle@@V?$allocator@VTriangle@@@std@@@2@V?$_Vector_const_iterator@VTriangle@@V?$allocator@VTriangle@@@std@@@2@0@Z$3 60837630 f   ColladaModel.obj
 0001:00036638       __unwindfunclet$?erase@?$vector@VTriangle@@V?$allocator@VTriangle@@@std@@@std@@QAE?AV?$_Vector_iterator@VTriangle@@V?$allocator@VTriangle@@@std@@@2@V?$_Vector_const_iterator@VTriangle@@V?$allocator@VTriangle@@@std@@@2@0@Z$5 60837638 f   ColladaModel.obj
 0001:00036640       __unwindfunclet$?erase@?$vector@VTriangle@@V?$allocator@VTriangle@@@std@@@std@@QAE?AV?$_Vector_iterator@VTriangle@@V?$allocator@VTriangle@@@std@@@2@V?$_Vector_const_iterator@VTriangle@@V?$allocator@VTriangle@@@std@@@2@0@Z$6 60837640 f   ColladaModel.obj
 0001:0003665f       __ehhandler$?erase@?$vector@VTriangle@@V?$allocator@VTriangle@@@std@@@std@@QAE?AV?$_Vector_iterator@VTriangle@@V?$allocator@VTriangle@@@std@@@2@V?$_Vector_const_iterator@VTriangle@@V?$allocator@VTriangle@@@std@@@2@0@Z 6083765f f   ColladaModel.obj
 0001:00036680       __unwindfunclet$?_Insert_n@?$vector@VTriangle@@V?$allocator@VTriangle@@@std@@@std@@IAEXV?$_Vector_const_iterator@VTriangle@@V?$allocator@VTriangle@@@std@@@2@IABVTriangle@@@Z$4 60837680 f   ColladaModel.obj
 0001:00036688       __unwindfunclet$?_Insert_n@?$vector@VTriangle@@V?$allocator@VTriangle@@@std@@@std@@IAEXV?$_Vector_const_iterator@VTriangle@@V?$allocator@VTriangle@@@std@@@2@IABVTriangle@@@Z$5 60837688 f   ColladaModel.obj
 0001:00036693       __unwindfunclet$?_Insert_n@?$vector@VTriangle@@V?$allocator@VTriangle@@@std@@@std@@IAEXV?$_Vector_const_iterator@VTriangle@@V?$allocator@VTriangle@@@std@@@2@IABVTriangle@@@Z$6 60837693 f   ColladaModel.obj
 0001:0003669e       __ehhandler$?_Insert_n@?$vector@VTriangle@@V?$allocator@VTriangle@@@std@@@std@@IAEXV?$_Vector_const_iterator@VTriangle@@V?$allocator@VTriangle@@@std@@@2@IABVTriangle@@@Z 6083769e f   ColladaModel.obj
 0001:000366c0       __unwindfunclet$?_Xlen@?$vector@VTriangle@@V?$allocator@VTriangle@@@std@@@std@@KAXXZ$0 608376c0 f   ColladaModel.obj
 0001:000366d5       __ehhandler$?_Xlen@?$vector@VTriangle@@V?$allocator@VTriangle@@@std@@@std@@KAXXZ 608376d5 f   ColladaModel.obj
 0001:00036700       __unwindfunclet$?erase@?$vector@VColMesh@@V?$allocator@VColMesh@@@std@@@std@@QAE?AV?$_Vector_iterator@VColMesh@@V?$allocator@VColMesh@@@std@@@2@V?$_Vector_const_iterator@VColMesh@@V?$allocator@VColMesh@@@std@@@2@0@Z$0 60837700 f   ColladaModel.obj
 0001:00036708       __unwindfunclet$?erase@?$vector@VColMesh@@V?$allocator@VColMesh@@@std@@@std@@QAE?AV?$_Vector_iterator@VColMesh@@V?$allocator@VColMesh@@@std@@@2@V?$_Vector_const_iterator@VColMesh@@V?$allocator@VColMesh@@@std@@@2@0@Z$1 60837708 f   ColladaModel.obj
 0001:00036710       __unwindfunclet$?erase@?$vector@VColMesh@@V?$allocator@VColMesh@@@std@@@std@@QAE?AV?$_Vector_iterator@VColMesh@@V?$allocator@VColMesh@@@std@@@2@V?$_Vector_const_iterator@VColMesh@@V?$allocator@VColMesh@@@std@@@2@0@Z$3 60837710 f   ColladaModel.obj
 0001:00036718       __unwindfunclet$?erase@?$vector@VColMesh@@V?$allocator@VColMesh@@@std@@@std@@QAE?AV?$_Vector_iterator@VColMesh@@V?$allocator@VColMesh@@@std@@@2@V?$_Vector_const_iterator@VColMesh@@V?$allocator@VColMesh@@@std@@@2@0@Z$5 60837718 f   ColladaModel.obj
 0001:00036720       __unwindfunclet$?erase@?$vector@VColMesh@@V?$allocator@VColMesh@@@std@@@std@@QAE?AV?$_Vector_iterator@VColMesh@@V?$allocator@VColMesh@@@std@@@2@V?$_Vector_const_iterator@VColMesh@@V?$allocator@VColMesh@@@std@@@2@0@Z$6 60837720 f   ColladaModel.obj
 0001:0003673f       __ehhandler$?erase@?$vector@VColMesh@@V?$allocator@VColMesh@@@std@@@std@@QAE?AV?$_Vector_iterator@VColMesh@@V?$allocator@VColMesh@@@std@@@2@V?$_Vector_const_iterator@VColMesh@@V?$allocator@VColMesh@@@std@@@2@0@Z 6083773f f   ColladaModel.obj
 0001:00036760       __unwindfunclet$?_Insert_n@?$vector@VColMesh@@V?$allocator@VColMesh@@@std@@@std@@IAEXV?$_Vector_const_iterator@VColMesh@@V?$allocator@VColMesh@@@std@@@2@IABVColMesh@@@Z$4 60837760 f   ColladaModel.obj
 0001:00036768       __unwindfunclet$?_Insert_n@?$vector@VColMesh@@V?$allocator@VColMesh@@@std@@@std@@IAEXV?$_Vector_const_iterator@VColMesh@@V?$allocator@VColMesh@@@std@@@2@IABVColMesh@@@Z$5 60837768 f   ColladaModel.obj
 0001:00036770       __unwindfunclet$?_Insert_n@?$vector@VColMesh@@V?$allocator@VColMesh@@@std@@@std@@IAEXV?$_Vector_const_iterator@VColMesh@@V?$allocator@VColMesh@@@std@@@2@IABVColMesh@@@Z$6 60837770 f   ColladaModel.obj
 0001:0003677b       __ehhandler$?_Insert_n@?$vector@VColMesh@@V?$allocator@VColMesh@@@std@@@std@@IAEXV?$_Vector_const_iterator@VColMesh@@V?$allocator@VColMesh@@@std@@@2@IABVColMesh@@@Z 6083777b f   ColladaModel.obj
 0001:000367a0       __unwindfunclet$?_Xlen@?$vector@VColMesh@@V?$allocator@VColMesh@@@std@@@std@@KAXXZ$0 608377a0 f   ColladaModel.obj
 0001:000367b5       __ehhandler$?_Xlen@?$vector@VColMesh@@V?$allocator@VColMesh@@@std@@@std@@KAXXZ 608377b5 f   ColladaModel.obj
 0001:000367e0       __unwindfunclet$??Econst_iterator@?$_Tree@V?$_Tmap_traits@PADUtextStruct@@U?$less@PAD@std@@V?$allocator@U?$pair@QADUtextStruct@@@std@@@3@$0A@@std@@@std@@QAE?AV012@H@Z$0 608377e0 f   ColladaModel.obj
 0001:000367e8       __unwindfunclet$??Econst_iterator@?$_Tree@V?$_Tmap_traits@PADUtextStruct@@U?$less@PAD@std@@V?$allocator@U?$pair@QADUtextStruct@@@std@@@3@$0A@@std@@@std@@QAE?AV012@H@Z$1 608377e8 f   ColladaModel.obj
 0001:00036807       __ehhandler$??Econst_iterator@?$_Tree@V?$_Tmap_traits@PADUtextStruct@@U?$less@PAD@std@@V?$allocator@U?$pair@QADUtextStruct@@@std@@@3@$0A@@std@@@std@@QAE?AV012@H@Z 60837807 f   ColladaModel.obj
 0001:00036830       __unwindfunclet$??0?$_Vector_const_iterator@VSource@@V?$allocator@VSource@@@std@@@std@@QAE@PAVSource@@PBV_Container_base_secure@1@@Z$0 60837830 f   ColladaModel.obj
 0001:00036838       __ehhandler$??0?$_Vector_const_iterator@VSource@@V?$allocator@VSource@@@std@@@std@@QAE@PAVSource@@PBV_Container_base_secure@1@@Z 60837838 f   ColladaModel.obj
 0001:00036860       __unwindfunclet$??H?$_Vector_iterator@VSource@@V?$allocator@VSource@@@std@@@std@@QBE?AV01@H@Z$0 60837860 f   ColladaModel.obj
 0001:00036868       __unwindfunclet$??H?$_Vector_iterator@VSource@@V?$allocator@VSource@@@std@@@std@@QBE?AV01@H@Z$1 60837868 f   ColladaModel.obj
 0001:00036887       __ehhandler$??H?$_Vector_iterator@VSource@@V?$allocator@VSource@@@std@@@std@@QBE?AV01@H@Z 60837887 f   ColladaModel.obj
 0001:000368b0       __unwindfunclet$??0?$_Vector_const_iterator@VTriangle@@V?$allocator@VTriangle@@@std@@@std@@QAE@PAVTriangle@@PBV_Container_base_secure@1@@Z$0 608378b0 f   ColladaModel.obj
 0001:000368b8       __ehhandler$??0?$_Vector_const_iterator@VTriangle@@V?$allocator@VTriangle@@@std@@@std@@QAE@PAVTriangle@@PBV_Container_base_secure@1@@Z 608378b8 f   ColladaModel.obj
 0001:000368e0       __unwindfunclet$??H?$_Vector_iterator@VTriangle@@V?$allocator@VTriangle@@@std@@@std@@QBE?AV01@H@Z$0 608378e0 f   ColladaModel.obj
 0001:000368e8       __unwindfunclet$??H?$_Vector_iterator@VTriangle@@V?$allocator@VTriangle@@@std@@@std@@QBE?AV01@H@Z$1 608378e8 f   ColladaModel.obj
 0001:00036907       __ehhandler$??H?$_Vector_iterator@VTriangle@@V?$allocator@VTriangle@@@std@@@std@@QBE?AV01@H@Z 60837907 f   ColladaModel.obj
 0001:00036930       __unwindfunclet$??0?$_Vector_const_iterator@VColMesh@@V?$allocator@VColMesh@@@std@@@std@@QAE@PAVColMesh@@PBV_Container_base_secure@1@@Z$0 60837930 f   ColladaModel.obj
 0001:00036938       __ehhandler$??0?$_Vector_const_iterator@VColMesh@@V?$allocator@VColMesh@@@std@@@std@@QAE@PAVColMesh@@PBV_Container_base_secure@1@@Z 60837938 f   ColladaModel.obj
 0001:00036960       __unwindfunclet$??H?$_Vector_iterator@VColMesh@@V?$allocator@VColMesh@@@std@@@std@@QBE?AV01@H@Z$0 60837960 f   ColladaModel.obj
 0001:00036968       __unwindfunclet$??H?$_Vector_iterator@VColMesh@@V?$allocator@VColMesh@@@std@@@std@@QBE?AV01@H@Z$1 60837968 f   ColladaModel.obj
 0001:00036987       __ehhandler$??H?$_Vector_iterator@VColMesh@@V?$allocator@VColMesh@@@std@@@std@@QBE?AV01@H@Z 60837987 f   ColladaModel.obj
 0001:000369b0       __unwindfunclet$?_Buynode@?$_Tree@V?$_Tmap_traits@PADUtextStruct@@U?$less@PAD@std@@V?$allocator@U?$pair@QADUtextStruct@@@std@@@3@$0A@@std@@@std@@IAEPAU_Node@?$_Tree_nod@V?$_Tmap_traits@PADUtextStruct@@U?$less@PAD@std@@V?$allocator@U?$pair@QADUtextStruct@@@std@@@3@$0A@@std@@@2@PAU342@00ABU?$pair@QADUtextStruct@@@2@D@Z$2 608379b0 f   ColladaModel.obj
 0001:000369c4       __ehhandler$?_Buynode@?$_Tree@V?$_Tmap_traits@PADUtextStruct@@U?$less@PAD@std@@V?$allocator@U?$pair@QADUtextStruct@@@std@@@3@$0A@@std@@@std@@IAEPAU_Node@?$_Tree_nod@V?$_Tmap_traits@PADUtextStruct@@U?$less@PAD@std@@V?$allocator@U?$pair@QADUtextStruct@@@std@@@3@$0A@@std@@@2@PAU342@00ABU?$pair@QADUtextStruct@@@2@D@Z 608379c4 f   ColladaModel.obj
 0001:000369f0       __unwindfunclet$?_Make_iter@?$vector@VSource@@V?$allocator@VSource@@@std@@@std@@QBE?AV?$_Vector_iterator@VSource@@V?$allocator@VSource@@@std@@@2@V?$_Vector_const_iterator@VSource@@V?$allocator@VSource@@@std@@@2@@Z$0 608379f0 f   ColladaModel.obj
 0001:000369f8       __unwindfunclet$?_Make_iter@?$vector@VSource@@V?$allocator@VSource@@@std@@@std@@QBE?AV?$_Vector_iterator@VSource@@V?$allocator@VSource@@@std@@@2@V?$_Vector_const_iterator@VSource@@V?$allocator@VSource@@@std@@@2@@Z$1 608379f8 f   ColladaModel.obj
 0001:00036a17       __ehhandler$?_Make_iter@?$vector@VSource@@V?$allocator@VSource@@@std@@@std@@QBE?AV?$_Vector_iterator@VSource@@V?$allocator@VSource@@@std@@@2@V?$_Vector_const_iterator@VSource@@V?$allocator@VSource@@@std@@@2@@Z 60837a17 f   ColladaModel.obj
 0001:00036a40       __unwindfunclet$?_Make_iter@?$vector@VTriangle@@V?$allocator@VTriangle@@@std@@@std@@QBE?AV?$_Vector_iterator@VTriangle@@V?$allocator@VTriangle@@@std@@@2@V?$_Vector_const_iterator@VTriangle@@V?$allocator@VTriangle@@@std@@@2@@Z$0 60837a40 f   ColladaModel.obj
 0001:00036a48       __unwindfunclet$?_Make_iter@?$vector@VTriangle@@V?$allocator@VTriangle@@@std@@@std@@QBE?AV?$_Vector_iterator@VTriangle@@V?$allocator@VTriangle@@@std@@@2@V?$_Vector_const_iterator@VTriangle@@V?$allocator@VTriangle@@@std@@@2@@Z$1 60837a48 f   ColladaModel.obj
 0001:00036a67       __ehhandler$?_Make_iter@?$vector@VTriangle@@V?$allocator@VTriangle@@@std@@@std@@QBE?AV?$_Vector_iterator@VTriangle@@V?$allocator@VTriangle@@@std@@@2@V?$_Vector_const_iterator@VTriangle@@V?$allocator@VTriangle@@@std@@@2@@Z 60837a67 f   ColladaModel.obj
 0001:00036a90       __unwindfunclet$?_Make_iter@?$vector@VColMesh@@V?$allocator@VColMesh@@@std@@@std@@QBE?AV?$_Vector_iterator@VColMesh@@V?$allocator@VColMesh@@@std@@@2@V?$_Vector_const_iterator@VColMesh@@V?$allocator@VColMesh@@@std@@@2@@Z$0 60837a90 f   ColladaModel.obj
 0001:00036a98       __unwindfunclet$?_Make_iter@?$vector@VColMesh@@V?$allocator@VColMesh@@@std@@@std@@QBE?AV?$_Vector_iterator@VColMesh@@V?$allocator@VColMesh@@@std@@@2@V?$_Vector_const_iterator@VColMesh@@V?$allocator@VColMesh@@@std@@@2@@Z$1 60837a98 f   ColladaModel.obj
 0001:00036ab7       __ehhandler$?_Make_iter@?$vector@VColMesh@@V?$allocator@VColMesh@@@std@@@std@@QBE?AV?$_Vector_iterator@VColMesh@@V?$allocator@VColMesh@@@std@@@2@V?$_Vector_const_iterator@VColMesh@@V?$allocator@VColMesh@@@std@@@2@@Z 60837ab7 f   ColladaModel.obj
 0001:00036ae0       __unwindfunclet$??0const_iterator@?$_Tree@V?$_Tmap_traits@PADUtextStruct@@U?$less@PAD@std@@V?$allocator@U?$pair@QADUtextStruct@@@std@@@3@$0A@@std@@@std@@QAE@PAU_Node@?$_Tree_nod@V?$_Tmap_traits@PADUtextStruct@@U?$less@PAD@std@@V?$allocator@U?$pair@QADUtextStruct@@@std@@@3@$0A@@std@@@2@PBV12@@Z$0 60837ae0 f   ColladaModel.obj
 0001:00036ae8       __ehhandler$??0const_iterator@?$_Tree@V?$_Tmap_traits@PADUtextStruct@@U?$less@PAD@std@@V?$allocator@U?$pair@QADUtextStruct@@@std@@@3@$0A@@std@@@std@@QAE@PAU_Node@?$_Tree_nod@V?$_Tmap_traits@PADUtextStruct@@U?$less@PAD@std@@V?$allocator@U?$pair@QADUtextStruct@@@std@@@3@$0A@@std@@@2@PBV12@@Z 60837ae8 f   ColladaModel.obj
 0001:00036b10       __unwindfunclet$??$_Ucopy@V?$_Vector_const_iterator@VSource@@V?$allocator@VSource@@@std@@@std@@@?$vector@VSource@@V?$allocator@VSource@@@std@@@std@@IAEPAVSource@@V?$_Vector_const_iterator@VSource@@V?$allocator@VSource@@@std@@@1@0PAV2@@Z$0 60837b10 f   ColladaModel.obj
 0001:00036b18       __unwindfunclet$??$_Ucopy@V?$_Vector_const_iterator@VSource@@V?$allocator@VSource@@@std@@@std@@@?$vector@VSource@@V?$allocator@VSource@@@std@@@std@@IAEPAVSource@@V?$_Vector_const_iterator@VSource@@V?$allocator@VSource@@@std@@@1@0PAV2@@Z$1 60837b18 f   ColladaModel.obj
 0001:00036b20       __unwindfunclet$??$_Ucopy@V?$_Vector_const_iterator@VSource@@V?$allocator@VSource@@@std@@@std@@@?$vector@VSource@@V?$allocator@VSource@@@std@@@std@@IAEPAVSource@@V?$_Vector_const_iterator@VSource@@V?$allocator@VSource@@@std@@@1@0PAV2@@Z$2 60837b20 f   ColladaModel.obj
 0001:00036b2b       __ehhandler$??$_Ucopy@V?$_Vector_const_iterator@VSource@@V?$allocator@VSource@@@std@@@std@@@?$vector@VSource@@V?$allocator@VSource@@@std@@@std@@IAEPAVSource@@V?$_Vector_const_iterator@VSource@@V?$allocator@VSource@@@std@@@1@0PAV2@@Z 60837b2b f   ColladaModel.obj
 0001:00036b50       __unwindfunclet$??$_Ucopy@V?$_Vector_const_iterator@VTriangle@@V?$allocator@VTriangle@@@std@@@std@@@?$vector@VTriangle@@V?$allocator@VTriangle@@@std@@@std@@IAEPAVTriangle@@V?$_Vector_const_iterator@VTriangle@@V?$allocator@VTriangle@@@std@@@1@0PAV2@@Z$0 60837b50 f   ColladaModel.obj
 0001:00036b58       __unwindfunclet$??$_Ucopy@V?$_Vector_const_iterator@VTriangle@@V?$allocator@VTriangle@@@std@@@std@@@?$vector@VTriangle@@V?$allocator@VTriangle@@@std@@@std@@IAEPAVTriangle@@V?$_Vector_const_iterator@VTriangle@@V?$allocator@VTriangle@@@std@@@1@0PAV2@@Z$1 60837b58 f   ColladaModel.obj
 0001:00036b60       __unwindfunclet$??$_Ucopy@V?$_Vector_const_iterator@VTriangle@@V?$allocator@VTriangle@@@std@@@std@@@?$vector@VTriangle@@V?$allocator@VTriangle@@@std@@@std@@IAEPAVTriangle@@V?$_Vector_const_iterator@VTriangle@@V?$allocator@VTriangle@@@std@@@1@0PAV2@@Z$2 60837b60 f   ColladaModel.obj
 0001:00036b6b       __ehhandler$??$_Ucopy@V?$_Vector_const_iterator@VTriangle@@V?$allocator@VTriangle@@@std@@@std@@@?$vector@VTriangle@@V?$allocator@VTriangle@@@std@@@std@@IAEPAVTriangle@@V?$_Vector_const_iterator@VTriangle@@V?$allocator@VTriangle@@@std@@@1@0PAV2@@Z 60837b6b f   ColladaModel.obj
 0001:00036b90       __unwindfunclet$??$_Ucopy@V?$_Vector_const_iterator@VColMesh@@V?$allocator@VColMesh@@@std@@@std@@@?$vector@VColMesh@@V?$allocator@VColMesh@@@std@@@std@@IAEPAVColMesh@@V?$_Vector_const_iterator@VColMesh@@V?$allocator@VColMesh@@@std@@@1@0PAV2@@Z$0 60837b90 f   ColladaModel.obj
 0001:00036b98       __unwindfunclet$??$_Ucopy@V?$_Vector_const_iterator@VColMesh@@V?$allocator@VColMesh@@@std@@@std@@@?$vector@VColMesh@@V?$allocator@VColMesh@@@std@@@std@@IAEPAVColMesh@@V?$_Vector_const_iterator@VColMesh@@V?$allocator@VColMesh@@@std@@@1@0PAV2@@Z$1 60837b98 f   ColladaModel.obj
 0001:00036ba0       __unwindfunclet$??$_Ucopy@V?$_Vector_const_iterator@VColMesh@@V?$allocator@VColMesh@@@std@@@std@@@?$vector@VColMesh@@V?$allocator@VColMesh@@@std@@@std@@IAEPAVColMesh@@V?$_Vector_const_iterator@VColMesh@@V?$allocator@VColMesh@@@std@@@1@0PAV2@@Z$2 60837ba0 f   ColladaModel.obj
 0001:00036bab       __ehhandler$??$_Ucopy@V?$_Vector_const_iterator@VColMesh@@V?$allocator@VColMesh@@@std@@@std@@@?$vector@VColMesh@@V?$allocator@VColMesh@@@std@@@std@@IAEPAVColMesh@@V?$_Vector_const_iterator@VColMesh@@V?$allocator@VColMesh@@@std@@@1@0PAV2@@Z 60837bab f   ColladaModel.obj
 0001:00036bd0       __unwindfunclet$??$unchecked_uninitialized_copy@V?$_Vector_const_iterator@VSource@@V?$allocator@VSource@@@std@@@std@@PAVSource@@V?$allocator@VSource@@@2@@stdext@@YAPAVSource@@V?$_Vector_const_iterator@VSource@@V?$allocator@VSource@@@std@@@std@@0PAV1@AAV?$allocator@VSource@@@3@@Z$0 60837bd0 f   ColladaModel.obj
 0001:00036bd8       __unwindfunclet$??$unchecked_uninitialized_copy@V?$_Vector_const_iterator@VSource@@V?$allocator@VSource@@@std@@@std@@PAVSource@@V?$allocator@VSource@@@2@@stdext@@YAPAVSource@@V?$_Vector_const_iterator@VSource@@V?$allocator@VSource@@@std@@@std@@0PAV1@AAV?$allocator@VSource@@@3@@Z$1 60837bd8 f   ColladaModel.obj
 0001:00036be0       __unwindfunclet$??$unchecked_uninitialized_copy@V?$_Vector_const_iterator@VSource@@V?$allocator@VSource@@@std@@@std@@PAVSource@@V?$allocator@VSource@@@2@@stdext@@YAPAVSource@@V?$_Vector_const_iterator@VSource@@V?$allocator@VSource@@@std@@@std@@0PAV1@AAV?$allocator@VSource@@@3@@Z$2 60837be0 f   ColladaModel.obj
 0001:00036beb       __ehhandler$??$unchecked_uninitialized_copy@V?$_Vector_const_iterator@VSource@@V?$allocator@VSource@@@std@@@std@@PAVSource@@V?$allocator@VSource@@@2@@stdext@@YAPAVSource@@V?$_Vector_const_iterator@VSource@@V?$allocator@VSource@@@std@@@std@@0PAV1@AAV?$allocator@VSource@@@3@@Z 60837beb f   ColladaModel.obj
 0001:00036c10       __unwindfunclet$??$unchecked_uninitialized_copy@V?$_Vector_const_iterator@VTriangle@@V?$allocator@VTriangle@@@std@@@std@@PAVTriangle@@V?$allocator@VTriangle@@@2@@stdext@@YAPAVTriangle@@V?$_Vector_const_iterator@VTriangle@@V?$allocator@VTriangle@@@std@@@std@@0PAV1@AAV?$allocator@VTriangle@@@3@@Z$0 60837c10 f   ColladaModel.obj
 0001:00036c18       __unwindfunclet$??$unchecked_uninitialized_copy@V?$_Vector_const_iterator@VTriangle@@V?$allocator@VTriangle@@@std@@@std@@PAVTriangle@@V?$allocator@VTriangle@@@2@@stdext@@YAPAVTriangle@@V?$_Vector_const_iterator@VTriangle@@V?$allocator@VTriangle@@@std@@@std@@0PAV1@AAV?$allocator@VTriangle@@@3@@Z$1 60837c18 f   ColladaModel.obj
 0001:00036c20       __unwindfunclet$??$unchecked_uninitialized_copy@V?$_Vector_const_iterator@VTriangle@@V?$allocator@VTriangle@@@std@@@std@@PAVTriangle@@V?$allocator@VTriangle@@@2@@stdext@@YAPAVTriangle@@V?$_Vector_const_iterator@VTriangle@@V?$allocator@VTriangle@@@std@@@std@@0PAV1@AAV?$allocator@VTriangle@@@3@@Z$2 60837c20 f   ColladaModel.obj
 0001:00036c2b       __ehhandler$??$unchecked_uninitialized_copy@V?$_Vector_const_iterator@VTriangle@@V?$allocator@VTriangle@@@std@@@std@@PAVTriangle@@V?$allocator@VTriangle@@@2@@stdext@@YAPAVTriangle@@V?$_Vector_const_iterator@VTriangle@@V?$allocator@VTriangle@@@std@@@std@@0PAV1@AAV?$allocator@VTriangle@@@3@@Z 60837c2b f   ColladaModel.obj
 0001:00036c50       __unwindfunclet$??$unchecked_uninitialized_copy@V?$_Vector_const_iterator@VColMesh@@V?$allocator@VColMesh@@@std@@@std@@PAVColMesh@@V?$allocator@VColMesh@@@2@@stdext@@YAPAVColMesh@@V?$_Vector_const_iterator@VColMesh@@V?$allocator@VColMesh@@@std@@@std@@0PAV1@AAV?$allocator@VColMesh@@@3@@Z$0 60837c50 f   ColladaModel.obj
 0001:00036c58       __unwindfunclet$??$unchecked_uninitialized_copy@V?$_Vector_const_iterator@VColMesh@@V?$allocator@VColMesh@@@std@@@std@@PAVColMesh@@V?$allocator@VColMesh@@@2@@stdext@@YAPAVColMesh@@V?$_Vector_const_iterator@VColMesh@@V?$allocator@VColMesh@@@std@@@std@@0PAV1@AAV?$allocator@VColMesh@@@3@@Z$1 60837c58 f   ColladaModel.obj
 0001:00036c60       __unwindfunclet$??$unchecked_uninitialized_copy@V?$_Vector_const_iterator@VColMesh@@V?$allocator@VColMesh@@@std@@@std@@PAVColMesh@@V?$allocator@VColMesh@@@2@@stdext@@YAPAVColMesh@@V?$_Vector_const_iterator@VColMesh@@V?$allocator@VColMesh@@@std@@@std@@0PAV1@AAV?$allocator@VColMesh@@@3@@Z$2 60837c60 f   ColladaModel.obj
 0001:00036c6b       __ehhandler$??$unchecked_uninitialized_copy@V?$_Vector_const_iterator@VColMesh@@V?$allocator@VColMesh@@@std@@@std@@PAVColMesh@@V?$allocator@VColMesh@@@2@@stdext@@YAPAVColMesh@@V?$_Vector_const_iterator@VColMesh@@V?$allocator@VColMesh@@@std@@@std@@0PAV1@AAV?$allocator@VColMesh@@@3@@Z 60837c6b f   ColladaModel.obj
 0001:00036c90       __ehhandler$??$_Uninit_fill_n@PAVSource@@IV1@V?$allocator@VSource@@@std@@@std@@YAXPAVSource@@IABV1@AAV?$allocator@VSource@@@0@U_Nonscalar_ptr_iterator_tag@0@U_Range_checked_iterator_tag@0@@Z 60837c90 f   ColladaModel.obj
 0001:00036cb0       __ehhandler$??$_Uninit_fill_n@PAVTriangle@@IV1@V?$allocator@VTriangle@@@std@@@std@@YAXPAVTriangle@@IABV1@AAV?$allocator@VTriangle@@@0@U_Nonscalar_ptr_iterator_tag@0@U_Range_checked_iterator_tag@0@@Z 60837cb0 f   ColladaModel.obj
 0001:00036cd0       __ehhandler$??$_Uninit_fill_n@PAVColMesh@@IV1@V?$allocator@VColMesh@@@std@@@std@@YAXPAVColMesh@@IABV1@AAV?$allocator@VColMesh@@@0@U_Nonscalar_ptr_iterator_tag@0@U_Range_checked_iterator_tag@0@@Z 60837cd0 f   ColladaModel.obj
 0001:00036cf0       __unwindfunclet$??$_Uninit_copy@V?$_Vector_const_iterator@VSource@@V?$allocator@VSource@@@std@@@std@@PAVSource@@V?$allocator@VSource@@@2@@std@@YAPAVSource@@V?$_Vector_const_iterator@VSource@@V?$allocator@VSource@@@std@@@0@0PAV1@AAV?$allocator@VSource@@@0@U_Nonscalar_ptr_iterator_tag@0@U_Range_checked_iterator_tag@0@@Z$2 60837cf0 f   ColladaModel.obj
 0001:00036cf8       __unwindfunclet$??$_Uninit_copy@V?$_Vector_const_iterator@VSource@@V?$allocator@VSource@@@std@@@std@@PAVSource@@V?$allocator@VSource@@@2@@std@@YAPAVSource@@V?$_Vector_const_iterator@VSource@@V?$allocator@VSource@@@std@@@0@0PAV1@AAV?$allocator@VSource@@@0@U_Nonscalar_ptr_iterator_tag@0@U_Range_checked_iterator_tag@0@@Z$3 60837cf8 f   ColladaModel.obj
 0001:00036d00       __unwindfunclet$??$_Uninit_copy@V?$_Vector_const_iterator@VSource@@V?$allocator@VSource@@@std@@@std@@PAVSource@@V?$allocator@VSource@@@2@@std@@YAPAVSource@@V?$_Vector_const_iterator@VSource@@V?$allocator@VSource@@@std@@@0@0PAV1@AAV?$allocator@VSource@@@0@U_Nonscalar_ptr_iterator_tag@0@U_Range_checked_iterator_tag@0@@Z$4 60837d00 f   ColladaModel.obj
 0001:00036d0b       __ehhandler$??$_Uninit_copy@V?$_Vector_const_iterator@VSource@@V?$allocator@VSource@@@std@@@std@@PAVSource@@V?$allocator@VSource@@@2@@std@@YAPAVSource@@V?$_Vector_const_iterator@VSource@@V?$allocator@VSource@@@std@@@0@0PAV1@AAV?$allocator@VSource@@@0@U_Nonscalar_ptr_iterator_tag@0@U_Range_checked_iterator_tag@0@@Z 60837d0b f   ColladaModel.obj
 0001:00036d30       __ehhandler$??$_Uninit_copy@PAVSource@@PAV1@V?$allocator@VSource@@@std@@@std@@YAPAVSource@@PAV1@00AAV?$allocator@VSource@@@0@U_Nonscalar_ptr_iterator_tag@0@U_Range_checked_iterator_tag@0@@Z 60837d30 f   ColladaModel.obj
 0001:00036d50       __unwindfunclet$??$_Uninit_copy@V?$_Vector_const_iterator@VTriangle@@V?$allocator@VTriangle@@@std@@@std@@PAVTriangle@@V?$allocator@VTriangle@@@2@@std@@YAPAVTriangle@@V?$_Vector_const_iterator@VTriangle@@V?$allocator@VTriangle@@@std@@@0@0PAV1@AAV?$allocator@VTriangle@@@0@U_Nonscalar_ptr_iterator_tag@0@U_Range_checked_iterator_tag@0@@Z$2 60837d50 f   ColladaModel.obj
 0001:00036d58       __unwindfunclet$??$_Uninit_copy@V?$_Vector_const_iterator@VTriangle@@V?$allocator@VTriangle@@@std@@@std@@PAVTriangle@@V?$allocator@VTriangle@@@2@@std@@YAPAVTriangle@@V?$_Vector_const_iterator@VTriangle@@V?$allocator@VTriangle@@@std@@@0@0PAV1@AAV?$allocator@VTriangle@@@0@U_Nonscalar_ptr_iterator_tag@0@U_Range_checked_iterator_tag@0@@Z$3 60837d58 f   ColladaModel.obj
 0001:00036d60       __unwindfunclet$??$_Uninit_copy@V?$_Vector_const_iterator@VTriangle@@V?$allocator@VTriangle@@@std@@@std@@PAVTriangle@@V?$allocator@VTriangle@@@2@@std@@YAPAVTriangle@@V?$_Vector_const_iterator@VTriangle@@V?$allocator@VTriangle@@@std@@@0@0PAV1@AAV?$allocator@VTriangle@@@0@U_Nonscalar_ptr_iterator_tag@0@U_Range_checked_iterator_tag@0@@Z$4 60837d60 f   ColladaModel.obj
 0001:00036d6b       __ehhandler$??$_Uninit_copy@V?$_Vector_const_iterator@VTriangle@@V?$allocator@VTriangle@@@std@@@std@@PAVTriangle@@V?$allocator@VTriangle@@@2@@std@@YAPAVTriangle@@V?$_Vector_const_iterator@VTriangle@@V?$allocator@VTriangle@@@std@@@0@0PAV1@AAV?$allocator@VTriangle@@@0@U_Nonscalar_ptr_iterator_tag@0@U_Range_checked_iterator_tag@0@@Z 60837d6b f   ColladaModel.obj
 0001:00036d90       __ehhandler$??$_Uninit_copy@PAVTriangle@@PAV1@V?$allocator@VTriangle@@@std@@@std@@YAPAVTriangle@@PAV1@00AAV?$allocator@VTriangle@@@0@U_Nonscalar_ptr_iterator_tag@0@U_Range_checked_iterator_tag@0@@Z 60837d90 f   ColladaModel.obj
 0001:00036db0       __unwindfunclet$??$_Uninit_copy@V?$_Vector_const_iterator@VColMesh@@V?$allocator@VColMesh@@@std@@@std@@PAVColMesh@@V?$allocator@VColMesh@@@2@@std@@YAPAVColMesh@@V?$_Vector_const_iterator@VColMesh@@V?$allocator@VColMesh@@@std@@@0@0PAV1@AAV?$allocator@VColMesh@@@0@U_Nonscalar_ptr_iterator_tag@0@U_Range_checked_iterator_tag@0@@Z$2 60837db0 f   ColladaModel.obj
 0001:00036db8       __unwindfunclet$??$_Uninit_copy@V?$_Vector_const_iterator@VColMesh@@V?$allocator@VColMesh@@@std@@@std@@PAVColMesh@@V?$allocator@VColMesh@@@2@@std@@YAPAVColMesh@@V?$_Vector_const_iterator@VColMesh@@V?$allocator@VColMesh@@@std@@@0@0PAV1@AAV?$allocator@VColMesh@@@0@U_Nonscalar_ptr_iterator_tag@0@U_Range_checked_iterator_tag@0@@Z$3 60837db8 f   ColladaModel.obj
 0001:00036dc0       __unwindfunclet$??$_Uninit_copy@V?$_Vector_const_iterator@VColMesh@@V?$allocator@VColMesh@@@std@@@std@@PAVColMesh@@V?$allocator@VColMesh@@@2@@std@@YAPAVColMesh@@V?$_Vector_const_iterator@VColMesh@@V?$allocator@VColMesh@@@std@@@0@0PAV1@AAV?$allocator@VColMesh@@@0@U_Nonscalar_ptr_iterator_tag@0@U_Range_checked_iterator_tag@0@@Z$4 60837dc0 f   ColladaModel.obj
 0001:00036dcb       __ehhandler$??$_Uninit_copy@V?$_Vector_const_iterator@VColMesh@@V?$allocator@VColMesh@@@std@@@std@@PAVColMesh@@V?$allocator@VColMesh@@@2@@std@@YAPAVColMesh@@V?$_Vector_const_iterator@VColMesh@@V?$allocator@VColMesh@@@std@@@0@0PAV1@AAV?$allocator@VColMesh@@@0@U_Nonscalar_ptr_iterator_tag@0@U_Range_checked_iterator_tag@0@@Z 60837dcb f   ColladaModel.obj
 0001:00036df0       __ehhandler$??$_Uninit_copy@PAVColMesh@@PAV1@V?$allocator@VColMesh@@@std@@@std@@YAPAVColMesh@@PAV1@00AAV?$allocator@VColMesh@@@0@U_Nonscalar_ptr_iterator_tag@0@U_Range_checked_iterator_tag@0@@Z 60837df0 f   ColladaModel.obj
 0001:00036e10       __unwindfunclet$??$_Construct@VSource@@V1@@std@@YAXPAVSource@@ABV1@@Z$0 60837e10 f   ColladaModel.obj
 0001:00036e24       __ehhandler$??$_Construct@VSource@@V1@@std@@YAXPAVSource@@ABV1@@Z 60837e24 f   ColladaModel.obj
 0001:00036e50       __unwindfunclet$??$_Construct@VTriangle@@V1@@std@@YAXPAVTriangle@@ABV1@@Z$0 60837e50 f   ColladaModel.obj
 0001:00036e64       __ehhandler$??$_Construct@VTriangle@@V1@@std@@YAXPAVTriangle@@ABV1@@Z 60837e64 f   ColladaModel.obj
 0001:00036e90       __unwindfunclet$??$_Construct@VColMesh@@V1@@std@@YAXPAVColMesh@@ABV1@@Z$0 60837e90 f   ColladaModel.obj
 0001:00036ea4       __ehhandler$??$_Construct@VColMesh@@V1@@std@@YAXPAVColMesh@@ABV1@@Z 60837ea4 f   ColladaModel.obj
 0001:00036ed0       __unwindfunclet$??$_Debug_range@V?$_Vector_const_iterator@VSource@@V?$allocator@VSource@@@std@@@std@@@std@@YAXV?$_Vector_const_iterator@VSource@@V?$allocator@VSource@@@std@@@0@0PB_WI@Z$0 60837ed0 f   ColladaModel.obj
 0001:00036ed8       __unwindfunclet$??$_Debug_range@V?$_Vector_const_iterator@VSource@@V?$allocator@VSource@@@std@@@std@@@std@@YAXV?$_Vector_const_iterator@VSource@@V?$allocator@VSource@@@std@@@0@0PB_WI@Z$1 60837ed8 f   ColladaModel.obj
 0001:00036ee0       __unwindfunclet$??$_Debug_range@V?$_Vector_const_iterator@VSource@@V?$allocator@VSource@@@std@@@std@@@std@@YAXV?$_Vector_const_iterator@VSource@@V?$allocator@VSource@@@std@@@0@0PB_WI@Z$2 60837ee0 f   ColladaModel.obj
 0001:00036eeb       __ehhandler$??$_Debug_range@V?$_Vector_const_iterator@VSource@@V?$allocator@VSource@@@std@@@std@@@std@@YAXV?$_Vector_const_iterator@VSource@@V?$allocator@VSource@@@std@@@0@0PB_WI@Z 60837eeb f   ColladaModel.obj
 0001:00036f10       __unwindfunclet$??$_Debug_range@V?$_Vector_const_iterator@VTriangle@@V?$allocator@VTriangle@@@std@@@std@@@std@@YAXV?$_Vector_const_iterator@VTriangle@@V?$allocator@VTriangle@@@std@@@0@0PB_WI@Z$0 60837f10 f   ColladaModel.obj
 0001:00036f18       __unwindfunclet$??$_Debug_range@V?$_Vector_const_iterator@VTriangle@@V?$allocator@VTriangle@@@std@@@std@@@std@@YAXV?$_Vector_const_iterator@VTriangle@@V?$allocator@VTriangle@@@std@@@0@0PB_WI@Z$1 60837f18 f   ColladaModel.obj
 0001:00036f20       __unwindfunclet$??$_Debug_range@V?$_Vector_const_iterator@VTriangle@@V?$allocator@VTriangle@@@std@@@std@@@std@@YAXV?$_Vector_const_iterator@VTriangle@@V?$allocator@VTriangle@@@std@@@0@0PB_WI@Z$2 60837f20 f   ColladaModel.obj
 0001:00036f2b       __ehhandler$??$_Debug_range@V?$_Vector_const_iterator@VTriangle@@V?$allocator@VTriangle@@@std@@@std@@@std@@YAXV?$_Vector_const_iterator@VTriangle@@V?$allocator@VTriangle@@@std@@@0@0PB_WI@Z 60837f2b f   ColladaModel.obj
 0001:00036f50       __unwindfunclet$??$_Debug_range@V?$_Vector_const_iterator@VColMesh@@V?$allocator@VColMesh@@@std@@@std@@@std@@YAXV?$_Vector_const_iterator@VColMesh@@V?$allocator@VColMesh@@@std@@@0@0PB_WI@Z$0 60837f50 f   ColladaModel.obj
 0001:00036f58       __unwindfunclet$??$_Debug_range@V?$_Vector_const_iterator@VColMesh@@V?$allocator@VColMesh@@@std@@@std@@@std@@YAXV?$_Vector_const_iterator@VColMesh@@V?$allocator@VColMesh@@@std@@@0@0PB_WI@Z$1 60837f58 f   ColladaModel.obj
 0001:00036f60       __unwindfunclet$??$_Debug_range@V?$_Vector_const_iterator@VColMesh@@V?$allocator@VColMesh@@@std@@@std@@@std@@YAXV?$_Vector_const_iterator@VColMesh@@V?$allocator@VColMesh@@@std@@@0@0PB_WI@Z$2 60837f60 f   ColladaModel.obj
 0001:00036f6b       __ehhandler$??$_Debug_range@V?$_Vector_const_iterator@VColMesh@@V?$allocator@VColMesh@@@std@@@std@@@std@@YAXV?$_Vector_const_iterator@VColMesh@@V?$allocator@VColMesh@@@std@@@0@0PB_WI@Z 60837f6b f   ColladaModel.obj
 0001:00036f90       __unwindfunclet$??$_Debug_range2@V?$_Vector_const_iterator@VSource@@V?$allocator@VSource@@@std@@@std@@@std@@YAXV?$_Vector_const_iterator@VSource@@V?$allocator@VSource@@@std@@@0@0PB_WIUrandom_access_iterator_tag@0@@Z$0 60837f90 f   ColladaModel.obj
 0001:00036f98       __unwindfunclet$??$_Debug_range2@V?$_Vector_const_iterator@VSource@@V?$allocator@VSource@@@std@@@std@@@std@@YAXV?$_Vector_const_iterator@VSource@@V?$allocator@VSource@@@std@@@0@0PB_WIUrandom_access_iterator_tag@0@@Z$1 60837f98 f   ColladaModel.obj
 0001:00036fa0       __ehhandler$??$_Debug_range2@V?$_Vector_const_iterator@VSource@@V?$allocator@VSource@@@std@@@std@@@std@@YAXV?$_Vector_const_iterator@VSource@@V?$allocator@VSource@@@std@@@0@0PB_WIUrandom_access_iterator_tag@0@@Z 60837fa0 f   ColladaModel.obj
 0001:00036fc0       __unwindfunclet$??$_Debug_range2@V?$_Vector_const_iterator@VTriangle@@V?$allocator@VTriangle@@@std@@@std@@@std@@YAXV?$_Vector_const_iterator@VTriangle@@V?$allocator@VTriangle@@@std@@@0@0PB_WIUrandom_access_iterator_tag@0@@Z$0 60837fc0 f   ColladaModel.obj
 0001:00036fc8       __unwindfunclet$??$_Debug_range2@V?$_Vector_const_iterator@VTriangle@@V?$allocator@VTriangle@@@std@@@std@@@std@@YAXV?$_Vector_const_iterator@VTriangle@@V?$allocator@VTriangle@@@std@@@0@0PB_WIUrandom_access_iterator_tag@0@@Z$1 60837fc8 f   ColladaModel.obj
 0001:00036fd0       __ehhandler$??$_Debug_range2@V?$_Vector_const_iterator@VTriangle@@V?$allocator@VTriangle@@@std@@@std@@@std@@YAXV?$_Vector_const_iterator@VTriangle@@V?$allocator@VTriangle@@@std@@@0@0PB_WIUrandom_access_iterator_tag@0@@Z 60837fd0 f   ColladaModel.obj
 0001:00036ff0       __unwindfunclet$??$_Debug_range2@V?$_Vector_const_iterator@VColMesh@@V?$allocator@VColMesh@@@std@@@std@@@std@@YAXV?$_Vector_const_iterator@VColMesh@@V?$allocator@VColMesh@@@std@@@0@0PB_WIUrandom_access_iterator_tag@0@@Z$0 60837ff0 f   ColladaModel.obj
 0001:00036ff8       __unwindfunclet$??$_Debug_range2@V?$_Vector_const_iterator@VColMesh@@V?$allocator@VColMesh@@@std@@@std@@@std@@YAXV?$_Vector_const_iterator@VColMesh@@V?$allocator@VColMesh@@@std@@@0@0PB_WIUrandom_access_iterator_tag@0@@Z$1 60837ff8 f   ColladaModel.obj
 0001:00037000       __ehhandler$??$_Debug_range2@V?$_Vector_const_iterator@VColMesh@@V?$allocator@VColMesh@@@std@@@std@@@std@@YAXV?$_Vector_const_iterator@VColMesh@@V?$allocator@VColMesh@@@std@@@0@0PB_WIUrandom_access_iterator_tag@0@@Z 60838000 f   ColladaModel.obj
 0001:00037020       __unwindfunclet$??1MD2Model@@QAE@XZ$0 60838020 f   MD2Model.obj
 0001:00037028       __ehhandler$??1MD2Model@@QAE@XZ 60838028 f   MD2Model.obj
 0001:00037050       __unwindfunclet$??0NMS_3DObject@@QAE@XZ$0 60838050 f   NMS_3DObject.obj
 0001:00037058       __unwindfunclet$??0NMS_3DObject@@QAE@XZ$1 60838058 f   NMS_3DObject.obj
 0001:00037063       __unwindfunclet$??0NMS_3DObject@@QAE@XZ$2 60838063 f   NMS_3DObject.obj
 0001:0003706e       __ehhandler$??0NMS_3DObject@@QAE@XZ 6083806e f   NMS_3DObject.obj
 0001:00037090       __unwindfunclet$??1NMS_3DObject@@QAE@XZ$0 60838090 f   NMS_3DObject.obj
 0001:00037098       __unwindfunclet$??1NMS_3DObject@@QAE@XZ$1 60838098 f   NMS_3DObject.obj
 0001:000370a3       __ehhandler$??1NMS_3DObject@@QAE@XZ 608380a3 f   NMS_3DObject.obj
 0001:000370d0       __unwindfunclet$??0NMS_3DObject@@QAE@PBVVector@@0@Z$0 608380d0 f   NMS_3DObject.obj
 0001:000370d8       __unwindfunclet$??0NMS_3DObject@@QAE@PBVVector@@0@Z$1 608380d8 f   NMS_3DObject.obj
 0001:000370e3       __ehhandler$??0NMS_3DObject@@QAE@PBVVector@@0@Z 608380e3 f   NMS_3DObject.obj
 0001:00037110       __unwindfunclet$??$?6U?$char_traits@D@std@@@std@@YAAAV?$basic_ostream@DU?$char_traits@D@std@@@0@AAV10@PBD@Z$2 60838110 f   NMS_3DObject.obj
 0001:00037118       __ehhandler$??$?6U?$char_traits@D@std@@@std@@YAAAV?$basic_ostream@DU?$char_traits@D@std@@@0@AAV10@PBD@Z 60838118 f   NMS_3DObject.obj
 0001:00037140       __unwindfunclet$??0sentry@?$basic_ostream@DU?$char_traits@D@std@@@std@@QAE@AAV12@@Z$0 60838140 f   NMS_3DObject.obj
 0001:00037148       __ehhandler$??0sentry@?$basic_ostream@DU?$char_traits@D@std@@@std@@QAE@AAV12@@Z 60838148 f   NMS_3DObject.obj
 0001:00037170       __unwindfunclet$??1sentry@?$basic_ostream@DU?$char_traits@D@std@@@std@@QAE@XZ$0 60838170 f   NMS_3DObject.obj
 0001:00037178       __ehhandler$??1sentry@?$basic_ostream@DU?$char_traits@D@std@@@std@@QAE@XZ 60838178 f   NMS_3DObject.obj
 0001:000371a0       __unwindfunclet$??$?6U?$char_traits@D@std@@@std@@YAAAV?$basic_ostream@DU?$char_traits@D@std@@@0@AAV10@D@Z$2 608381a0 f   NMS_3DObject.obj
 0001:000371a8       __ehhandler$??$?6U?$char_traits@D@std@@@std@@YAAAV?$basic_ostream@DU?$char_traits@D@std@@@0@AAV10@D@Z 608381a8 f   NMS_3DObject.obj
 0001:000371d0       __unwindfunclet$?GetSingleton@NMS_AssetManager@@SAAAV1@XZ$0 608381d0 f   NMS_AssetManager.obj
 0001:000371de       __ehhandler$?GetSingleton@NMS_AssetManager@@SAAAV1@XZ 608381de f   NMS_AssetManager.obj
 0001:00037200       __unwindfunclet$??1TransformationNode@@QAE@XZ$0 60838200 f   NMS_Camera.obj
 0001:00037208       __ehhandler$??1TransformationNode@@QAE@XZ 60838208 f   NMS_Camera.obj
 0001:00037230       __unwindfunclet$??0TransformationNode@@QAE@ABV0@@Z$0 60838230 f   NMS_Camera.obj
 0001:00037238       __ehhandler$??0TransformationNode@@QAE@ABV0@@Z 60838238 f   NMS_Camera.obj
 0001:00037260       __unwindfunclet$??0NMSCameraController@@QAE@XZ$0 60838260 f   NMS_Camera.obj
 0001:00037268       __unwindfunclet$??0NMSCameraController@@QAE@XZ$1 60838268 f   NMS_Camera.obj
 0001:00037273       __unwindfunclet$??0NMSCameraController@@QAE@XZ$2 60838273 f   NMS_Camera.obj
 0001:0003727e       __unwindfunclet$??0NMSCameraController@@QAE@XZ$3 6083827e f   NMS_Camera.obj
 0001:00037289       __unwindfunclet$??0NMSCameraController@@QAE@XZ$4 60838289 f   NMS_Camera.obj
 0001:00037294       __ehhandler$??0NMSCameraController@@QAE@XZ 60838294 f   NMS_Camera.obj
 0001:000372c0       __unwindfunclet$??1NMSCameraController@@QAE@XZ$0 608382c0 f   NMS_Camera.obj
 0001:000372c8       __unwindfunclet$??1NMSCameraController@@QAE@XZ$1 608382c8 f   NMS_Camera.obj
 0001:000372d3       __unwindfunclet$??1NMSCameraController@@QAE@XZ$2 608382d3 f   NMS_Camera.obj
 0001:000372de       __unwindfunclet$??1NMSCameraController@@QAE@XZ$3 608382de f   NMS_Camera.obj
 0001:000372e9       __unwindfunclet$??1NMSCameraController@@QAE@XZ$4 608382e9 f   NMS_Camera.obj
 0001:000372f4       __ehhandler$??1NMSCameraController@@QAE@XZ 608382f4 f   NMS_Camera.obj
 0001:00037320       __unwindfunclet$?before@NMSCameraController@@UAEXPAVSceneGraphVisitor@@PAVMatrix@@@Z$0 60838320 f   NMS_Camera.obj
 0001:0003732b       __unwindfunclet$?before@NMSCameraController@@UAEXPAVSceneGraphVisitor@@PAVMatrix@@@Z$1 6083832b f   NMS_Camera.obj
 0001:00037336       __ehhandler$?before@NMSCameraController@@UAEXPAVSceneGraphVisitor@@PAVMatrix@@@Z 60838336 f   NMS_Camera.obj
 0001:00037360       __unwindfunclet$?after@NMSCameraController@@UAEXPAVSceneGraphVisitor@@PAVMatrix@@@Z$0 60838360 f   NMS_Camera.obj
 0001:0003736b       __ehhandler$?after@NMSCameraController@@UAEXPAVSceneGraphVisitor@@PAVMatrix@@@Z 6083836b f   NMS_Camera.obj
 0001:00037390       __unwindfunclet$?returnViewMatrix@NMSCameraController@@QAE?AVMatrix@@XZ$0 60838390 f   NMS_Camera.obj
 0001:00037398       __unwindfunclet$?returnViewMatrix@NMSCameraController@@QAE?AVMatrix@@XZ$1 60838398 f   NMS_Camera.obj
 0001:000373a0       __unwindfunclet$?returnViewMatrix@NMSCameraController@@QAE?AVMatrix@@XZ$2 608383a0 f   NMS_Camera.obj
 0001:000373bf       __ehhandler$?returnViewMatrix@NMSCameraController@@QAE?AVMatrix@@XZ 608383bf f   NMS_Camera.obj
 0001:000373e0       __unwindfunclet$?UpdateCamera@NMSCameraController@@QAEXM@Z$0 608383e0 f   NMS_Camera.obj
 0001:000373e8       __unwindfunclet$?UpdateCamera@NMSCameraController@@QAEXM@Z$1 608383e8 f   NMS_Camera.obj
 0001:000373f3       __unwindfunclet$?UpdateCamera@NMSCameraController@@QAEXM@Z$3 608383f3 f   NMS_Camera.obj
 0001:000373fe       __unwindfunclet$?UpdateCamera@NMSCameraController@@QAEXM@Z$5 608383fe f   NMS_Camera.obj
 0001:00037409       __ehhandler$?UpdateCamera@NMSCameraController@@QAEXM@Z 60838409 f   NMS_Camera.obj
 0001:00037430       __unwindfunclet$??0NMSCameraFPS@@QAE@XZ$0 60838430 f   NMS_Camera.obj
 0001:00037438       __ehhandler$??0NMSCameraFPS@@QAE@XZ 60838438 f   NMS_Camera.obj
 0001:00037460       __unwindfunclet$?recalcAxes@NMSCameraFPS@@MAEXXZ$0 60838460 f   NMS_Camera.obj
 0001:00037468       __ehhandler$?recalcAxes@NMSCameraFPS@@MAEXXZ 60838468 f   NMS_Camera.obj
 0001:00037490       __unwindfunclet$??0?$vector@PAVSceneGraphNode@@V?$allocator@PAVSceneGraphNode@@@std@@@std@@QAE@ABV01@@Z$2 60838490 f   NMS_Camera.obj
 0001:00037498       __unwindfunclet$??0?$vector@PAVSceneGraphNode@@V?$allocator@PAVSceneGraphNode@@@std@@@std@@QAE@ABV01@@Z$3 60838498 f   NMS_Camera.obj
 0001:000374a3       __ehhandler$??0?$vector@PAVSceneGraphNode@@V?$allocator@PAVSceneGraphNode@@@std@@@std@@QAE@ABV01@@Z 608384a3 f   NMS_Camera.obj
 0001:000374d0       __unwindfunclet$??1?$vector@PAVSceneGraphNode@@V?$allocator@PAVSceneGraphNode@@@std@@@std@@QAE@XZ$0 608384d0 f   NMS_Camera.obj
 0001:000374d8       __ehhandler$??1?$vector@PAVSceneGraphNode@@V?$allocator@PAVSceneGraphNode@@@std@@@std@@QAE@XZ 608384d8 f   NMS_Camera.obj
 0001:00037500       __unwindfunclet$?clear@?$vector@PAVSceneGraphNode@@V?$allocator@PAVSceneGraphNode@@@std@@@std@@QAEXXZ$0 60838500 f   NMS_Camera.obj
 0001:0003750b       __unwindfunclet$?clear@?$vector@PAVSceneGraphNode@@V?$allocator@PAVSceneGraphNode@@@std@@@std@@QAEXXZ$1 6083850b f   NMS_Camera.obj
 0001:00037516       __unwindfunclet$?clear@?$vector@PAVSceneGraphNode@@V?$allocator@PAVSceneGraphNode@@@std@@@std@@QAEXXZ$2 60838516 f   NMS_Camera.obj
 0001:00037521       __ehhandler$?clear@?$vector@PAVSceneGraphNode@@V?$allocator@PAVSceneGraphNode@@@std@@@std@@QAEXXZ 60838521 f   NMS_Camera.obj
 0001:00037540       __unwindfunclet$?erase@?$vector@PAVSceneGraphNode@@V?$allocator@PAVSceneGraphNode@@@std@@@std@@QAE?AV?$_Vector_iterator@PAVSceneGraphNode@@V?$allocator@PAVSceneGraphNode@@@std@@@2@V?$_Vector_const_iterator@PAVSceneGraphNode@@V?$allocator@PAVSceneGraphNode@@@std@@@2@0@Z$0 60838540 f   NMS_Camera.obj
 0001:00037548       __unwindfunclet$?erase@?$vector@PAVSceneGraphNode@@V?$allocator@PAVSceneGraphNode@@@std@@@std@@QAE?AV?$_Vector_iterator@PAVSceneGraphNode@@V?$allocator@PAVSceneGraphNode@@@std@@@2@V?$_Vector_const_iterator@PAVSceneGraphNode@@V?$allocator@PAVSceneGraphNode@@@std@@@2@0@Z$1 60838548 f   NMS_Camera.obj
 0001:00037550       __unwindfunclet$?erase@?$vector@PAVSceneGraphNode@@V?$allocator@PAVSceneGraphNode@@@std@@@std@@QAE?AV?$_Vector_iterator@PAVSceneGraphNode@@V?$allocator@PAVSceneGraphNode@@@std@@@2@V?$_Vector_const_iterator@PAVSceneGraphNode@@V?$allocator@PAVSceneGraphNode@@@std@@@2@0@Z$3 60838550 f   NMS_Camera.obj
 0001:00037558       __unwindfunclet$?erase@?$vector@PAVSceneGraphNode@@V?$allocator@PAVSceneGraphNode@@@std@@@std@@QAE?AV?$_Vector_iterator@PAVSceneGraphNode@@V?$allocator@PAVSceneGraphNode@@@std@@@2@V?$_Vector_const_iterator@PAVSceneGraphNode@@V?$allocator@PAVSceneGraphNode@@@std@@@2@0@Z$5 60838558 f   NMS_Camera.obj
 0001:00037560       __unwindfunclet$?erase@?$vector@PAVSceneGraphNode@@V?$allocator@PAVSceneGraphNode@@@std@@@std@@QAE?AV?$_Vector_iterator@PAVSceneGraphNode@@V?$allocator@PAVSceneGraphNode@@@std@@@2@V?$_Vector_const_iterator@PAVSceneGraphNode@@V?$allocator@PAVSceneGraphNode@@@std@@@2@0@Z$6 60838560 f   NMS_Camera.obj
 0001:0003757f       __ehhandler$?erase@?$vector@PAVSceneGraphNode@@V?$allocator@PAVSceneGraphNode@@@std@@@std@@QAE?AV?$_Vector_iterator@PAVSceneGraphNode@@V?$allocator@PAVSceneGraphNode@@@std@@@2@V?$_Vector_const_iterator@PAVSceneGraphNode@@V?$allocator@PAVSceneGraphNode@@@std@@@2@0@Z 6083857f f   NMS_Camera.obj
 0001:000375a0       __unwindfunclet$?_Xlen@?$vector@PAVSceneGraphNode@@V?$allocator@PAVSceneGraphNode@@@std@@@std@@KAXXZ$0 608385a0 f   NMS_Camera.obj
 0001:000375b5       __ehhandler$?_Xlen@?$vector@PAVSceneGraphNode@@V?$allocator@PAVSceneGraphNode@@@std@@@std@@KAXXZ 608385b5 f   NMS_Camera.obj
 0001:000375e0       __unwindfunclet$??0?$_Vector_const_iterator@PAVSceneGraphNode@@V?$allocator@PAVSceneGraphNode@@@std@@@std@@QAE@PAPAVSceneGraphNode@@PBV_Container_base_secure@1@@Z$0 608385e0 f   NMS_Camera.obj
 0001:000375e8       __ehhandler$??0?$_Vector_const_iterator@PAVSceneGraphNode@@V?$allocator@PAVSceneGraphNode@@@std@@@std@@QAE@PAPAVSceneGraphNode@@PBV_Container_base_secure@1@@Z 608385e8 f   NMS_Camera.obj
 0001:00037610       __unwindfunclet$?_Make_iter@?$vector@PAVSceneGraphNode@@V?$allocator@PAVSceneGraphNode@@@std@@@std@@QBE?AV?$_Vector_iterator@PAVSceneGraphNode@@V?$allocator@PAVSceneGraphNode@@@std@@@2@V?$_Vector_const_iterator@PAVSceneGraphNode@@V?$allocator@PAVSceneGraphNode@@@std@@@2@@Z$0 60838610 f   NMS_Camera.obj
 0001:00037618       __unwindfunclet$?_Make_iter@?$vector@PAVSceneGraphNode@@V?$allocator@PAVSceneGraphNode@@@std@@@std@@QBE?AV?$_Vector_iterator@PAVSceneGraphNode@@V?$allocator@PAVSceneGraphNode@@@std@@@2@V?$_Vector_const_iterator@PAVSceneGraphNode@@V?$allocator@PAVSceneGraphNode@@@std@@@2@@Z$1 60838618 f   NMS_Camera.obj
 0001:00037637       __ehhandler$?_Make_iter@?$vector@PAVSceneGraphNode@@V?$allocator@PAVSceneGraphNode@@@std@@@std@@QBE?AV?$_Vector_iterator@PAVSceneGraphNode@@V?$allocator@PAVSceneGraphNode@@@std@@@2@V?$_Vector_const_iterator@PAVSceneGraphNode@@V?$allocator@PAVSceneGraphNode@@@std@@@2@@Z 60838637 f   NMS_Camera.obj
 0001:00037660       __unwindfunclet$??$_Ucopy@V?$_Vector_const_iterator@PAVSceneGraphNode@@V?$allocator@PAVSceneGraphNode@@@std@@@std@@@?$vector@PAVSceneGraphNode@@V?$allocator@PAVSceneGraphNode@@@std@@@std@@IAEPAPAVSceneGraphNode@@V?$_Vector_const_iterator@PAVSceneGraphNode@@V?$allocator@PAVSceneGraphNode@@@std@@@1@0PAPAV2@@Z$0 60838660 f   NMS_Camera.obj
 0001:00037668       __unwindfunclet$??$_Ucopy@V?$_Vector_const_iterator@PAVSceneGraphNode@@V?$allocator@PAVSceneGraphNode@@@std@@@std@@@?$vector@PAVSceneGraphNode@@V?$allocator@PAVSceneGraphNode@@@std@@@std@@IAEPAPAVSceneGraphNode@@V?$_Vector_const_iterator@PAVSceneGraphNode@@V?$allocator@PAVSceneGraphNode@@@std@@@1@0PAPAV2@@Z$1 60838668 f   NMS_Camera.obj
 0001:00037670       __unwindfunclet$??$_Ucopy@V?$_Vector_const_iterator@PAVSceneGraphNode@@V?$allocator@PAVSceneGraphNode@@@std@@@std@@@?$vector@PAVSceneGraphNode@@V?$allocator@PAVSceneGraphNode@@@std@@@std@@IAEPAPAVSceneGraphNode@@V?$_Vector_const_iterator@PAVSceneGraphNode@@V?$allocator@PAVSceneGraphNode@@@std@@@1@0PAPAV2@@Z$2 60838670 f   NMS_Camera.obj
 0001:0003767b       __ehhandler$??$_Ucopy@V?$_Vector_const_iterator@PAVSceneGraphNode@@V?$allocator@PAVSceneGraphNode@@@std@@@std@@@?$vector@PAVSceneGraphNode@@V?$allocator@PAVSceneGraphNode@@@std@@@std@@IAEPAPAVSceneGraphNode@@V?$_Vector_const_iterator@PAVSceneGraphNode@@V?$allocator@PAVSceneGraphNode@@@std@@@1@0PAPAV2@@Z 6083867b f   NMS_Camera.obj
 0001:000376a0       __unwindfunclet$??$unchecked_uninitialized_copy@V?$_Vector_const_iterator@PAVSceneGraphNode@@V?$allocator@PAVSceneGraphNode@@@std@@@std@@PAPAVSceneGraphNode@@V?$allocator@PAVSceneGraphNode@@@2@@stdext@@YAPAPAVSceneGraphNode@@V?$_Vector_const_iterator@PAVSceneGraphNode@@V?$allocator@PAVSceneGraphNode@@@std@@@std@@0PAPAV1@AAV?$allocator@PAVSceneGraphNode@@@3@@Z$0 608386a0 f   NMS_Camera.obj
 0001:000376a8       __unwindfunclet$??$unchecked_uninitialized_copy@V?$_Vector_const_iterator@PAVSceneGraphNode@@V?$allocator@PAVSceneGraphNode@@@std@@@std@@PAPAVSceneGraphNode@@V?$allocator@PAVSceneGraphNode@@@2@@stdext@@YAPAPAVSceneGraphNode@@V?$_Vector_const_iterator@PAVSceneGraphNode@@V?$allocator@PAVSceneGraphNode@@@std@@@std@@0PAPAV1@AAV?$allocator@PAVSceneGraphNode@@@3@@Z$1 608386a8 f   NMS_Camera.obj
 0001:000376b0       __unwindfunclet$??$unchecked_uninitialized_copy@V?$_Vector_const_iterator@PAVSceneGraphNode@@V?$allocator@PAVSceneGraphNode@@@std@@@std@@PAPAVSceneGraphNode@@V?$allocator@PAVSceneGraphNode@@@2@@stdext@@YAPAPAVSceneGraphNode@@V?$_Vector_const_iterator@PAVSceneGraphNode@@V?$allocator@PAVSceneGraphNode@@@std@@@std@@0PAPAV1@AAV?$allocator@PAVSceneGraphNode@@@3@@Z$2 608386b0 f   NMS_Camera.obj
 0001:000376bb       __ehhandler$??$unchecked_uninitialized_copy@V?$_Vector_const_iterator@PAVSceneGraphNode@@V?$allocator@PAVSceneGraphNode@@@std@@@std@@PAPAVSceneGraphNode@@V?$allocator@PAVSceneGraphNode@@@2@@stdext@@YAPAPAVSceneGraphNode@@V?$_Vector_const_iterator@PAVSceneGraphNode@@V?$allocator@PAVSceneGraphNode@@@std@@@std@@0PAPAV1@AAV?$allocator@PAVSceneGraphNode@@@3@@Z 608386bb f   NMS_Camera.obj
 0001:000376e0       __unwindfunclet$??$_Uninit_copy@V?$_Vector_const_iterator@PAVSceneGraphNode@@V?$allocator@PAVSceneGraphNode@@@std@@@std@@PAPAVSceneGraphNode@@V?$allocator@PAVSceneGraphNode@@@2@@std@@YAPAPAVSceneGraphNode@@V?$_Vector_const_iterator@PAVSceneGraphNode@@V?$allocator@PAVSceneGraphNode@@@std@@@0@0PAPAV1@AAV?$allocator@PAVSceneGraphNode@@@0@U_Scalar_ptr_iterator_tag@0@U_Range_checked_iterator_tag@0@@Z$0 608386e0 f   NMS_Camera.obj
 0001:000376e8       __unwindfunclet$??$_Uninit_copy@V?$_Vector_const_iterator@PAVSceneGraphNode@@V?$allocator@PAVSceneGraphNode@@@std@@@std@@PAPAVSceneGraphNode@@V?$allocator@PAVSceneGraphNode@@@2@@std@@YAPAPAVSceneGraphNode@@V?$_Vector_const_iterator@PAVSceneGraphNode@@V?$allocator@PAVSceneGraphNode@@@std@@@0@0PAPAV1@AAV?$allocator@PAVSceneGraphNode@@@0@U_Scalar_ptr_iterator_tag@0@U_Range_checked_iterator_tag@0@@Z$1 608386e8 f   NMS_Camera.obj
 0001:000376f0       __unwindfunclet$??$_Uninit_copy@V?$_Vector_const_iterator@PAVSceneGraphNode@@V?$allocator@PAVSceneGraphNode@@@std@@@std@@PAPAVSceneGraphNode@@V?$allocator@PAVSceneGraphNode@@@2@@std@@YAPAPAVSceneGraphNode@@V?$_Vector_const_iterator@PAVSceneGraphNode@@V?$allocator@PAVSceneGraphNode@@@std@@@0@0PAPAV1@AAV?$allocator@PAVSceneGraphNode@@@0@U_Scalar_ptr_iterator_tag@0@U_Range_checked_iterator_tag@0@@Z$2 608386f0 f   NMS_Camera.obj
 0001:000376fb       __ehhandler$??$_Uninit_copy@V?$_Vector_const_iterator@PAVSceneGraphNode@@V?$allocator@PAVSceneGraphNode@@@std@@@std@@PAPAVSceneGraphNode@@V?$allocator@PAVSceneGraphNode@@@2@@std@@YAPAPAVSceneGraphNode@@V?$_Vector_const_iterator@PAVSceneGraphNode@@V?$allocator@PAVSceneGraphNode@@@std@@@0@0PAPAV1@AAV?$allocator@PAVSceneGraphNode@@@0@U_Scalar_ptr_iterator_tag@0@U_Range_checked_iterator_tag@0@@Z 608386fb f   NMS_Camera.obj
 0001:00037720       __unwindfunclet$??$_Debug_range@V?$_Vector_const_iterator@PAVSceneGraphNode@@V?$allocator@PAVSceneGraphNode@@@std@@@std@@@std@@YAXV?$_Vector_const_iterator@PAVSceneGraphNode@@V?$allocator@PAVSceneGraphNode@@@std@@@0@0PB_WI@Z$0 60838720 f   NMS_Camera.obj
 0001:00037728       __unwindfunclet$??$_Debug_range@V?$_Vector_const_iterator@PAVSceneGraphNode@@V?$allocator@PAVSceneGraphNode@@@std@@@std@@@std@@YAXV?$_Vector_const_iterator@PAVSceneGraphNode@@V?$allocator@PAVSceneGraphNode@@@std@@@0@0PB_WI@Z$1 60838728 f   NMS_Camera.obj
 0001:00037730       __unwindfunclet$??$_Debug_range@V?$_Vector_const_iterator@PAVSceneGraphNode@@V?$allocator@PAVSceneGraphNode@@@std@@@std@@@std@@YAXV?$_Vector_const_iterator@PAVSceneGraphNode@@V?$allocator@PAVSceneGraphNode@@@std@@@0@0PB_WI@Z$2 60838730 f   NMS_Camera.obj
 0001:0003773b       __ehhandler$??$_Debug_range@V?$_Vector_const_iterator@PAVSceneGraphNode@@V?$allocator@PAVSceneGraphNode@@@std@@@std@@@std@@YAXV?$_Vector_const_iterator@PAVSceneGraphNode@@V?$allocator@PAVSceneGraphNode@@@std@@@0@0PB_WI@Z 6083873b f   NMS_Camera.obj
 0001:00037760       __unwindfunclet$??$_Debug_range2@V?$_Vector_const_iterator@PAVSceneGraphNode@@V?$allocator@PAVSceneGraphNode@@@std@@@std@@@std@@YAXV?$_Vector_const_iterator@PAVSceneGraphNode@@V?$allocator@PAVSceneGraphNode@@@std@@@0@0PB_WIUrandom_access_iterator_tag@0@@Z$0 60838760 f   NMS_Camera.obj
 0001:00037768       __unwindfunclet$??$_Debug_range2@V?$_Vector_const_iterator@PAVSceneGraphNode@@V?$allocator@PAVSceneGraphNode@@@std@@@std@@@std@@YAXV?$_Vector_const_iterator@PAVSceneGraphNode@@V?$allocator@PAVSceneGraphNode@@@std@@@0@0PB_WIUrandom_access_iterator_tag@0@@Z$1 60838768 f   NMS_Camera.obj
 0001:00037770       __ehhandler$??$_Debug_range2@V?$_Vector_const_iterator@PAVSceneGraphNode@@V?$allocator@PAVSceneGraphNode@@@std@@@std@@@std@@YAXV?$_Vector_const_iterator@PAVSceneGraphNode@@V?$allocator@PAVSceneGraphNode@@@std@@@0@0PB_WIUrandom_access_iterator_tag@0@@Z 60838770 f   NMS_Camera.obj
 0001:00037790       __unwindfunclet$??1NMS_Event@@QAE@XZ$0 60838790 f   NMS_Engine.obj
 0001:00037798       __unwindfunclet$??1NMS_Event@@QAE@XZ$1 60838798 f   NMS_Engine.obj
 0001:000377a3       __unwindfunclet$??1NMS_Event@@QAE@XZ$2 608387a3 f   NMS_Engine.obj
 0001:000377ae       __unwindfunclet$??1NMS_Event@@QAE@XZ$3 608387ae f   NMS_Engine.obj
 0001:000377b9       __unwindfunclet$??1NMS_Event@@QAE@XZ$4 608387b9 f   NMS_Engine.obj
 0001:000377c7       __ehhandler$??1NMS_Event@@QAE@XZ 608387c7 f   NMS_Engine.obj
 0001:000377f0       __unwindfunclet$??0NMS_Event@@QAE@ABV0@@Z$0 608387f0 f   NMS_Engine.obj
 0001:000377f8       __unwindfunclet$??0NMS_Event@@QAE@ABV0@@Z$1 608387f8 f   NMS_Engine.obj
 0001:00037803       __unwindfunclet$??0NMS_Event@@QAE@ABV0@@Z$2 60838803 f   NMS_Engine.obj
 0001:0003780e       __unwindfunclet$??0NMS_Event@@QAE@ABV0@@Z$3 6083880e f   NMS_Engine.obj
 0001:00037819       __unwindfunclet$??0NMS_Event@@QAE@ABV0@@Z$4 60838819 f   NMS_Engine.obj
 0001:00037827       __ehhandler$??0NMS_Event@@QAE@ABV0@@Z 60838827 f   NMS_Engine.obj
 0001:00037850       __unwindfunclet$??1LightSource@@QAE@XZ$0 60838850 f   NMS_Engine.obj
 0001:00037858       __ehhandler$??1LightSource@@QAE@XZ 60838858 f   NMS_Engine.obj
 0001:00037880       __unwindfunclet$?InitEngine@@YA_NHHHPAD_N@Z$0 60838880 f   NMS_Engine.obj
 0001:0003788b       __ehhandler$?InitEngine@@YA_NHHHPAD_N@Z 6083888b f   NMS_Engine.obj
 0001:000378b0       __unwindfunclet$??0?$list@TSDL_Event@@V?$allocator@TSDL_Event@@@std@@@std@@QAE@ABV01@@Z$2 608388b0 f   NMS_Engine.obj
 0001:000378b8       __unwindfunclet$??0?$list@TSDL_Event@@V?$allocator@TSDL_Event@@@std@@@std@@QAE@ABV01@@Z$3 608388b8 f   NMS_Engine.obj
 0001:000378c3       __unwindfunclet$??0?$list@TSDL_Event@@V?$allocator@TSDL_Event@@@std@@@std@@QAE@ABV01@@Z$4 608388c3 f   NMS_Engine.obj
 0001:000378ce       __unwindfunclet$??0?$list@TSDL_Event@@V?$allocator@TSDL_Event@@@std@@@std@@QAE@ABV01@@Z$5 608388ce f   NMS_Engine.obj
 0001:000378d9       __ehhandler$??0?$list@TSDL_Event@@V?$allocator@TSDL_Event@@@std@@@std@@QAE@ABV01@@Z 608388d9 f   NMS_Engine.obj
 0001:00037900       __unwindfunclet$??1?$list@TSDL_Event@@V?$allocator@TSDL_Event@@@std@@@std@@QAE@XZ$0 60838900 f   NMS_Engine.obj
 0001:00037908       __ehhandler$??1?$list@TSDL_Event@@V?$allocator@TSDL_Event@@@std@@@std@@QAE@XZ 60838908 f   NMS_Engine.obj
 0001:00037930       __unwindfunclet$??4?$list@TSDL_Event@@V?$allocator@TSDL_Event@@@std@@@std@@QAEAAV01@ABV01@@Z$0 60838930 f   NMS_Engine.obj
 0001:0003793b       __ehhandler$??4?$list@TSDL_Event@@V?$allocator@TSDL_Event@@@std@@@std@@QAEAAV01@ABV01@@Z 6083893b f   NMS_Engine.obj
 0001:00037960       __ehhandler$??4?$function1@XH@boost@@QAEAAV01@ABV01@@Z 60838960 f   NMS_Engine.obj
 0001:00037980       __ehhandler$??4?$function1@XW4SDLKey@@@boost@@QAEAAV01@ABV01@@Z 60838980 f   NMS_Engine.obj
 0001:000379a0       __ehhandler$??4?$function2@XHH@boost@@QAEAAV01@ABV01@@Z 608389a0 f   NMS_Engine.obj
 0001:000379c0       __ehhandler$?_Buynode@?$list@TSDL_Event@@V?$allocator@TSDL_Event@@@std@@@std@@IAEPAU_Node@?$_List_nod@TSDL_Event@@V?$allocator@TSDL_Event@@@std@@@2@XZ 608389c0 f   NMS_Engine.obj
 0001:000379e0       __unwindfunclet$??0?$_Const_iterator@$00@?$list@TSDL_Event@@V?$allocator@TSDL_Event@@@std@@@std@@QAE@PAU_Node@?$_List_nod@TSDL_Event@@V?$allocator@TSDL_Event@@@std@@@2@PBV12@@Z$0 608389e0 f   NMS_Engine.obj
 0001:000379e8       __ehhandler$??0?$_Const_iterator@$00@?$list@TSDL_Event@@V?$allocator@TSDL_Event@@@std@@@std@@QAE@PAU_Node@?$_List_nod@TSDL_Event@@V?$allocator@TSDL_Event@@@std@@@2@PBV12@@Z 608389e8 f   NMS_Engine.obj
 0001:00037a10       __ehhandler$??$?4P6AXH@Z@?$function1@XH@boost@@QAEAAV01@P6AXH@Z@Z 60838a10 f   NMS_Engine.obj
 0001:00037a30       __ehhandler$??$?4P6AXW4SDLKey@@@Z@?$function1@XW4SDLKey@@@boost@@QAEAAV01@P6AXW4SDLKey@@@Z@Z 60838a30 f   NMS_Engine.obj
 0001:00037a50       __ehhandler$??$?4P6AXHH@Z@?$function2@XHH@boost@@QAEAAV01@P6AXHH@Z@Z 60838a50 f   NMS_Engine.obj
 0001:00037a70       __unwindfunclet$??$insert@V?$_Const_iterator@$00@?$list@TSDL_Event@@V?$allocator@TSDL_Event@@@std@@@std@@@?$list@TSDL_Event@@V?$allocator@TSDL_Event@@@std@@@std@@QAEXV?$_Const_iterator@$00@01@00@Z$0 60838a70 f   NMS_Engine.obj
 0001:00037a78       __unwindfunclet$??$insert@V?$_Const_iterator@$00@?$list@TSDL_Event@@V?$allocator@TSDL_Event@@@std@@@std@@@?$list@TSDL_Event@@V?$allocator@TSDL_Event@@@std@@@std@@QAEXV?$_Const_iterator@$00@01@00@Z$1 60838a78 f   NMS_Engine.obj
 0001:00037a80       __unwindfunclet$??$insert@V?$_Const_iterator@$00@?$list@TSDL_Event@@V?$allocator@TSDL_Event@@@std@@@std@@@?$list@TSDL_Event@@V?$allocator@TSDL_Event@@@std@@@std@@QAEXV?$_Const_iterator@$00@01@00@Z$2 60838a80 f   NMS_Engine.obj
 0001:00037a88       __unwindfunclet$??$insert@V?$_Const_iterator@$00@?$list@TSDL_Event@@V?$allocator@TSDL_Event@@@std@@@std@@@?$list@TSDL_Event@@V?$allocator@TSDL_Event@@@std@@@std@@QAEXV?$_Const_iterator@$00@01@00@Z$3 60838a88 f   NMS_Engine.obj
 0001:00037a93       __unwindfunclet$??$insert@V?$_Const_iterator@$00@?$list@TSDL_Event@@V?$allocator@TSDL_Event@@@std@@@std@@@?$list@TSDL_Event@@V?$allocator@TSDL_Event@@@std@@@std@@QAEXV?$_Const_iterator@$00@01@00@Z$4 60838a93 f   NMS_Engine.obj
 0001:00037a9e       __ehhandler$??$insert@V?$_Const_iterator@$00@?$list@TSDL_Event@@V?$allocator@TSDL_Event@@@std@@@std@@@?$list@TSDL_Event@@V?$allocator@TSDL_Event@@@std@@@std@@QAEXV?$_Const_iterator@$00@01@00@Z 60838a9e f   NMS_Engine.obj
 0001:00037ac0       __unwindfunclet$??$assign@V?$_Const_iterator@$00@?$list@TSDL_Event@@V?$allocator@TSDL_Event@@@std@@@std@@@?$list@TSDL_Event@@V?$allocator@TSDL_Event@@@std@@@std@@QAEXV?$_Const_iterator@$00@01@0@Z$0 60838ac0 f   NMS_Engine.obj
 0001:00037ac8       __unwindfunclet$??$assign@V?$_Const_iterator@$00@?$list@TSDL_Event@@V?$allocator@TSDL_Event@@@std@@@std@@@?$list@TSDL_Event@@V?$allocator@TSDL_Event@@@std@@@std@@QAEXV?$_Const_iterator@$00@01@0@Z$1 60838ac8 f   NMS_Engine.obj
 0001:00037ad0       __unwindfunclet$??$assign@V?$_Const_iterator@$00@?$list@TSDL_Event@@V?$allocator@TSDL_Event@@@std@@@std@@@?$list@TSDL_Event@@V?$allocator@TSDL_Event@@@std@@@std@@QAEXV?$_Const_iterator@$00@01@0@Z$2 60838ad0 f   NMS_Engine.obj
 0001:00037adb       __ehhandler$??$assign@V?$_Const_iterator@$00@?$list@TSDL_Event@@V?$allocator@TSDL_Event@@@std@@@std@@@?$list@TSDL_Event@@V?$allocator@TSDL_Event@@@std@@@std@@QAEXV?$_Const_iterator@$00@01@0@Z 60838adb f   NMS_Engine.obj
 0001:00037b00       __unwindfunclet$??$_Insert@V?$_Const_iterator@$00@?$list@TSDL_Event@@V?$allocator@TSDL_Event@@@std@@@std@@@?$list@TSDL_Event@@V?$allocator@TSDL_Event@@@std@@@std@@QAEXV?$_Const_iterator@$00@01@00Uforward_iterator_tag@1@@Z$2 60838b00 f   NMS_Engine.obj
 0001:00037b08       __unwindfunclet$??$_Insert@V?$_Const_iterator@$00@?$list@TSDL_Event@@V?$allocator@TSDL_Event@@@std@@@std@@@?$list@TSDL_Event@@V?$allocator@TSDL_Event@@@std@@@std@@QAEXV?$_Const_iterator@$00@01@00Uforward_iterator_tag@1@@Z$3 60838b08 f   NMS_Engine.obj
 0001:00037b10       __unwindfunclet$??$_Insert@V?$_Const_iterator@$00@?$list@TSDL_Event@@V?$allocator@TSDL_Event@@@std@@@std@@@?$list@TSDL_Event@@V?$allocator@TSDL_Event@@@std@@@std@@QAEXV?$_Const_iterator@$00@01@00Uforward_iterator_tag@1@@Z$4 60838b10 f   NMS_Engine.obj
 0001:00037b18       __unwindfunclet$??$_Insert@V?$_Const_iterator@$00@?$list@TSDL_Event@@V?$allocator@TSDL_Event@@@std@@@std@@@?$list@TSDL_Event@@V?$allocator@TSDL_Event@@@std@@@std@@QAEXV?$_Const_iterator@$00@01@00Uforward_iterator_tag@1@@Z$5 60838b18 f   NMS_Engine.obj
 0001:00037b23       __unwindfunclet$??$_Insert@V?$_Const_iterator@$00@?$list@TSDL_Event@@V?$allocator@TSDL_Event@@@std@@@std@@@?$list@TSDL_Event@@V?$allocator@TSDL_Event@@@std@@@std@@QAEXV?$_Const_iterator@$00@01@00Uforward_iterator_tag@1@@Z$7 60838b23 f   NMS_Engine.obj
 0001:00037b2b       __unwindfunclet$??$_Insert@V?$_Const_iterator@$00@?$list@TSDL_Event@@V?$allocator@TSDL_Event@@@std@@@std@@@?$list@TSDL_Event@@V?$allocator@TSDL_Event@@@std@@@std@@QAEXV?$_Const_iterator@$00@01@00Uforward_iterator_tag@1@@Z$9 60838b2b f   NMS_Engine.obj
 0001:00037b33       __ehhandler$??$_Insert@V?$_Const_iterator@$00@?$list@TSDL_Event@@V?$allocator@TSDL_Event@@@std@@@std@@@?$list@TSDL_Event@@V?$allocator@TSDL_Event@@@std@@@std@@QAEXV?$_Const_iterator@$00@01@00Uforward_iterator_tag@1@@Z 60838b33 f   NMS_Engine.obj
 0001:00037b60       __unwindfunclet$??$_Assign@V?$_Const_iterator@$00@?$list@TSDL_Event@@V?$allocator@TSDL_Event@@@std@@@std@@@?$list@TSDL_Event@@V?$allocator@TSDL_Event@@@std@@@std@@QAEXV?$_Const_iterator@$00@01@0Uinput_iterator_tag@1@@Z$0 60838b60 f   NMS_Engine.obj
 0001:00037b68       __unwindfunclet$??$_Assign@V?$_Const_iterator@$00@?$list@TSDL_Event@@V?$allocator@TSDL_Event@@@std@@@std@@@?$list@TSDL_Event@@V?$allocator@TSDL_Event@@@std@@@std@@QAEXV?$_Const_iterator@$00@01@0Uinput_iterator_tag@1@@Z$1 60838b68 f   NMS_Engine.obj
 0001:00037b70       __unwindfunclet$??$_Assign@V?$_Const_iterator@$00@?$list@TSDL_Event@@V?$allocator@TSDL_Event@@@std@@@std@@@?$list@TSDL_Event@@V?$allocator@TSDL_Event@@@std@@@std@@QAEXV?$_Const_iterator@$00@01@0Uinput_iterator_tag@1@@Z$2 60838b70 f   NMS_Engine.obj
 0001:00037b7b       __unwindfunclet$??$_Assign@V?$_Const_iterator@$00@?$list@TSDL_Event@@V?$allocator@TSDL_Event@@@std@@@std@@@?$list@TSDL_Event@@V?$allocator@TSDL_Event@@@std@@@std@@QAEXV?$_Const_iterator@$00@01@0Uinput_iterator_tag@1@@Z$3 60838b7b f   NMS_Engine.obj
 0001:00037b86       __unwindfunclet$??$_Assign@V?$_Const_iterator@$00@?$list@TSDL_Event@@V?$allocator@TSDL_Event@@@std@@@std@@@?$list@TSDL_Event@@V?$allocator@TSDL_Event@@@std@@@std@@QAEXV?$_Const_iterator@$00@01@0Uinput_iterator_tag@1@@Z$4 60838b86 f   NMS_Engine.obj
 0001:00037b91       __ehhandler$??$_Assign@V?$_Const_iterator@$00@?$list@TSDL_Event@@V?$allocator@TSDL_Event@@@std@@@std@@@?$list@TSDL_Event@@V?$allocator@TSDL_Event@@@std@@@std@@QAEXV?$_Const_iterator@$00@01@0Uinput_iterator_tag@1@@Z 60838b91 f   NMS_Engine.obj
 0001:00037bb0       __unwindfunclet$?_Insert@?$list@TSDL_Event@@V?$allocator@TSDL_Event@@@std@@@std@@QAEXV?$_Const_iterator@$00@12@ABTSDL_Event@@@Z$0 60838bb0 f   NMS_Engine.obj
 0001:00037bb8       __ehhandler$?_Insert@?$list@TSDL_Event@@V?$allocator@TSDL_Event@@@std@@@std@@QAEXV?$_Const_iterator@$00@12@ABTSDL_Event@@@Z 60838bb8 f   NMS_Engine.obj
 0001:00037be0       __unwindfunclet$?erase@?$list@TSDL_Event@@V?$allocator@TSDL_Event@@@std@@@std@@QAE?AV?$_Iterator@$00@12@V?$_Const_iterator@$00@12@@Z$0 60838be0 f   NMS_Engine.obj
 0001:00037be8       __unwindfunclet$?erase@?$list@TSDL_Event@@V?$allocator@TSDL_Event@@@std@@@std@@QAE?AV?$_Iterator@$00@12@V?$_Const_iterator@$00@12@@Z$1 60838be8 f   NMS_Engine.obj
 0001:00037bf3       __unwindfunclet$?erase@?$list@TSDL_Event@@V?$allocator@TSDL_Event@@@std@@@std@@QAE?AV?$_Iterator@$00@12@V?$_Const_iterator@$00@12@@Z$3 60838bf3 f   NMS_Engine.obj
 0001:00037c12       __ehhandler$?erase@?$list@TSDL_Event@@V?$allocator@TSDL_Event@@@std@@@std@@QAE?AV?$_Iterator@$00@12@V?$_Const_iterator@$00@12@@Z 60838c12 f   NMS_Engine.obj
 0001:00037c30       __unwindfunclet$?_Make_iter@?$list@TSDL_Event@@V?$allocator@TSDL_Event@@@std@@@std@@QBE?AV?$_Iterator@$00@12@V?$_Const_iterator@$00@12@@Z$0 60838c30 f   NMS_Engine.obj
 0001:00037c38       __unwindfunclet$?_Make_iter@?$list@TSDL_Event@@V?$allocator@TSDL_Event@@@std@@@std@@QBE?AV?$_Iterator@$00@12@V?$_Const_iterator@$00@12@@Z$1 60838c38 f   NMS_Engine.obj
 0001:00037c57       __ehhandler$?_Make_iter@?$list@TSDL_Event@@V?$allocator@TSDL_Event@@@std@@@std@@QBE?AV?$_Iterator@$00@12@V?$_Const_iterator@$00@12@@Z 60838c57 f   NMS_Engine.obj
 0001:00037c80       __ehhandler$?_Buynode@?$list@TSDL_Event@@V?$allocator@TSDL_Event@@@std@@@std@@IAEPAU_Node@?$_List_nod@TSDL_Event@@V?$allocator@TSDL_Event@@@std@@@2@PAU342@0ABTSDL_Event@@@Z 60838c80 f   NMS_Engine.obj
 0001:00037ca0       __unwindfunclet$?_Incsize@?$list@TSDL_Event@@V?$allocator@TSDL_Event@@@std@@@std@@IAEXI@Z$0 60838ca0 f   NMS_Engine.obj
 0001:00037cb5       __ehhandler$?_Incsize@?$list@TSDL_Event@@V?$allocator@TSDL_Event@@@std@@@std@@IAEXI@Z 60838cb5 f   NMS_Engine.obj
 0001:00037ce0       __unwindfunclet$??E?$_Const_iterator@$00@?$list@TSDL_Event@@V?$allocator@TSDL_Event@@@std@@@std@@QAE?AV012@H@Z$0 60838ce0 f   NMS_Engine.obj
 0001:00037ce8       __unwindfunclet$??E?$_Const_iterator@$00@?$list@TSDL_Event@@V?$allocator@TSDL_Event@@@std@@@std@@QAE?AV012@H@Z$1 60838ce8 f   NMS_Engine.obj
 0001:00037d07       __ehhandler$??E?$_Const_iterator@$00@?$list@TSDL_Event@@V?$allocator@TSDL_Event@@@std@@@std@@QAE?AV012@H@Z 60838d07 f   NMS_Engine.obj
 0001:00037d30       __unwindfunclet$??$_Debug_range@V?$_Const_iterator@$00@?$list@TSDL_Event@@V?$allocator@TSDL_Event@@@std@@@std@@@std@@YAXV?$_Const_iterator@$00@?$list@TSDL_Event@@V?$allocator@TSDL_Event@@@std@@@0@0PB_WI@Z$0 60838d30 f   NMS_Engine.obj
 0001:00037d38       __unwindfunclet$??$_Debug_range@V?$_Const_iterator@$00@?$list@TSDL_Event@@V?$allocator@TSDL_Event@@@std@@@std@@@std@@YAXV?$_Const_iterator@$00@?$list@TSDL_Event@@V?$allocator@TSDL_Event@@@std@@@0@0PB_WI@Z$1 60838d38 f   NMS_Engine.obj
 0001:00037d40       __unwindfunclet$??$_Debug_range@V?$_Const_iterator@$00@?$list@TSDL_Event@@V?$allocator@TSDL_Event@@@std@@@std@@@std@@YAXV?$_Const_iterator@$00@?$list@TSDL_Event@@V?$allocator@TSDL_Event@@@std@@@0@0PB_WI@Z$2 60838d40 f   NMS_Engine.obj
 0001:00037d4b       __ehhandler$??$_Debug_range@V?$_Const_iterator@$00@?$list@TSDL_Event@@V?$allocator@TSDL_Event@@@std@@@std@@@std@@YAXV?$_Const_iterator@$00@?$list@TSDL_Event@@V?$allocator@TSDL_Event@@@std@@@0@0PB_WI@Z 60838d4b f   NMS_Engine.obj
 0001:00037d70       __unwindfunclet$??$_Debug_range2@V?$_Const_iterator@$00@?$list@TSDL_Event@@V?$allocator@TSDL_Event@@@std@@@std@@@std@@YAXV?$_Const_iterator@$00@?$list@TSDL_Event@@V?$allocator@TSDL_Event@@@std@@@0@0PB_WIUinput_iterator_tag@0@@Z$0 60838d70 f   NMS_Engine.obj
 0001:00037d78       __ehhandler$??$_Debug_range2@V?$_Const_iterator@$00@?$list@TSDL_Event@@V?$allocator@TSDL_Event@@@std@@@std@@@std@@YAXV?$_Const_iterator@$00@?$list@TSDL_Event@@V?$allocator@TSDL_Event@@@std@@@0@0PB_WIUinput_iterator_tag@0@@Z 60838d78 f   NMS_Engine.obj
 0001:00037da0       __unwindfunclet$??0NMS_Event@@AAE@XZ$0 60838da0 f   NMS_Event.obj
 0001:00037da8       __unwindfunclet$??0NMS_Event@@AAE@XZ$1 60838da8 f   NMS_Event.obj
 0001:00037db3       __unwindfunclet$??0NMS_Event@@AAE@XZ$2 60838db3 f   NMS_Event.obj
 0001:00037dbe       __unwindfunclet$??0NMS_Event@@AAE@XZ$3 60838dbe f   NMS_Event.obj
 0001:00037dc9       __unwindfunclet$??0NMS_Event@@AAE@XZ$4 60838dc9 f   NMS_Event.obj
 0001:00037dd7       __ehhandler$??0NMS_Event@@AAE@XZ 60838dd7 f   NMS_Event.obj
 0001:00037e00       __unwindfunclet$?getInstance@NMS_Event@@SAAAV1@XZ$0 60838e00 f   NMS_Event.obj
 0001:00037e0e       __ehhandler$?getInstance@NMS_Event@@SAAAV1@XZ 60838e0e f   NMS_Event.obj
 0001:00037e30       __unwindfunclet$??0?$list@TSDL_Event@@V?$allocator@TSDL_Event@@@std@@@std@@QAE@XZ$0 60838e30 f   NMS_Event.obj
 0001:00037e38       __ehhandler$??0?$list@TSDL_Event@@V?$allocator@TSDL_Event@@@std@@@std@@QAE@XZ 60838e38 f   NMS_Event.obj
 0001:00037e60       __unwindfunclet$?front@?$list@TSDL_Event@@V?$allocator@TSDL_Event@@@std@@@std@@QAEAATSDL_Event@@XZ$0 60838e60 f   NMS_Event.obj
 0001:00037e6b       __ehhandler$?front@?$list@TSDL_Event@@V?$allocator@TSDL_Event@@@std@@@std@@QAEAATSDL_Event@@XZ 60838e6b f   NMS_Event.obj
 0001:00037e90       __unwindfunclet$?pop_front@?$list@TSDL_Event@@V?$allocator@TSDL_Event@@@std@@@std@@QAEXXZ$0 60838e90 f   NMS_Event.obj
 0001:00037e9b       __ehhandler$?pop_front@?$list@TSDL_Event@@V?$allocator@TSDL_Event@@@std@@@std@@QAEXXZ 60838e9b f   NMS_Event.obj
 0001:00037ec0       __unwindfunclet$?push_back@?$list@TSDL_Event@@V?$allocator@TSDL_Event@@@std@@@std@@QAEXABTSDL_Event@@@Z$0 60838ec0 f   NMS_Event.obj
 0001:00037ecb       __ehhandler$?push_back@?$list@TSDL_Event@@V?$allocator@TSDL_Event@@@std@@@std@@QAEXABTSDL_Event@@@Z 60838ecb f   NMS_Event.obj
 0001:00037ef0       __unwindfunclet$??R?$function1@XH@boost@@QBEXH@Z$0 60838ef0 f   NMS_Event.obj
 0001:00037efb       __ehhandler$??R?$function1@XH@boost@@QBEXH@Z 60838efb f   NMS_Event.obj
 0001:00037f20       __unwindfunclet$??0bad_function_call@boost@@QAE@XZ$0 60838f20 f   NMS_Event.obj
 0001:00037f35       __unwindfunclet$??0bad_function_call@boost@@QAE@XZ$1 60838f35 f   NMS_Event.obj
 0001:00037f3d       __ehhandler$??0bad_function_call@boost@@QAE@XZ 60838f3d f   NMS_Event.obj
 0001:00037f60       __unwindfunclet$??0runtime_error@std@@QAE@ABV?$basic_string@DU?$char_traits@D@std@@V?$allocator@D@2@@1@@Z$0 60838f60 f   NMS_Event.obj
 0001:00037f72       __ehhandler$??0runtime_error@std@@QAE@ABV?$basic_string@DU?$char_traits@D@std@@V?$allocator@D@2@@1@@Z 60838f72 f   NMS_Event.obj
 0001:00037f90       __unwindfunclet$??R?$function1@XW4SDLKey@@@boost@@QBEXW4SDLKey@@@Z$0 60838f90 f   NMS_Event.obj
 0001:00037f9b       __ehhandler$??R?$function1@XW4SDLKey@@@boost@@QBEXW4SDLKey@@@Z 60838f9b f   NMS_Event.obj
 0001:00037fc0       __unwindfunclet$??R?$function2@XHH@boost@@QBEXHH@Z$0 60838fc0 f   NMS_Event.obj
 0001:00037fcb       __ehhandler$??R?$function2@XHH@boost@@QBEXHH@Z 60838fcb f   NMS_Event.obj
 0001:00037ff0       __unwindfunclet$??$throw_exception@Vbad_function_call@boost@@@boost@@YAXABVbad_function_call@0@@Z$0 60838ff0 f   NMS_Event.obj
 0001:00037ffb       __ehhandler$??$throw_exception@Vbad_function_call@boost@@@boost@@YAXABVbad_function_call@0@@Z 60838ffb f   NMS_Event.obj
 0001:00038020       __unwindfunclet$??0runtime_error@std@@QAE@ABV01@@Z$0 60839020 f   NMS_Event.obj
 0001:00038032       __ehhandler$??0runtime_error@std@@QAE@ABV01@@Z 60839032 f   NMS_Event.obj
 0001:00038050       __unwindfunclet$??0?$error_info_injector@Vbad_function_call@boost@@@exception_detail@boost@@QAE@ABU012@@Z$0 60839050 f   NMS_Event.obj
 0001:00038058       __ehhandler$??0?$error_info_injector@Vbad_function_call@boost@@@exception_detail@boost@@QAE@ABU012@@Z 60839058 f   NMS_Event.obj
 0001:00038080       __unwindfunclet$?clone@?$clone_impl@U?$error_info_injector@Vbad_function_call@boost@@@exception_detail@boost@@@exception_detail@boost@@EBEPBVclone_base@23@XZ$0 60839080 f   NMS_Event.obj
 0001:0003808e       __ehhandler$?clone@?$clone_impl@U?$error_info_injector@Vbad_function_call@boost@@@exception_detail@boost@@@exception_detail@boost@@EBEPBVclone_base@23@XZ 6083908e f   NMS_Event.obj
 0001:000380b0       __unwindfunclet$??0?$error_info_injector@Vbad_function_call@boost@@@exception_detail@boost@@QAE@ABVbad_function_call@2@@Z$0 608390b0 f   NMS_Event.obj
 0001:000380b8       __ehhandler$??0?$error_info_injector@Vbad_function_call@boost@@@exception_detail@boost@@QAE@ABVbad_function_call@2@@Z 608390b8 f   NMS_Event.obj
 0001:000380e0       __unwindfunclet$??0?$clone_impl@U?$error_info_injector@Vbad_function_call@boost@@@exception_detail@boost@@@exception_detail@boost@@QAE@ABU?$error_info_injector@Vbad_function_call@boost@@@12@@Z$0 608390e0 f   NMS_Event.obj
 0001:000380e8       __unwindfunclet$??0?$clone_impl@U?$error_info_injector@Vbad_function_call@boost@@@exception_detail@boost@@@exception_detail@boost@@QAE@ABU?$error_info_injector@Vbad_function_call@boost@@@12@@Z$1 608390e8 f   NMS_Event.obj
 0001:000380f3       __ehhandler$??0?$clone_impl@U?$error_info_injector@Vbad_function_call@boost@@@exception_detail@boost@@@exception_detail@boost@@QAE@ABU?$error_info_injector@Vbad_function_call@boost@@@12@@Z 608390f3 f   NMS_Event.obj
 0001:00038120       __unwindfunclet$?copy_boost_exception@exception_detail@boost@@YAXPAVexception@2@PBV32@@Z$0 60839120 f   NMS_Event.obj
 0001:00038128       __unwindfunclet$?copy_boost_exception@exception_detail@boost@@YAXPAVexception@2@PBV32@@Z$1 60839128 f   NMS_Event.obj
 0001:00038133       __ehhandler$?copy_boost_exception@exception_detail@boost@@YAXPAVexception@2@PBV32@@Z 60839133 f   NMS_Event.obj
 0001:00038160       __unwindfunclet$??0NMS_Framework@@QAE@XZ$0 60839160 f   NMS_Framework.obj
 0001:0003816b       __ehhandler$??0NMS_Framework@@QAE@XZ 6083916b f   NMS_Framework.obj
 0001:00038190       __unwindfunclet$?NMSInit@NMS_Framework@@QAE_NHHHPAD_N@Z$0 60839190 f   NMS_Framework.obj
 0001:0003819e       __unwindfunclet$?NMSInit@NMS_Framework@@QAE_NHHHPAD_N@Z$1 6083919e f   NMS_Framework.obj
 0001:000381ac       __unwindfunclet$?NMSInit@NMS_Framework@@QAE_NHHHPAD_N@Z$2 608391ac f   NMS_Framework.obj
 0001:000381b7       __unwindfunclet$?NMSInit@NMS_Framework@@QAE_NHHHPAD_N@Z$3 608391b7 f   NMS_Framework.obj
 0001:000381c2       __ehhandler$?NMSInit@NMS_Framework@@QAE_NHHHPAD_N@Z 608391c2 f   NMS_Framework.obj
 0001:000381e0       __ehhandler$??$?4V?$binder1st@V?$mem_fun1_t@XVNMS_Framework@@H@std@@@std@@@?$function1@XH@boost@@QAEAAV01@V?$binder1st@V?$mem_fun1_t@XVNMS_Framework@@H@std@@@std@@@Z 608391e0 f   NMS_Framework.obj
 0001:00038200       __unwindfunclet$??0LightSource@@QAE@XZ$0 60839200 f   NMS_LightSystem.obj
 0001:00038208       __unwindfunclet$??0LightSource@@QAE@XZ$1 60839208 f   NMS_LightSystem.obj
 0001:00038213       __ehhandler$??0LightSource@@QAE@XZ 60839213 f   NMS_LightSystem.obj
 0001:00038240       __unwindfunclet$?getGlobalAmbient@AmbientLight@@QAE?AVVector@@XZ$0 60839240 f   NMS_LightSystem.obj
 0001:00038248       __unwindfunclet$?getGlobalAmbient@AmbientLight@@QAE?AVVector@@XZ$1 60839248 f   NMS_LightSystem.obj
 0001:00038267       __ehhandler$?getGlobalAmbient@AmbientLight@@QAE?AVVector@@XZ 60839267 f   NMS_LightSystem.obj
 0001:00038290       __unwindfunclet$?defineLight@LightSource@@QAEXV1@@Z$0 60839290 f   NMS_LightSystem.obj
 0001:00038298       __ehhandler$?defineLight@LightSource@@QAEXV1@@Z 60839298 f   NMS_LightSystem.obj
 0001:000382c0       __unwindfunclet$?render@LightSource@@UAEXM@Z$0 608392c0 f   NMS_LightSystem.obj
 0001:000382cb       __unwindfunclet$?render@LightSource@@UAEXM@Z$1 608392cb f   NMS_LightSystem.obj
 0001:000382d6       __unwindfunclet$?render@LightSource@@UAEXM@Z$2 608392d6 f   NMS_LightSystem.obj
 0001:000382e1       __unwindfunclet$?render@LightSource@@UAEXM@Z$3 608392e1 f   NMS_LightSystem.obj
 0001:000382ec       __unwindfunclet$?render@LightSource@@UAEXM@Z$4 608392ec f   NMS_LightSystem.obj
 0001:000382f7       __unwindfunclet$?render@LightSource@@UAEXM@Z$5 608392f7 f   NMS_LightSystem.obj
 0001:00038302       __unwindfunclet$?render@LightSource@@UAEXM@Z$6 60839302 f   NMS_LightSystem.obj
 0001:0003830d       __unwindfunclet$?render@LightSource@@UAEXM@Z$7 6083930d f   NMS_LightSystem.obj
 0001:00038318       __unwindfunclet$?render@LightSource@@UAEXM@Z$8 60839318 f   NMS_LightSystem.obj
 0001:00038323       __unwindfunclet$?render@LightSource@@UAEXM@Z$9 60839323 f   NMS_LightSystem.obj
 0001:0003832e       __unwindfunclet$?render@LightSource@@UAEXM@Z$10 6083932e f   NMS_LightSystem.obj
 0001:00038339       __ehhandler$?render@LightSource@@UAEXM@Z 60839339 f   NMS_LightSystem.obj
 0001:00038360       __unwindfunclet$??0SceneGraphNode@@QAE@XZ$0 60839360 f   NMS_SceneGraph.obj
 0001:0003836b       __unwindfunclet$??0SceneGraphNode@@QAE@XZ$1 6083936b f   NMS_SceneGraph.obj
 0001:00038376       __ehhandler$??0SceneGraphNode@@QAE@XZ 60839376 f   NMS_SceneGraph.obj
 0001:000383a0       __unwindfunclet$?traverse_df@SceneGraphNode@@QAEXPAVSceneGraphVisitor@@@Z$0 608393a0 f   NMS_SceneGraph.obj
 0001:000383a8       __ehhandler$?traverse_df@SceneGraphNode@@QAEXPAVSceneGraphVisitor@@@Z 608393a8 f   NMS_SceneGraph.obj
 0001:000383d0       __unwindfunclet$??0TransformationNode@@QAE@XZ$0 608393d0 f   NMS_SceneGraph.obj
 0001:000383d8       __ehhandler$??0TransformationNode@@QAE@XZ 608393d8 f   NMS_SceneGraph.obj
 0001:00038400       __unwindfunclet$??0TransformationNode@@QAE@VMatrix@@@Z$0 60839400 f   NMS_SceneGraph.obj
 0001:00038408       __unwindfunclet$??0TransformationNode@@QAE@VMatrix@@@Z$1 60839408 f   NMS_SceneGraph.obj
 0001:00038410       __unwindfunclet$??0TransformationNode@@QAE@VMatrix@@@Z$2 60839410 f   NMS_SceneGraph.obj
 0001:0003841b       __ehhandler$??0TransformationNode@@QAE@VMatrix@@@Z 6083941b f   NMS_SceneGraph.obj
 0001:00038440       __unwindfunclet$?multiply@TransformationNode@@QAEXVMatrix@@@Z$0 60839440 f   NMS_SceneGraph.obj
 0001:00038448       __unwindfunclet$?multiply@TransformationNode@@QAEXVMatrix@@@Z$1 60839448 f   NMS_SceneGraph.obj
 0001:00038453       __ehhandler$?multiply@TransformationNode@@QAEXVMatrix@@@Z 60839453 f   NMS_SceneGraph.obj
 0001:00038480       __unwindfunclet$?after@TransformationNode@@UAEXPAVSceneGraphVisitor@@PAVMatrix@@@Z$0 60839480 f   NMS_SceneGraph.obj
 0001:0003848b       __ehhandler$?after@TransformationNode@@UAEXPAVSceneGraphVisitor@@PAVMatrix@@@Z 6083948b f   NMS_SceneGraph.obj
 0001:000384b0       __unwindfunclet$??0GeometryNode@@QAE@PAVNMS_Mesh@@PAVbtRigidBody@@VMatrix@@@Z$0 608394b0 f   NMS_SceneGraph.obj
 0001:000384b8       __ehhandler$??0GeometryNode@@QAE@PAVNMS_Mesh@@PAVbtRigidBody@@VMatrix@@@Z 608394b8 f   NMS_SceneGraph.obj
 0001:000384e0       __unwindfunclet$??0?$vector@PAVSceneGraphNode@@V?$allocator@PAVSceneGraphNode@@@std@@@std@@QAE@XZ$0 608394e0 f   NMS_SceneGraph.obj
 0001:000384e8       __ehhandler$??0?$vector@PAVSceneGraphNode@@V?$allocator@PAVSceneGraphNode@@@std@@@std@@QAE@XZ 608394e8 f   NMS_SceneGraph.obj
 0001:00038510       __unwindfunclet$?push_back@?$vector@PAVSceneGraphNode@@V?$allocator@PAVSceneGraphNode@@@std@@@std@@QAEXABQAVSceneGraphNode@@@Z$0 60839510 f   NMS_SceneGraph.obj
 0001:0003851b       __ehhandler$?push_back@?$vector@PAVSceneGraphNode@@V?$allocator@PAVSceneGraphNode@@@std@@@std@@QAEXABQAVSceneGraphNode@@@Z 6083951b f   NMS_SceneGraph.obj
 0001:00038540       __unwindfunclet$?insert@?$vector@PAVSceneGraphNode@@V?$allocator@PAVSceneGraphNode@@@std@@@std@@QAE?AV?$_Vector_iterator@PAVSceneGraphNode@@V?$allocator@PAVSceneGraphNode@@@std@@@2@V?$_Vector_const_iterator@PAVSceneGraphNode@@V?$allocator@PAVSceneGraphNode@@@std@@@2@ABQAVSceneGraphNode@@@Z$0 60839540 f   NMS_SceneGraph.obj
 0001:00038548       __unwindfunclet$?insert@?$vector@PAVSceneGraphNode@@V?$allocator@PAVSceneGraphNode@@@std@@@std@@QAE?AV?$_Vector_iterator@PAVSceneGraphNode@@V?$allocator@PAVSceneGraphNode@@@std@@@2@V?$_Vector_const_iterator@PAVSceneGraphNode@@V?$allocator@PAVSceneGraphNode@@@std@@@2@ABQAVSceneGraphNode@@@Z$1 60839548 f   NMS_SceneGraph.obj
 0001:0003856a       __unwindfunclet$?insert@?$vector@PAVSceneGraphNode@@V?$allocator@PAVSceneGraphNode@@@std@@@std@@QAE?AV?$_Vector_iterator@PAVSceneGraphNode@@V?$allocator@PAVSceneGraphNode@@@std@@@2@V?$_Vector_const_iterator@PAVSceneGraphNode@@V?$allocator@PAVSceneGraphNode@@@std@@@2@ABQAVSceneGraphNode@@@Z$3 6083956a f   NMS_SceneGraph.obj
 0001:00038575       __unwindfunclet$?insert@?$vector@PAVSceneGraphNode@@V?$allocator@PAVSceneGraphNode@@@std@@@std@@QAE?AV?$_Vector_iterator@PAVSceneGraphNode@@V?$allocator@PAVSceneGraphNode@@@std@@@2@V?$_Vector_const_iterator@PAVSceneGraphNode@@V?$allocator@PAVSceneGraphNode@@@std@@@2@ABQAVSceneGraphNode@@@Z$4 60839575 f   NMS_SceneGraph.obj
 0001:00038594       __ehhandler$?insert@?$vector@PAVSceneGraphNode@@V?$allocator@PAVSceneGraphNode@@@std@@@std@@QAE?AV?$_Vector_iterator@PAVSceneGraphNode@@V?$allocator@PAVSceneGraphNode@@@std@@@2@V?$_Vector_const_iterator@PAVSceneGraphNode@@V?$allocator@PAVSceneGraphNode@@@std@@@2@ABQAVSceneGraphNode@@@Z 60839594 f   NMS_SceneGraph.obj
 0001:000385c0       __unwindfunclet$?_Insert_n@?$vector@PAVSceneGraphNode@@V?$allocator@PAVSceneGraphNode@@@std@@@std@@IAEXV?$_Vector_const_iterator@PAVSceneGraphNode@@V?$allocator@PAVSceneGraphNode@@@std@@@2@IABQAVSceneGraphNode@@@Z$4 608395c0 f   NMS_SceneGraph.obj
 0001:000385c8       __ehhandler$?_Insert_n@?$vector@PAVSceneGraphNode@@V?$allocator@PAVSceneGraphNode@@@std@@@std@@IAEXV?$_Vector_const_iterator@PAVSceneGraphNode@@V?$allocator@PAVSceneGraphNode@@@std@@@2@IABQAVSceneGraphNode@@@Z 608395c8 f   NMS_SceneGraph.obj
 0001:000385f0       __unwindfunclet$??H?$_Vector_iterator@PAVSceneGraphNode@@V?$allocator@PAVSceneGraphNode@@@std@@@std@@QBE?AV01@H@Z$0 608395f0 f   NMS_SceneGraph.obj
 0001:000385f8       __unwindfunclet$??H?$_Vector_iterator@PAVSceneGraphNode@@V?$allocator@PAVSceneGraphNode@@@std@@@std@@QBE?AV01@H@Z$1 608395f8 f   NMS_SceneGraph.obj
 0001:00038617       __ehhandler$??H?$_Vector_iterator@PAVSceneGraphNode@@V?$allocator@PAVSceneGraphNode@@@std@@@std@@QBE?AV01@H@Z 60839617 f   NMS_SceneGraph.obj
 0001:00038640       __unwindfunclet$?render@NMS_SceneRenderer@@QAEXXZ$0 60839640 f   NMS_SceneRenderer.obj
 0001:00038648       __ehhandler$?render@NMS_SceneRenderer@@QAEXXZ 60839648 f   NMS_SceneRenderer.obj
 0001:00038670       __unwindfunclet$?sg_before@NMS_SceneRenderer@@UAEXVMatrix@@PAVNMS_Mesh@@PAVbtRigidBody@@@Z$0 60839670 f   NMS_SceneRenderer.obj
 0001:00038678       __unwindfunclet$?sg_before@NMS_SceneRenderer@@UAEXVMatrix@@PAVNMS_Mesh@@PAVbtRigidBody@@@Z$1 60839678 f   NMS_SceneRenderer.obj
 0001:00038680       __ehhandler$?sg_before@NMS_SceneRenderer@@UAEXVMatrix@@PAVNMS_Mesh@@PAVbtRigidBody@@@Z 60839680 f   NMS_SceneRenderer.obj
 0001:000386a0       __unwindfunclet$?GetSingleton@NMS_TextureManager@@SAAAV1@XZ$0 608396a0 f   NMS_TextureManager.obj
 0001:000386ae       __ehhandler$?GetSingleton@NMS_TextureManager@@SAAAV1@XZ 608396ae f   NMS_TextureManager.obj
 0001:000386d0       __unwindfunclet$?FreeTexture@NMS_TextureManager@@QAEXPAD@Z$0 608396d0 f   NMS_TextureManager.obj
 0001:000386d8       __unwindfunclet$?FreeTexture@NMS_TextureManager@@QAEXPAD@Z$1 608396d8 f   NMS_TextureManager.obj
 0001:000386e3       __ehhandler$?FreeTexture@NMS_TextureManager@@QAEXPAD@Z 608396e3 f   NMS_TextureManager.obj
 0001:00038710       __unwindfunclet$?FreeAll@NMS_TextureManager@@QAEXXZ$0 60839710 f   NMS_TextureManager.obj
 0001:00038718       __unwindfunclet$?FreeAll@NMS_TextureManager@@QAEXXZ$1 60839718 f   NMS_TextureManager.obj
 0001:00038723       __unwindfunclet$?FreeAll@NMS_TextureManager@@QAEXXZ$2 60839723 f   NMS_TextureManager.obj
 0001:0003872e       __ehhandler$?FreeAll@NMS_TextureManager@@QAEXXZ 6083972e f   NMS_TextureManager.obj
 0001:00038750       __unwindfunclet$?checkForHash@NMS_TextureManager@@AAE?AUtextStruct@@PAD0@Z$0 60839750 f   NMS_TextureManager.obj
 0001:00038758       __unwindfunclet$?checkForHash@NMS_TextureManager@@AAE?AUtextStruct@@PAD0@Z$1 60839758 f   NMS_TextureManager.obj
 0001:00038763       __unwindfunclet$?checkForHash@NMS_TextureManager@@AAE?AUtextStruct@@PAD0@Z$2 60839763 f   NMS_TextureManager.obj
 0001:0003876e       __ehhandler$?checkForHash@NMS_TextureManager@@AAE?AUtextStruct@@PAD0@Z 6083976e f   NMS_TextureManager.obj
 0001:00038790       __unwindfunclet$??A?$map@PADUtextStruct@@U?$less@PAD@std@@V?$allocator@U?$pair@QADUtextStruct@@@std@@@3@@std@@QAEAAUtextStruct@@ABQAD@Z$0 60839790 f   NMS_TextureManager.obj
 0001:00038798       __unwindfunclet$??A?$map@PADUtextStruct@@U?$less@PAD@std@@V?$allocator@U?$pair@QADUtextStruct@@@std@@@3@@std@@QAEAAUtextStruct@@ABQAD@Z$1 60839798 f   NMS_TextureManager.obj
 0001:000387ba       __unwindfunclet$??A?$map@PADUtextStruct@@U?$less@PAD@std@@V?$allocator@U?$pair@QADUtextStruct@@@std@@@3@@std@@QAEAAUtextStruct@@ABQAD@Z$3 608397ba f   NMS_TextureManager.obj
 0001:000387c5       __ehhandler$??A?$map@PADUtextStruct@@U?$less@PAD@std@@V?$allocator@U?$pair@QADUtextStruct@@@std@@@3@@std@@QAEAAUtextStruct@@ABQAD@Z 608397c5 f   NMS_TextureManager.obj
 0001:000387f0       __unwindfunclet$??1?$_Tree@V?$_Tmap_traits@PADUtextStruct@@U?$less@PAD@std@@V?$allocator@U?$pair@QADUtextStruct@@@std@@@3@$0A@@std@@@std@@QAE@XZ$0 608397f0 f   NMS_TextureManager.obj
 0001:000387f8       __ehhandler$??1?$_Tree@V?$_Tmap_traits@PADUtextStruct@@U?$less@PAD@std@@V?$allocator@U?$pair@QADUtextStruct@@@std@@@3@$0A@@std@@@std@@QAE@XZ 608397f8 f   NMS_TextureManager.obj
 0001:00038820       __unwindfunclet$?find@?$_Tree@V?$_Tmap_traits@PADUtextStruct@@U?$less@PAD@std@@V?$allocator@U?$pair@QADUtextStruct@@@std@@@3@$0A@@std@@@std@@QAE?AViterator@12@ABQAD@Z$0 60839820 f   NMS_TextureManager.obj
 0001:00038828       __unwindfunclet$?find@?$_Tree@V?$_Tmap_traits@PADUtextStruct@@U?$less@PAD@std@@V?$allocator@U?$pair@QADUtextStruct@@@std@@@3@$0A@@std@@@std@@QAE?AViterator@12@ABQAD@Z$1 60839828 f   NMS_TextureManager.obj
 0001:0003884a       __unwindfunclet$?find@?$_Tree@V?$_Tmap_traits@PADUtextStruct@@U?$less@PAD@std@@V?$allocator@U?$pair@QADUtextStruct@@@std@@@3@$0A@@std@@@std@@QAE?AViterator@12@ABQAD@Z$2 6083984a f   NMS_TextureManager.obj
 0001:0003886c       __unwindfunclet$?find@?$_Tree@V?$_Tmap_traits@PADUtextStruct@@U?$less@PAD@std@@V?$allocator@U?$pair@QADUtextStruct@@@std@@@3@$0A@@std@@@std@@QAE?AViterator@12@ABQAD@Z$3 6083986c f   NMS_TextureManager.obj
 0001:0003888b       __ehhandler$?find@?$_Tree@V?$_Tmap_traits@PADUtextStruct@@U?$less@PAD@std@@V?$allocator@U?$pair@QADUtextStruct@@@std@@@3@$0A@@std@@@std@@QAE?AViterator@12@ABQAD@Z 6083988b f   NMS_TextureManager.obj
 0001:000388b0       __unwindfunclet$??0?$_Tree@V?$_Tmap_traits@PADUtextStruct@@U?$less@PAD@std@@V?$allocator@U?$pair@QADUtextStruct@@@std@@@3@$0A@@std@@@std@@QAE@ABU?$less@PAD@1@ABV?$allocator@U?$pair@QADUtextStruct@@@std@@@1@@Z$0 608398b0 f   NMS_TextureManager.obj
 0001:000388b8       __ehhandler$??0?$_Tree@V?$_Tmap_traits@PADUtextStruct@@U?$less@PAD@std@@V?$allocator@U?$pair@QADUtextStruct@@@std@@@3@$0A@@std@@@std@@QAE@ABU?$less@PAD@1@ABV?$allocator@U?$pair@QADUtextStruct@@@std@@@1@@Z 608398b8 f   NMS_TextureManager.obj
 0001:000388e0       __unwindfunclet$?insert@?$_Tree@V?$_Tmap_traits@PADUtextStruct@@U?$less@PAD@std@@V?$allocator@U?$pair@QADUtextStruct@@@std@@@3@$0A@@std@@@std@@QAE?AViterator@12@Vconst_iterator@12@ABU?$pair@QADUtextStruct@@@2@@Z$0 608398e0 f   NMS_TextureManager.obj
 0001:000388e8       __unwindfunclet$?insert@?$_Tree@V?$_Tmap_traits@PADUtextStruct@@U?$less@PAD@std@@V?$allocator@U?$pair@QADUtextStruct@@@std@@@3@$0A@@std@@@std@@QAE?AViterator@12@Vconst_iterator@12@ABU?$pair@QADUtextStruct@@@2@@Z$1 608398e8 f   NMS_TextureManager.obj
 0001:000388f0       __unwindfunclet$?insert@?$_Tree@V?$_Tmap_traits@PADUtextStruct@@U?$less@PAD@std@@V?$allocator@U?$pair@QADUtextStruct@@@std@@@3@$0A@@std@@@std@@QAE?AViterator@12@Vconst_iterator@12@ABU?$pair@QADUtextStruct@@@2@@Z$2 608398f0 f   NMS_TextureManager.obj
 0001:0003890f       __unwindfunclet$?insert@?$_Tree@V?$_Tmap_traits@PADUtextStruct@@U?$less@PAD@std@@V?$allocator@U?$pair@QADUtextStruct@@@std@@@3@$0A@@std@@@std@@QAE?AViterator@12@Vconst_iterator@12@ABU?$pair@QADUtextStruct@@@2@@Z$3 6083990f f   NMS_TextureManager.obj
 0001:0003891a       __unwindfunclet$?insert@?$_Tree@V?$_Tmap_traits@PADUtextStruct@@U?$less@PAD@std@@V?$allocator@U?$pair@QADUtextStruct@@@std@@@3@$0A@@std@@@std@@QAE?AViterator@12@Vconst_iterator@12@ABU?$pair@QADUtextStruct@@@2@@Z$4 6083991a f   NMS_TextureManager.obj
 0001:00038925       __unwindfunclet$?insert@?$_Tree@V?$_Tmap_traits@PADUtextStruct@@U?$less@PAD@std@@V?$allocator@U?$pair@QADUtextStruct@@@std@@@3@$0A@@std@@@std@@QAE?AViterator@12@Vconst_iterator@12@ABU?$pair@QADUtextStruct@@@2@@Z$5 60839925 f   NMS_TextureManager.obj
 0001:00038947       __unwindfunclet$?insert@?$_Tree@V?$_Tmap_traits@PADUtextStruct@@U?$less@PAD@std@@V?$allocator@U?$pair@QADUtextStruct@@@std@@@3@$0A@@std@@@std@@QAE?AViterator@12@Vconst_iterator@12@ABU?$pair@QADUtextStruct@@@2@@Z$6 60839947 f   NMS_TextureManager.obj
 0001:00038952       __unwindfunclet$?insert@?$_Tree@V?$_Tmap_traits@PADUtextStruct@@U?$less@PAD@std@@V?$allocator@U?$pair@QADUtextStruct@@@std@@@3@$0A@@std@@@std@@QAE?AViterator@12@Vconst_iterator@12@ABU?$pair@QADUtextStruct@@@2@@Z$7 60839952 f   NMS_TextureManager.obj
 0001:0003895d       __unwindfunclet$?insert@?$_Tree@V?$_Tmap_traits@PADUtextStruct@@U?$less@PAD@std@@V?$allocator@U?$pair@QADUtextStruct@@@std@@@3@$0A@@std@@@std@@QAE?AViterator@12@Vconst_iterator@12@ABU?$pair@QADUtextStruct@@@2@@Z$8 6083995d f   NMS_TextureManager.obj
 0001:0003897f       __unwindfunclet$?insert@?$_Tree@V?$_Tmap_traits@PADUtextStruct@@U?$less@PAD@std@@V?$allocator@U?$pair@QADUtextStruct@@@std@@@3@$0A@@std@@@std@@QAE?AViterator@12@Vconst_iterator@12@ABU?$pair@QADUtextStruct@@@2@@Z$9 6083997f f   NMS_TextureManager.obj
 0001:0003898a       __ehhandler$?insert@?$_Tree@V?$_Tmap_traits@PADUtextStruct@@U?$less@PAD@std@@V?$allocator@U?$pair@QADUtextStruct@@@std@@@3@$0A@@std@@@std@@QAE?AViterator@12@Vconst_iterator@12@ABU?$pair@QADUtextStruct@@@2@@Z 6083998a f   NMS_TextureManager.obj
 0001:000389b0       __unwindfunclet$?insert@?$_Tree@V?$_Tmap_traits@PADUtextStruct@@U?$less@PAD@std@@V?$allocator@U?$pair@QADUtextStruct@@@std@@@3@$0A@@std@@@std@@QAE?AU?$pair@Viterator@?$_Tree@V?$_Tmap_traits@PADUtextStruct@@U?$less@PAD@std@@V?$allocator@U?$pair@QADUtextStruct@@@std@@@3@$0A@@std@@@std@@_N@2@ABU?$pair@QADUtextStruct@@@2@@Z$0 608399b0 f   NMS_TextureManager.obj
 0001:000389bb       __unwindfunclet$?insert@?$_Tree@V?$_Tmap_traits@PADUtextStruct@@U?$less@PAD@std@@V?$allocator@U?$pair@QADUtextStruct@@@std@@@3@$0A@@std@@@std@@QAE?AU?$pair@Viterator@?$_Tree@V?$_Tmap_traits@PADUtextStruct@@U?$less@PAD@std@@V?$allocator@U?$pair@QADUtextStruct@@@std@@@3@$0A@@std@@@std@@_N@2@ABU?$pair@QADUtextStruct@@@2@@Z$1 608399bb f   NMS_TextureManager.obj
 0001:000389da       __unwindfunclet$?insert@?$_Tree@V?$_Tmap_traits@PADUtextStruct@@U?$less@PAD@std@@V?$allocator@U?$pair@QADUtextStruct@@@std@@@3@$0A@@std@@@std@@QAE?AU?$pair@Viterator@?$_Tree@V?$_Tmap_traits@PADUtextStruct@@U?$less@PAD@std@@V?$allocator@U?$pair@QADUtextStruct@@@std@@@3@$0A@@std@@@std@@_N@2@ABU?$pair@QADUtextStruct@@@2@@Z$2 608399da f   NMS_TextureManager.obj
 0001:000389e2       __unwindfunclet$?insert@?$_Tree@V?$_Tmap_traits@PADUtextStruct@@U?$less@PAD@std@@V?$allocator@U?$pair@QADUtextStruct@@@std@@@3@$0A@@std@@@std@@QAE?AU?$pair@Viterator@?$_Tree@V?$_Tmap_traits@PADUtextStruct@@U?$less@PAD@std@@V?$allocator@U?$pair@QADUtextStruct@@@std@@@3@$0A@@std@@@std@@_N@2@ABU?$pair@QADUtextStruct@@@2@@Z$3 608399e2 f   NMS_TextureManager.obj
 0001:000389ed       __unwindfunclet$?insert@?$_Tree@V?$_Tmap_traits@PADUtextStruct@@U?$less@PAD@std@@V?$allocator@U?$pair@QADUtextStruct@@@std@@@3@$0A@@std@@@std@@QAE?AU?$pair@Viterator@?$_Tree@V?$_Tmap_traits@PADUtextStruct@@U?$less@PAD@std@@V?$allocator@U?$pair@QADUtextStruct@@@std@@@3@$0A@@std@@@std@@_N@2@ABU?$pair@QADUtextStruct@@@2@@Z$4 608399ed f   NMS_TextureManager.obj
 0001:000389f8       __unwindfunclet$?insert@?$_Tree@V?$_Tmap_traits@PADUtextStruct@@U?$less@PAD@std@@V?$allocator@U?$pair@QADUtextStruct@@@std@@@3@$0A@@std@@@std@@QAE?AU?$pair@Viterator@?$_Tree@V?$_Tmap_traits@PADUtextStruct@@U?$less@PAD@std@@V?$allocator@U?$pair@QADUtextStruct@@@std@@@3@$0A@@std@@@std@@_N@2@ABU?$pair@QADUtextStruct@@@2@@Z$5 608399f8 f   NMS_TextureManager.obj
 0001:00038a03       __ehhandler$?insert@?$_Tree@V?$_Tmap_traits@PADUtextStruct@@U?$less@PAD@std@@V?$allocator@U?$pair@QADUtextStruct@@@std@@@3@$0A@@std@@@std@@QAE?AU?$pair@Viterator@?$_Tree@V?$_Tmap_traits@PADUtextStruct@@U?$less@PAD@std@@V?$allocator@U?$pair@QADUtextStruct@@@std@@@3@$0A@@std@@@std@@_N@2@ABU?$pair@QADUtextStruct@@@2@@Z 60839a03 f   NMS_TextureManager.obj
 0001:00038a30       __unwindfunclet$?_Insert@?$_Tree@V?$_Tmap_traits@PADUtextStruct@@U?$less@PAD@std@@V?$allocator@U?$pair@QADUtextStruct@@@std@@@3@$0A@@std@@@std@@IAE?AViterator@12@_NPAU_Node@?$_Tree_nod@V?$_Tmap_traits@PADUtextStruct@@U?$less@PAD@std@@V?$allocator@U?$pair@QADUtextStruct@@@std@@@3@$0A@@std@@@2@ABU?$pair@QADUtextStruct@@@2@@Z$0 60839a30 f   NMS_TextureManager.obj
 0001:00038a45       __ehhandler$?_Insert@?$_Tree@V?$_Tmap_traits@PADUtextStruct@@U?$less@PAD@std@@V?$allocator@U?$pair@QADUtextStruct@@@std@@@3@$0A@@std@@@std@@IAE?AViterator@12@_NPAU_Node@?$_Tree_nod@V?$_Tmap_traits@PADUtextStruct@@U?$less@PAD@std@@V?$allocator@U?$pair@QADUtextStruct@@@std@@@3@$0A@@std@@@2@ABU?$pair@QADUtextStruct@@@2@@Z 60839a45 f   NMS_TextureManager.obj
 0001:00038a70       __unwindfunclet$?start@Thread@@QAEXXZ$0 60839a70 f   NMS_Thread.obj
 0001:00038a85       __ehhandler$?start@Thread@@QAEXXZ 60839a85 f   NMS_Thread.obj
 0001:00038ab0       __ehhandler$?threadProxy@@YAHPAX@Z 60839ab0 f   NMS_Thread.obj
 0001:00038ad0       __unwindfunclet$??0Vector@@QAE@XZ$0 60839ad0 f   nms_math:Vector.obj
 0001:00038ad8       __ehhandler$??0Vector@@QAE@XZ 60839ad8 f   nms_math:Vector.obj
 0001:00038af3       __unwindfunclet$??XVector@@QAEAAV0@ABVMatrix@@@Z$0 60839af3 f   nms_math:Vector.obj
 0001:00038afb       __ehhandler$??XVector@@QAEAAV0@ABVMatrix@@@Z 60839afb f   nms_math:Vector.obj
 0001:00038b16       __unwindfunclet$??D@YA?AVVector@@AAV0@ABVMatrix@@@Z$0 60839b16 f   nms_math:Vector.obj
 0001:00038b1e       __unwindfunclet$??D@YA?AVVector@@AAV0@ABVMatrix@@@Z$1 60839b1e f   nms_math:Vector.obj
 0001:00038b37       __ehhandler$??D@YA?AVVector@@AAV0@ABVMatrix@@@Z 60839b37 f   nms_math:Vector.obj
 0001:00038b60       __unwindfunclet$??XPoint@@QAEAAV0@ABVMatrix@@@Z$0 60839b60 f   nms_math:Point.obj
 0001:00038b68       __ehhandler$??XPoint@@QAEAAV0@ABVMatrix@@@Z 60839b68 f   nms_math:Point.obj
 0001:00038b83       __unwindfunclet$??D@YA?AVPoint@@AAV0@ABVMatrix@@@Z$0 60839b83 f   nms_math:Point.obj
 0001:00038b8b       __unwindfunclet$??D@YA?AVPoint@@AAV0@ABVMatrix@@@Z$1 60839b8b f   nms_math:Point.obj
 0001:00038ba4       __ehhandler$??D@YA?AVPoint@@AAV0@ABVMatrix@@@Z 60839ba4 f   nms_math:Point.obj
 0001:00038bc0       __unwindfunclet$??0Matrix@@QAE@XZ$0 60839bc0 f   nms_math:Matrix.obj
 0001:00038bcb       __ehhandler$??0Matrix@@QAE@XZ 60839bcb f   nms_math:Matrix.obj
 0001:00038be6       __unwindfunclet$??0Matrix@@QAE@II@Z$0 60839be6 f   nms_math:Matrix.obj
 0001:00038bf1       __ehhandler$??0Matrix@@QAE@II@Z 60839bf1 f   nms_math:Matrix.obj
 0001:00038c0c       __unwindfunclet$??0Matrix@@QAE@ABV0@@Z$0 60839c0c f   nms_math:Matrix.obj
 0001:00038c17       __ehhandler$??0Matrix@@QAE@ABV0@@Z 60839c17 f   nms_math:Matrix.obj
 0001:00038c32       __unwindfunclet$??4Matrix@@QAEABV0@ABV0@@Z$0 60839c32 f   nms_math:Matrix.obj
 0001:00038c3d       __ehhandler$??4Matrix@@QAEABV0@ABV0@@Z 60839c3d f   nms_math:Matrix.obj
 0001:00038c58       __unwindfunclet$??S@YA?AVMatrix@@ABV0@@Z$0 60839c58 f   nms_math:Matrix.obj
 0001:00038c60       __unwindfunclet$??S@YA?AVMatrix@@ABV0@@Z$1 60839c60 f   nms_math:Matrix.obj
 0001:00038c79       __ehhandler$??S@YA?AVMatrix@@ABV0@@Z 60839c79 f   nms_math:Matrix.obj
 0001:00038c94       __unwindfunclet$??7@YA?AVMatrix@@ABV0@@Z$0 60839c94 f   nms_math:Matrix.obj
 0001:00038c9c       __unwindfunclet$??7@YA?AVMatrix@@ABV0@@Z$1 60839c9c f   nms_math:Matrix.obj
 0001:00038ca4       __unwindfunclet$??7@YA?AVMatrix@@ABV0@@Z$2 60839ca4 f   nms_math:Matrix.obj
 0001:00038cbd       __ehhandler$??7@YA?AVMatrix@@ABV0@@Z 60839cbd f   nms_math:Matrix.obj
 0001:00038cd8       __unwindfunclet$?rotX@Matrix@@QAEXABN@Z$0 60839cd8 f   nms_math:Matrix.obj
 0001:00038ce0       __ehhandler$?rotX@Matrix@@QAEXABN@Z 60839ce0 f   nms_math:Matrix.obj
 0001:00038cfb       __unwindfunclet$?rotY@Matrix@@QAEXABN@Z$0 60839cfb f   nms_math:Matrix.obj
 0001:00038d03       __ehhandler$?rotY@Matrix@@QAEXABN@Z 60839d03 f   nms_math:Matrix.obj
 0001:00038d1e       __unwindfunclet$?rotZ@Matrix@@QAEXABN@Z$0 60839d1e f   nms_math:Matrix.obj
 0001:00038d26       __ehhandler$?rotZ@Matrix@@QAEXABN@Z 60839d26 f   nms_math:Matrix.obj
 0001:00038d41       __unwindfunclet$?rotV@Matrix@@QAEXABNABVVector@@@Z$0 60839d41 f   nms_math:Matrix.obj
 0001:00038d49       __ehhandler$?rotV@Matrix@@QAEXABNABVVector@@@Z 60839d49 f   nms_math:Matrix.obj
 0001:00038d67       __unwindfunclet$?memoryRealloc@Matrix@@AAEXIIII@Z$0 60839d67 f   nms_math:Matrix.obj
 0001:00038d6f       __ehhandler$?memoryRealloc@Matrix@@AAEXIIII@Z 60839d6f f   nms_math:Matrix.obj
 0001:00038d8a       __unwindfunclet$??XMatrix@@QAEAAV0@ABV0@@Z$0 60839d8a f   nms_math:Matrix.obj
 0001:00038d92       __ehhandler$??XMatrix@@QAEAAV0@ABV0@@Z 60839d92 f   nms_math:Matrix.obj
 0001:00038dad       __unwindfunclet$??D@YA?AVMatrix@@ABV0@ABM@Z$0 60839dad f   nms_math:Matrix.obj
 0001:00038db5       __unwindfunclet$??D@YA?AVMatrix@@ABV0@ABM@Z$1 60839db5 f   nms_math:Matrix.obj
 0001:00038dce       __ehhandler$??D@YA?AVMatrix@@ABV0@ABM@Z 60839dce f   nms_math:Matrix.obj
 0001:00038de9       __unwindfunclet$??D@YA?AVMatrix@@ABV0@0@Z$0 60839de9 f   nms_math:Matrix.obj
 0001:00038df1       __unwindfunclet$??D@YA?AVMatrix@@ABV0@0@Z$1 60839df1 f   nms_math:Matrix.obj
 0001:00038e0a       __ehhandler$??D@YA?AVMatrix@@ABV0@0@Z 60839e0a f   nms_math:Matrix.obj
 0001:00038e25       __unwindfunclet$?uScale@Matrix@@QAEXABM@Z$0 60839e25 f   nms_math:Matrix.obj
 0001:00038e2d       __ehhandler$?uScale@Matrix@@QAEXABM@Z 60839e2d f   nms_math:Matrix.obj
 0001:00038e48       __unwindfunclet$?translate@Matrix@@QAEXABVVector@@@Z$0 60839e48 f   nms_math:Matrix.obj
 0001:00038e50       __ehhandler$?translate@Matrix@@QAEXABVVector@@@Z 60839e50 f   nms_math:Matrix.obj
 0001:00038e6b       __unwindfunclet$?shear@Matrix@@QAEXABMABI1@Z$0 60839e6b f   nms_math:Matrix.obj
 0001:00038e73       __ehhandler$?shear@Matrix@@QAEXABMABI1@Z 60839e73 f   nms_math:Matrix.obj
 0001:00038e90       __unwindfunclet$?getAttributeByName@?$CXMLReaderImpl@KVIXMLBase@io@irr@@@io@irr@@ABEPBUSAttribute@123@PBK@Z$0 60839e90 f    CIL library: CIL module
 0001:00038e98       __ehhandler$?getAttributeByName@?$CXMLReaderImpl@KVIXMLBase@io@irr@@@io@irr@@ABEPBUSAttribute@123@PBK@Z 60839e98 f    CIL library: CIL module
 0001:00038ec0       __unwindfunclet$?getAttributeByName@?$CXMLReaderImpl@GVIXMLBase@io@irr@@@io@irr@@ABEPBUSAttribute@123@PBG@Z$0 60839ec0 f    CIL library: CIL module
 0001:00038ec8       __ehhandler$?getAttributeByName@?$CXMLReaderImpl@GVIXMLBase@io@irr@@@io@irr@@ABEPBUSAttribute@123@PBG@Z 60839ec8 f    CIL library: CIL module
 0001:00038ef0       __unwindfunclet$?getAttributeByName@?$CXMLReaderImpl@DVIXMLBase@io@irr@@@io@irr@@ABEPBUSAttribute@123@PBD@Z$0 60839ef0 f    CIL library: CIL module
 0001:00038ef8       __ehhandler$?getAttributeByName@?$CXMLReaderImpl@DVIXMLBase@io@irr@@@io@irr@@ABEPBUSAttribute@123@PBD@Z 60839ef8 f    CIL library: CIL module
 0001:00038f20       __unwindfunclet$??0SAttribute@?$CXMLReaderImpl@KVIXMLBase@io@irr@@@io@irr@@QAE@XZ$0 60839f20 f    CIL library: CIL module
 0001:00038f28       __ehhandler$??0SAttribute@?$CXMLReaderImpl@KVIXMLBase@io@irr@@@io@irr@@QAE@XZ 60839f28 f    CIL library: CIL module
 0001:00038f50       __unwindfunclet$??0SAttribute@?$CXMLReaderImpl@GVIXMLBase@io@irr@@@io@irr@@QAE@XZ$0 60839f50 f    CIL library: CIL module
 0001:00038f58       __ehhandler$??0SAttribute@?$CXMLReaderImpl@GVIXMLBase@io@irr@@@io@irr@@QAE@XZ 60839f58 f    CIL library: CIL module
 0001:00038f80       __unwindfunclet$??0SAttribute@?$CXMLReaderImpl@DVIXMLBase@io@irr@@@io@irr@@QAE@XZ$0 60839f80 f    CIL library: CIL module
 0001:00038f88       __ehhandler$??0SAttribute@?$CXMLReaderImpl@DVIXMLBase@io@irr@@@io@irr@@QAE@XZ 60839f88 f    CIL library: CIL module
 0001:00038fb0       __unwindfunclet$?parseCDATA@?$CXMLReaderImpl@KVIXMLBase@io@irr@@@io@irr@@AAE_NXZ$0 60839fb0 f    CIL library: CIL module
 0001:00038fb8       __ehhandler$?parseCDATA@?$CXMLReaderImpl@KVIXMLBase@io@irr@@@io@irr@@AAE_NXZ 60839fb8 f    CIL library: CIL module
 0001:00038fe0       __unwindfunclet$?parseComment@?$CXMLReaderImpl@KVIXMLBase@io@irr@@@io@irr@@AAEXXZ$0 60839fe0 f    CIL library: CIL module
 0001:00038fe8       __ehhandler$?parseComment@?$CXMLReaderImpl@KVIXMLBase@io@irr@@@io@irr@@AAEXXZ 60839fe8 f    CIL library: CIL module
 0001:00039010       __unwindfunclet$?parseCDATA@?$CXMLReaderImpl@GVIXMLBase@io@irr@@@io@irr@@AAE_NXZ$0 6083a010 f    CIL library: CIL module
 0001:00039018       __ehhandler$?parseCDATA@?$CXMLReaderImpl@GVIXMLBase@io@irr@@@io@irr@@AAE_NXZ 6083a018 f    CIL library: CIL module
 0001:00039040       __unwindfunclet$?parseComment@?$CXMLReaderImpl@GVIXMLBase@io@irr@@@io@irr@@AAEXXZ$0 6083a040 f    CIL library: CIL module
 0001:00039048       __ehhandler$?parseComment@?$CXMLReaderImpl@GVIXMLBase@io@irr@@@io@irr@@AAEXXZ 6083a048 f    CIL library: CIL module
 0001:00039070       __unwindfunclet$?parseCDATA@?$CXMLReaderImpl@DVIXMLBase@io@irr@@@io@irr@@AAE_NXZ$0 6083a070 f    CIL library: CIL module
 0001:00039078       __ehhandler$?parseCDATA@?$CXMLReaderImpl@DVIXMLBase@io@irr@@@io@irr@@AAE_NXZ 6083a078 f    CIL library: CIL module
 0001:000390a0       __unwindfunclet$?parseComment@?$CXMLReaderImpl@DVIXMLBase@io@irr@@@io@irr@@AAEXXZ$0 6083a0a0 f    CIL library: CIL module
 0001:000390a8       __ehhandler$?parseComment@?$CXMLReaderImpl@DVIXMLBase@io@irr@@@io@irr@@AAEXXZ 6083a0a8 f    CIL library: CIL module
 0001:000390d0       __unwindfunclet$??1SAttribute@?$CXMLReaderImpl@KVIXMLBase@io@irr@@@io@irr@@QAE@XZ$0 6083a0d0 f    CIL library: CIL module
 0001:000390d8       __ehhandler$??1SAttribute@?$CXMLReaderImpl@KVIXMLBase@io@irr@@@io@irr@@QAE@XZ 6083a0d8 f    CIL library: CIL module
 0001:00039100       __unwindfunclet$??1SAttribute@?$CXMLReaderImpl@GVIXMLBase@io@irr@@@io@irr@@QAE@XZ$0 6083a100 f    CIL library: CIL module
 0001:00039108       __ehhandler$??1SAttribute@?$CXMLReaderImpl@GVIXMLBase@io@irr@@@io@irr@@QAE@XZ 6083a108 f    CIL library: CIL module
 0001:00039130       __unwindfunclet$??1SAttribute@?$CXMLReaderImpl@DVIXMLBase@io@irr@@@io@irr@@QAE@XZ$0 6083a130 f    CIL library: CIL module
 0001:00039138       __ehhandler$??1SAttribute@?$CXMLReaderImpl@DVIXMLBase@io@irr@@@io@irr@@QAE@XZ 6083a138 f    CIL library: CIL module
 0001:00039160       __unwindfunclet$??1?$CXMLReaderImpl@KVIXMLBase@io@irr@@@io@irr@@UAE@XZ$0 6083a160 f    CIL library: CIL module
 0001:00039168       __unwindfunclet$??1?$CXMLReaderImpl@KVIXMLBase@io@irr@@@io@irr@@UAE@XZ$1 6083a168 f    CIL library: CIL module
 0001:00039173       __unwindfunclet$??1?$CXMLReaderImpl@KVIXMLBase@io@irr@@@io@irr@@UAE@XZ$2 6083a173 f    CIL library: CIL module
 0001:0003917e       __unwindfunclet$??1?$CXMLReaderImpl@KVIXMLBase@io@irr@@@io@irr@@UAE@XZ$3 6083a17e f    CIL library: CIL module
 0001:00039189       __unwindfunclet$??1?$CXMLReaderImpl@KVIXMLBase@io@irr@@@io@irr@@UAE@XZ$4 6083a189 f    CIL library: CIL module
 0001:00039194       __ehhandler$??1?$CXMLReaderImpl@KVIXMLBase@io@irr@@@io@irr@@UAE@XZ 6083a194 f    CIL library: CIL module
 0001:000391b0       __unwindfunclet$??1?$CXMLReaderImpl@GVIXMLBase@io@irr@@@io@irr@@UAE@XZ$0 6083a1b0 f    CIL library: CIL module
 0001:000391b8       __unwindfunclet$??1?$CXMLReaderImpl@GVIXMLBase@io@irr@@@io@irr@@UAE@XZ$1 6083a1b8 f    CIL library: CIL module
 0001:000391c3       __unwindfunclet$??1?$CXMLReaderImpl@GVIXMLBase@io@irr@@@io@irr@@UAE@XZ$2 6083a1c3 f    CIL library: CIL module
 0001:000391ce       __unwindfunclet$??1?$CXMLReaderImpl@GVIXMLBase@io@irr@@@io@irr@@UAE@XZ$3 6083a1ce f    CIL library: CIL module
 0001:000391d9       __unwindfunclet$??1?$CXMLReaderImpl@GVIXMLBase@io@irr@@@io@irr@@UAE@XZ$4 6083a1d9 f    CIL library: CIL module
 0001:000391e4       __ehhandler$??1?$CXMLReaderImpl@GVIXMLBase@io@irr@@@io@irr@@UAE@XZ 6083a1e4 f    CIL library: CIL module
 0001:00039200       __unwindfunclet$??1?$CXMLReaderImpl@DVIXMLBase@io@irr@@@io@irr@@UAE@XZ$0 6083a200 f    CIL library: CIL module
 0001:00039208       __unwindfunclet$??1?$CXMLReaderImpl@DVIXMLBase@io@irr@@@io@irr@@UAE@XZ$1 6083a208 f    CIL library: CIL module
 0001:00039213       __unwindfunclet$??1?$CXMLReaderImpl@DVIXMLBase@io@irr@@@io@irr@@UAE@XZ$2 6083a213 f    CIL library: CIL module
 0001:0003921e       __unwindfunclet$??1?$CXMLReaderImpl@DVIXMLBase@io@irr@@@io@irr@@UAE@XZ$3 6083a21e f    CIL library: CIL module
 0001:00039229       __unwindfunclet$??1?$CXMLReaderImpl@DVIXMLBase@io@irr@@@io@irr@@UAE@XZ$4 6083a229 f    CIL library: CIL module
 0001:00039234       __ehhandler$??1?$CXMLReaderImpl@DVIXMLBase@io@irr@@@io@irr@@UAE@XZ 6083a234 f    CIL library: CIL module
 0001:00039250       __unwindfunclet$?reallocate@?$array@V?$string@K@core@irr@@@core@irr@@QAEXI@Z$0 6083a250 f    CIL library: CIL module
 0001:0003925b       __ehhandler$?reallocate@?$array@V?$string@K@core@irr@@@core@irr@@QAEXI@Z 6083a25b f    CIL library: CIL module
 0001:00039280       __unwindfunclet$?reallocate@?$array@V?$string@G@core@irr@@@core@irr@@QAEXI@Z$0 6083a280 f    CIL library: CIL module
 0001:0003928b       __ehhandler$?reallocate@?$array@V?$string@G@core@irr@@@core@irr@@QAEXI@Z 6083a28b f    CIL library: CIL module
 0001:000392b0       __unwindfunclet$?reallocate@?$array@V?$string@D@core@irr@@@core@irr@@QAEXI@Z$0 6083a2b0 f    CIL library: CIL module
 0001:000392bb       __ehhandler$?reallocate@?$array@V?$string@D@core@irr@@@core@irr@@QAEXI@Z 6083a2bb f    CIL library: CIL module
 0001:000392e0       __unwindfunclet$?push_back@?$array@V?$string@K@core@irr@@@core@irr@@QAEXABV?$string@K@23@@Z$0 6083a2e0 f    CIL library: CIL module
 0001:000392e8       __ehhandler$?push_back@?$array@V?$string@K@core@irr@@@core@irr@@QAEXABV?$string@K@23@@Z 6083a2e8 f    CIL library: CIL module
 0001:00039310       __unwindfunclet$?parseClosingXMLElement@?$CXMLReaderImpl@KVIXMLBase@io@irr@@@io@irr@@AAEXXZ$0 6083a310 f    CIL library: CIL module
 0001:00039318       __ehhandler$?parseClosingXMLElement@?$CXMLReaderImpl@KVIXMLBase@io@irr@@@io@irr@@AAEXXZ 6083a318 f    CIL library: CIL module
 0001:00039340       __unwindfunclet$?push_back@?$array@V?$string@G@core@irr@@@core@irr@@QAEXABV?$string@G@23@@Z$0 6083a340 f    CIL library: CIL module
 0001:00039348       __ehhandler$?push_back@?$array@V?$string@G@core@irr@@@core@irr@@QAEXABV?$string@G@23@@Z 6083a348 f    CIL library: CIL module
 0001:00039370       __unwindfunclet$?parseClosingXMLElement@?$CXMLReaderImpl@GVIXMLBase@io@irr@@@io@irr@@AAEXXZ$0 6083a370 f    CIL library: CIL module
 0001:00039378       __ehhandler$?parseClosingXMLElement@?$CXMLReaderImpl@GVIXMLBase@io@irr@@@io@irr@@AAEXXZ 6083a378 f    CIL library: CIL module
 0001:000393a0       __unwindfunclet$?push_back@?$array@V?$string@D@core@irr@@@core@irr@@QAEXABV?$string@D@23@@Z$0 6083a3a0 f    CIL library: CIL module
 0001:000393a8       __ehhandler$?push_back@?$array@V?$string@D@core@irr@@@core@irr@@QAEXABV?$string@D@23@@Z 6083a3a8 f    CIL library: CIL module
 0001:000393d0       __unwindfunclet$?parseClosingXMLElement@?$CXMLReaderImpl@DVIXMLBase@io@irr@@@io@irr@@AAEXXZ$0 6083a3d0 f    CIL library: CIL module
 0001:000393d8       __ehhandler$?parseClosingXMLElement@?$CXMLReaderImpl@DVIXMLBase@io@irr@@@io@irr@@AAEXXZ 6083a3d8 f    CIL library: CIL module
 0001:00039400       __unwindfunclet$?createSpecialCharacterList@?$CXMLReaderImpl@KVIXMLBase@io@irr@@@io@irr@@AAEXXZ$0 6083a400 f    CIL library: CIL module
 0001:00039408       __unwindfunclet$?createSpecialCharacterList@?$CXMLReaderImpl@KVIXMLBase@io@irr@@@io@irr@@AAEXXZ$1 6083a408 f    CIL library: CIL module
 0001:00039410       __unwindfunclet$?createSpecialCharacterList@?$CXMLReaderImpl@KVIXMLBase@io@irr@@@io@irr@@AAEXXZ$2 6083a410 f    CIL library: CIL module
 0001:00039418       __unwindfunclet$?createSpecialCharacterList@?$CXMLReaderImpl@KVIXMLBase@io@irr@@@io@irr@@AAEXXZ$3 6083a418 f    CIL library: CIL module
 0001:00039420       __unwindfunclet$?createSpecialCharacterList@?$CXMLReaderImpl@KVIXMLBase@io@irr@@@io@irr@@AAEXXZ$4 6083a420 f    CIL library: CIL module
 0001:00039428       __ehhandler$?createSpecialCharacterList@?$CXMLReaderImpl@KVIXMLBase@io@irr@@@io@irr@@AAEXXZ 6083a428 f    CIL library: CIL module
 0001:00039450       __unwindfunclet$?createSpecialCharacterList@?$CXMLReaderImpl@GVIXMLBase@io@irr@@@io@irr@@AAEXXZ$0 6083a450 f    CIL library: CIL module
 0001:00039458       __unwindfunclet$?createSpecialCharacterList@?$CXMLReaderImpl@GVIXMLBase@io@irr@@@io@irr@@AAEXXZ$1 6083a458 f    CIL library: CIL module
 0001:00039460       __unwindfunclet$?createSpecialCharacterList@?$CXMLReaderImpl@GVIXMLBase@io@irr@@@io@irr@@AAEXXZ$2 6083a460 f    CIL library: CIL module
 0001:00039468       __unwindfunclet$?createSpecialCharacterList@?$CXMLReaderImpl@GVIXMLBase@io@irr@@@io@irr@@AAEXXZ$3 6083a468 f    CIL library: CIL module
 0001:00039470       __unwindfunclet$?createSpecialCharacterList@?$CXMLReaderImpl@GVIXMLBase@io@irr@@@io@irr@@AAEXXZ$4 6083a470 f    CIL library: CIL module
 0001:00039478       __ehhandler$?createSpecialCharacterList@?$CXMLReaderImpl@GVIXMLBase@io@irr@@@io@irr@@AAEXXZ 6083a478 f    CIL library: CIL module
 0001:000394a0       __unwindfunclet$?createSpecialCharacterList@?$CXMLReaderImpl@DVIXMLBase@io@irr@@@io@irr@@AAEXXZ$0 6083a4a0 f    CIL library: CIL module
 0001:000394a8       __unwindfunclet$?createSpecialCharacterList@?$CXMLReaderImpl@DVIXMLBase@io@irr@@@io@irr@@AAEXXZ$1 6083a4a8 f    CIL library: CIL module
 0001:000394b0       __unwindfunclet$?createSpecialCharacterList@?$CXMLReaderImpl@DVIXMLBase@io@irr@@@io@irr@@AAEXXZ$2 6083a4b0 f    CIL library: CIL module
 0001:000394b8       __unwindfunclet$?createSpecialCharacterList@?$CXMLReaderImpl@DVIXMLBase@io@irr@@@io@irr@@AAEXXZ$3 6083a4b8 f    CIL library: CIL module
 0001:000394c0       __unwindfunclet$?createSpecialCharacterList@?$CXMLReaderImpl@DVIXMLBase@io@irr@@@io@irr@@AAEXXZ$4 6083a4c0 f    CIL library: CIL module
 0001:000394c8       __ehhandler$?createSpecialCharacterList@?$CXMLReaderImpl@DVIXMLBase@io@irr@@@io@irr@@AAEXXZ 6083a4c8 f    CIL library: CIL module
 0001:000394f0       __unwindfunclet$??0?$CXMLReaderImpl@KVIXMLBase@io@irr@@@io@irr@@QAE@PAVIFileReadCallBack@12@_N@Z$0 6083a4f0 f    CIL library: CIL module
 0001:000394f8       __unwindfunclet$??0?$CXMLReaderImpl@KVIXMLBase@io@irr@@@io@irr@@QAE@PAVIFileReadCallBack@12@_N@Z$1 6083a4f8 f    CIL library: CIL module
 0001:00039503       __unwindfunclet$??0?$CXMLReaderImpl@KVIXMLBase@io@irr@@@io@irr@@QAE@PAVIFileReadCallBack@12@_N@Z$2 6083a503 f    CIL library: CIL module
 0001:0003950e       __unwindfunclet$??0?$CXMLReaderImpl@KVIXMLBase@io@irr@@@io@irr@@QAE@PAVIFileReadCallBack@12@_N@Z$3 6083a50e f    CIL library: CIL module
 0001:00039519       __unwindfunclet$??0?$CXMLReaderImpl@KVIXMLBase@io@irr@@@io@irr@@QAE@PAVIFileReadCallBack@12@_N@Z$4 6083a519 f    CIL library: CIL module
 0001:00039524       __ehhandler$??0?$CXMLReaderImpl@KVIXMLBase@io@irr@@@io@irr@@QAE@PAVIFileReadCallBack@12@_N@Z 6083a524 f    CIL library: CIL module
 0001:00039540       __unwindfunclet$??0?$CXMLReaderImpl@GVIXMLBase@io@irr@@@io@irr@@QAE@PAVIFileReadCallBack@12@_N@Z$0 6083a540 f    CIL library: CIL module
 0001:00039548       __unwindfunclet$??0?$CXMLReaderImpl@GVIXMLBase@io@irr@@@io@irr@@QAE@PAVIFileReadCallBack@12@_N@Z$1 6083a548 f    CIL library: CIL module
 0001:00039553       __unwindfunclet$??0?$CXMLReaderImpl@GVIXMLBase@io@irr@@@io@irr@@QAE@PAVIFileReadCallBack@12@_N@Z$2 6083a553 f    CIL library: CIL module
 0001:0003955e       __unwindfunclet$??0?$CXMLReaderImpl@GVIXMLBase@io@irr@@@io@irr@@QAE@PAVIFileReadCallBack@12@_N@Z$3 6083a55e f    CIL library: CIL module
 0001:00039569       __unwindfunclet$??0?$CXMLReaderImpl@GVIXMLBase@io@irr@@@io@irr@@QAE@PAVIFileReadCallBack@12@_N@Z$4 6083a569 f    CIL library: CIL module
 0001:00039574       __ehhandler$??0?$CXMLReaderImpl@GVIXMLBase@io@irr@@@io@irr@@QAE@PAVIFileReadCallBack@12@_N@Z 6083a574 f    CIL library: CIL module
 0001:00039590       __unwindfunclet$??0?$CXMLReaderImpl@DVIXMLBase@io@irr@@@io@irr@@QAE@PAVIFileReadCallBack@12@_N@Z$0 6083a590 f    CIL library: CIL module
 0001:00039598       __unwindfunclet$??0?$CXMLReaderImpl@DVIXMLBase@io@irr@@@io@irr@@QAE@PAVIFileReadCallBack@12@_N@Z$1 6083a598 f    CIL library: CIL module
 0001:000395a3       __unwindfunclet$??0?$CXMLReaderImpl@DVIXMLBase@io@irr@@@io@irr@@QAE@PAVIFileReadCallBack@12@_N@Z$2 6083a5a3 f    CIL library: CIL module
 0001:000395ae       __unwindfunclet$??0?$CXMLReaderImpl@DVIXMLBase@io@irr@@@io@irr@@QAE@PAVIFileReadCallBack@12@_N@Z$3 6083a5ae f    CIL library: CIL module
 0001:000395b9       __unwindfunclet$??0?$CXMLReaderImpl@DVIXMLBase@io@irr@@@io@irr@@QAE@PAVIFileReadCallBack@12@_N@Z$4 6083a5b9 f    CIL library: CIL module
 0001:000395c4       __ehhandler$??0?$CXMLReaderImpl@DVIXMLBase@io@irr@@@io@irr@@QAE@PAVIFileReadCallBack@12@_N@Z 6083a5c4 f    CIL library: CIL module
 0001:000395e0       __unwindfunclet$?createIrrXMLReaderUTF32@io@irr@@YAPAV?$IIrrXMLReader@KVIXMLBase@io@irr@@@12@PAVIFileReadCallBack@12@@Z$0 6083a5e0 f    CIL library: CIL module
 0001:000395eb       __ehhandler$?createIrrXMLReaderUTF32@io@irr@@YAPAV?$IIrrXMLReader@KVIXMLBase@io@irr@@@12@PAVIFileReadCallBack@12@@Z 6083a5eb f    CIL library: CIL module
 0001:00039610       __unwindfunclet$?createIrrXMLReaderUTF32@io@irr@@YAPAV?$IIrrXMLReader@KVIXMLBase@io@irr@@@12@PAU_iobuf@@@Z$0 6083a610 f    CIL library: CIL module
 0001:0003961b       __ehhandler$?createIrrXMLReaderUTF32@io@irr@@YAPAV?$IIrrXMLReader@KVIXMLBase@io@irr@@@12@PAU_iobuf@@@Z 6083a61b f    CIL library: CIL module
 0001:00039640       __unwindfunclet$?createIrrXMLReaderUTF32@io@irr@@YAPAV?$IIrrXMLReader@KVIXMLBase@io@irr@@@12@PBD@Z$0 6083a640 f    CIL library: CIL module
 0001:0003964b       __ehhandler$?createIrrXMLReaderUTF32@io@irr@@YAPAV?$IIrrXMLReader@KVIXMLBase@io@irr@@@12@PBD@Z 6083a64b f    CIL library: CIL module
 0001:00039670       __unwindfunclet$?createIrrXMLReaderUTF16@io@irr@@YAPAV?$IIrrXMLReader@GVIXMLBase@io@irr@@@12@PAVIFileReadCallBack@12@@Z$0 6083a670 f    CIL library: CIL module
 0001:0003967b       __ehhandler$?createIrrXMLReaderUTF16@io@irr@@YAPAV?$IIrrXMLReader@GVIXMLBase@io@irr@@@12@PAVIFileReadCallBack@12@@Z 6083a67b f    CIL library: CIL module
 0001:000396a0       __unwindfunclet$?createIrrXMLReaderUTF16@io@irr@@YAPAV?$IIrrXMLReader@GVIXMLBase@io@irr@@@12@PAU_iobuf@@@Z$0 6083a6a0 f    CIL library: CIL module
 0001:000396ab       __ehhandler$?createIrrXMLReaderUTF16@io@irr@@YAPAV?$IIrrXMLReader@GVIXMLBase@io@irr@@@12@PAU_iobuf@@@Z 6083a6ab f    CIL library: CIL module
 0001:000396d0       __unwindfunclet$?createIrrXMLReaderUTF16@io@irr@@YAPAV?$IIrrXMLReader@GVIXMLBase@io@irr@@@12@PBD@Z$0 6083a6d0 f    CIL library: CIL module
 0001:000396db       __ehhandler$?createIrrXMLReaderUTF16@io@irr@@YAPAV?$IIrrXMLReader@GVIXMLBase@io@irr@@@12@PBD@Z 6083a6db f    CIL library: CIL module
 0001:00039700       __unwindfunclet$?createIrrXMLReader@io@irr@@YAPAV?$IIrrXMLReader@DVIXMLBase@io@irr@@@12@PAVIFileReadCallBack@12@@Z$0 6083a700 f    CIL library: CIL module
 0001:0003970b       __ehhandler$?createIrrXMLReader@io@irr@@YAPAV?$IIrrXMLReader@DVIXMLBase@io@irr@@@12@PAVIFileReadCallBack@12@@Z 6083a70b f    CIL library: CIL module
 0001:00039730       __unwindfunclet$?createIrrXMLReader@io@irr@@YAPAV?$IIrrXMLReader@DVIXMLBase@io@irr@@@12@PAU_iobuf@@@Z$0 6083a730 f    CIL library: CIL module
 0001:0003973b       __ehhandler$?createIrrXMLReader@io@irr@@YAPAV?$IIrrXMLReader@DVIXMLBase@io@irr@@@12@PAU_iobuf@@@Z 6083a73b f    CIL library: CIL module
 0001:00039760       __unwindfunclet$?createIrrXMLReader@io@irr@@YAPAV?$IIrrXMLReader@DVIXMLBase@io@irr@@@12@PBD@Z$0 6083a760 f    CIL library: CIL module
 0001:0003976b       __ehhandler$?createIrrXMLReader@io@irr@@YAPAV?$IIrrXMLReader@DVIXMLBase@io@irr@@@12@PBD@Z 6083a76b f    CIL library: CIL module
 0001:00039790       __unwindfunclet$?reallocate@?$array@USAttribute@?$CXMLReaderImpl@KVIXMLBase@io@irr@@@io@irr@@@core@irr@@QAEXI@Z$0 6083a790 f    CIL library: CIL module
 0001:0003979b       __ehhandler$?reallocate@?$array@USAttribute@?$CXMLReaderImpl@KVIXMLBase@io@irr@@@io@irr@@@core@irr@@QAEXI@Z 6083a79b f    CIL library: CIL module
 0001:000397c0       __unwindfunclet$?subString@?$string@K@core@irr@@QAE?AV123@HH@Z$0 6083a7c0 f    CIL library: CIL module
 0001:000397d9       __unwindfunclet$?subString@?$string@K@core@irr@@QAE?AV123@HH@Z$1 6083a7d9 f    CIL library: CIL module
 0001:000397e1       __ehhandler$?subString@?$string@K@core@irr@@QAE?AV123@HH@Z 6083a7e1 f    CIL library: CIL module
 0001:00039800       __unwindfunclet$?reallocate@?$array@USAttribute@?$CXMLReaderImpl@GVIXMLBase@io@irr@@@io@irr@@@core@irr@@QAEXI@Z$0 6083a800 f    CIL library: CIL module
 0001:0003980b       __ehhandler$?reallocate@?$array@USAttribute@?$CXMLReaderImpl@GVIXMLBase@io@irr@@@io@irr@@@core@irr@@QAEXI@Z 6083a80b f    CIL library: CIL module
 0001:00039830       __unwindfunclet$?subString@?$string@G@core@irr@@QAE?AV123@HH@Z$0 6083a830 f    CIL library: CIL module
 0001:00039849       __unwindfunclet$?subString@?$string@G@core@irr@@QAE?AV123@HH@Z$1 6083a849 f    CIL library: CIL module
 0001:00039851       __ehhandler$?subString@?$string@G@core@irr@@QAE?AV123@HH@Z 6083a851 f    CIL library: CIL module
 0001:00039870       __unwindfunclet$?reallocate@?$array@USAttribute@?$CXMLReaderImpl@DVIXMLBase@io@irr@@@io@irr@@@core@irr@@QAEXI@Z$0 6083a870 f    CIL library: CIL module
 0001:0003987b       __ehhandler$?reallocate@?$array@USAttribute@?$CXMLReaderImpl@DVIXMLBase@io@irr@@@io@irr@@@core@irr@@QAEXI@Z 6083a87b f    CIL library: CIL module
 0001:000398a0       __unwindfunclet$?subString@?$string@D@core@irr@@QAE?AV123@HH@Z$0 6083a8a0 f    CIL library: CIL module
 0001:000398b9       __unwindfunclet$?subString@?$string@D@core@irr@@QAE?AV123@HH@Z$1 6083a8b9 f    CIL library: CIL module
 0001:000398c1       __ehhandler$?subString@?$string@D@core@irr@@QAE?AV123@HH@Z 6083a8c1 f    CIL library: CIL module
 0001:000398e0       __unwindfunclet$?push_back@?$array@USAttribute@?$CXMLReaderImpl@KVIXMLBase@io@irr@@@io@irr@@@core@irr@@QAEXABUSAttribute@?$CXMLReaderImpl@KVIXMLBase@io@irr@@@io@3@@Z$0 6083a8e0 f    CIL library: CIL module
 0001:000398e8       __ehhandler$?push_back@?$array@USAttribute@?$CXMLReaderImpl@KVIXMLBase@io@irr@@@io@irr@@@core@irr@@QAEXABUSAttribute@?$CXMLReaderImpl@KVIXMLBase@io@irr@@@io@3@@Z 6083a8e8 f    CIL library: CIL module
 0001:00039910       __unwindfunclet$?replaceSpecialCharacters@?$CXMLReaderImpl@KVIXMLBase@io@irr@@@io@irr@@AAE?AV?$string@K@core@3@AAV453@@Z$0 6083a910 f    CIL library: CIL module
 0001:00039929       __unwindfunclet$?replaceSpecialCharacters@?$CXMLReaderImpl@KVIXMLBase@io@irr@@@io@irr@@AAE?AV?$string@K@core@3@AAV453@@Z$1 6083a929 f    CIL library: CIL module
 0001:00039931       __unwindfunclet$?replaceSpecialCharacters@?$CXMLReaderImpl@KVIXMLBase@io@irr@@@io@irr@@AAE?AV?$string@K@core@3@AAV453@@Z$3 6083a931 f    CIL library: CIL module
 0001:00039939       __unwindfunclet$?replaceSpecialCharacters@?$CXMLReaderImpl@KVIXMLBase@io@irr@@@io@irr@@AAE?AV?$string@K@core@3@AAV453@@Z$2 6083a939 f    CIL library: CIL module
 0001:00039941       __unwindfunclet$?replaceSpecialCharacters@?$CXMLReaderImpl@KVIXMLBase@io@irr@@@io@irr@@AAE?AV?$string@K@core@3@AAV453@@Z$4 6083a941 f    CIL library: CIL module
 0001:00039949       __ehhandler$?replaceSpecialCharacters@?$CXMLReaderImpl@KVIXMLBase@io@irr@@@io@irr@@AAE?AV?$string@K@core@3@AAV453@@Z 6083a949 f    CIL library: CIL module
 0001:00039970       __unwindfunclet$?push_back@?$array@USAttribute@?$CXMLReaderImpl@GVIXMLBase@io@irr@@@io@irr@@@core@irr@@QAEXABUSAttribute@?$CXMLReaderImpl@GVIXMLBase@io@irr@@@io@3@@Z$0 6083a970 f    CIL library: CIL module
 0001:00039978       __ehhandler$?push_back@?$array@USAttribute@?$CXMLReaderImpl@GVIXMLBase@io@irr@@@io@irr@@@core@irr@@QAEXABUSAttribute@?$CXMLReaderImpl@GVIXMLBase@io@irr@@@io@3@@Z 6083a978 f    CIL library: CIL module
 0001:000399a0       __unwindfunclet$?replaceSpecialCharacters@?$CXMLReaderImpl@GVIXMLBase@io@irr@@@io@irr@@AAE?AV?$string@G@core@3@AAV453@@Z$0 6083a9a0 f    CIL library: CIL module
 0001:000399b9       __unwindfunclet$?replaceSpecialCharacters@?$CXMLReaderImpl@GVIXMLBase@io@irr@@@io@irr@@AAE?AV?$string@G@core@3@AAV453@@Z$1 6083a9b9 f    CIL library: CIL module
 0001:000399c1       __unwindfunclet$?replaceSpecialCharacters@?$CXMLReaderImpl@GVIXMLBase@io@irr@@@io@irr@@AAE?AV?$string@G@core@3@AAV453@@Z$3 6083a9c1 f    CIL library: CIL module
 0001:000399c9       __unwindfunclet$?replaceSpecialCharacters@?$CXMLReaderImpl@GVIXMLBase@io@irr@@@io@irr@@AAE?AV?$string@G@core@3@AAV453@@Z$2 6083a9c9 f    CIL library: CIL module
 0001:000399d1       __unwindfunclet$?replaceSpecialCharacters@?$CXMLReaderImpl@GVIXMLBase@io@irr@@@io@irr@@AAE?AV?$string@G@core@3@AAV453@@Z$4 6083a9d1 f    CIL library: CIL module
 0001:000399d9       __ehhandler$?replaceSpecialCharacters@?$CXMLReaderImpl@GVIXMLBase@io@irr@@@io@irr@@AAE?AV?$string@G@core@3@AAV453@@Z 6083a9d9 f    CIL library: CIL module
 0001:00039a00       __unwindfunclet$?push_back@?$array@USAttribute@?$CXMLReaderImpl@DVIXMLBase@io@irr@@@io@irr@@@core@irr@@QAEXABUSAttribute@?$CXMLReaderImpl@DVIXMLBase@io@irr@@@io@3@@Z$0 6083aa00 f    CIL library: CIL module
 0001:00039a08       __ehhandler$?push_back@?$array@USAttribute@?$CXMLReaderImpl@DVIXMLBase@io@irr@@@io@irr@@@core@irr@@QAEXABUSAttribute@?$CXMLReaderImpl@DVIXMLBase@io@irr@@@io@3@@Z 6083aa08 f    CIL library: CIL module
 0001:00039a30       __unwindfunclet$?replaceSpecialCharacters@?$CXMLReaderImpl@DVIXMLBase@io@irr@@@io@irr@@AAE?AV?$string@D@core@3@AAV453@@Z$0 6083aa30 f    CIL library: CIL module
 0001:00039a49       __unwindfunclet$?replaceSpecialCharacters@?$CXMLReaderImpl@DVIXMLBase@io@irr@@@io@irr@@AAE?AV?$string@D@core@3@AAV453@@Z$1 6083aa49 f    CIL library: CIL module
 0001:00039a51       __unwindfunclet$?replaceSpecialCharacters@?$CXMLReaderImpl@DVIXMLBase@io@irr@@@io@irr@@AAE?AV?$string@D@core@3@AAV453@@Z$2 6083aa51 f    CIL library: CIL module
 0001:00039a59       __unwindfunclet$?replaceSpecialCharacters@?$CXMLReaderImpl@DVIXMLBase@io@irr@@@io@irr@@AAE?AV?$string@D@core@3@AAV453@@Z$3 6083aa59 f    CIL library: CIL module
 0001:00039a61       __unwindfunclet$?replaceSpecialCharacters@?$CXMLReaderImpl@DVIXMLBase@io@irr@@@io@irr@@AAE?AV?$string@D@core@3@AAV453@@Z$4 6083aa61 f    CIL library: CIL module
 0001:00039a69       __ehhandler$?replaceSpecialCharacters@?$CXMLReaderImpl@DVIXMLBase@io@irr@@@io@irr@@AAE?AV?$string@D@core@3@AAV453@@Z 6083aa69 f    CIL library: CIL module
 0001:00039a90       __unwindfunclet$?parseOpeningXMLElement@?$CXMLReaderImpl@KVIXMLBase@io@irr@@@io@irr@@AAEXXZ$0 6083aa90 f    CIL library: CIL module
 0001:00039a98       __unwindfunclet$?parseOpeningXMLElement@?$CXMLReaderImpl@KVIXMLBase@io@irr@@@io@irr@@AAEXXZ$1 6083aa98 f    CIL library: CIL module
 0001:00039aa0       __unwindfunclet$?parseOpeningXMLElement@?$CXMLReaderImpl@KVIXMLBase@io@irr@@@io@irr@@AAEXXZ$2 6083aaa0 f    CIL library: CIL module
 0001:00039aa8       __unwindfunclet$?parseOpeningXMLElement@?$CXMLReaderImpl@KVIXMLBase@io@irr@@@io@irr@@AAEXXZ$3 6083aaa8 f    CIL library: CIL module
 0001:00039ab0       __unwindfunclet$?parseOpeningXMLElement@?$CXMLReaderImpl@KVIXMLBase@io@irr@@@io@irr@@AAEXXZ$5 6083aab0 f    CIL library: CIL module
 0001:00039ab8       __unwindfunclet$?parseOpeningXMLElement@?$CXMLReaderImpl@KVIXMLBase@io@irr@@@io@irr@@AAEXXZ$4 6083aab8 f    CIL library: CIL module
 0001:00039ac0       __ehhandler$?parseOpeningXMLElement@?$CXMLReaderImpl@KVIXMLBase@io@irr@@@io@irr@@AAEXXZ 6083aac0 f    CIL library: CIL module
 0001:00039ae0       __unwindfunclet$?setText@?$CXMLReaderImpl@KVIXMLBase@io@irr@@@io@irr@@AAE_NPAK0@Z$0 6083aae0 f    CIL library: CIL module
 0001:00039ae8       __unwindfunclet$?setText@?$CXMLReaderImpl@KVIXMLBase@io@irr@@@io@irr@@AAE_NPAK0@Z$1 6083aae8 f    CIL library: CIL module
 0001:00039af0       __ehhandler$?setText@?$CXMLReaderImpl@KVIXMLBase@io@irr@@@io@irr@@AAE_NPAK0@Z 6083aaf0 f    CIL library: CIL module
 0001:00039b10       __unwindfunclet$?parseOpeningXMLElement@?$CXMLReaderImpl@GVIXMLBase@io@irr@@@io@irr@@AAEXXZ$5 6083ab10 f    CIL library: CIL module
 0001:00039b18       __unwindfunclet$?parseOpeningXMLElement@?$CXMLReaderImpl@GVIXMLBase@io@irr@@@io@irr@@AAEXXZ$0 6083ab18 f    CIL library: CIL module
 0001:00039b20       __unwindfunclet$?parseOpeningXMLElement@?$CXMLReaderImpl@GVIXMLBase@io@irr@@@io@irr@@AAEXXZ$1 6083ab20 f    CIL library: CIL module
 0001:00039b28       __unwindfunclet$?parseOpeningXMLElement@?$CXMLReaderImpl@GVIXMLBase@io@irr@@@io@irr@@AAEXXZ$2 6083ab28 f    CIL library: CIL module
 0001:00039b30       __unwindfunclet$?parseOpeningXMLElement@?$CXMLReaderImpl@GVIXMLBase@io@irr@@@io@irr@@AAEXXZ$3 6083ab30 f    CIL library: CIL module
 0001:00039b38       __unwindfunclet$?parseOpeningXMLElement@?$CXMLReaderImpl@GVIXMLBase@io@irr@@@io@irr@@AAEXXZ$7 6083ab38 f    CIL library: CIL module
 0001:00039b40       __unwindfunclet$?parseOpeningXMLElement@?$CXMLReaderImpl@GVIXMLBase@io@irr@@@io@irr@@AAEXXZ$4 6083ab40 f    CIL library: CIL module
 0001:00039b48       __ehhandler$?parseOpeningXMLElement@?$CXMLReaderImpl@GVIXMLBase@io@irr@@@io@irr@@AAEXXZ 6083ab48 f    CIL library: CIL module
 0001:00039b70       __unwindfunclet$?setText@?$CXMLReaderImpl@GVIXMLBase@io@irr@@@io@irr@@AAE_NPAG0@Z$0 6083ab70 f    CIL library: CIL module
 0001:00039b78       __unwindfunclet$?setText@?$CXMLReaderImpl@GVIXMLBase@io@irr@@@io@irr@@AAE_NPAG0@Z$1 6083ab78 f    CIL library: CIL module
 0001:00039b80       __ehhandler$?setText@?$CXMLReaderImpl@GVIXMLBase@io@irr@@@io@irr@@AAE_NPAG0@Z 6083ab80 f    CIL library: CIL module
 0001:00039ba0       __unwindfunclet$?parseOpeningXMLElement@?$CXMLReaderImpl@DVIXMLBase@io@irr@@@io@irr@@AAEXXZ$5 6083aba0 f    CIL library: CIL module
 0001:00039ba8       __unwindfunclet$?parseOpeningXMLElement@?$CXMLReaderImpl@DVIXMLBase@io@irr@@@io@irr@@AAEXXZ$0 6083aba8 f    CIL library: CIL module
 0001:00039bb0       __unwindfunclet$?parseOpeningXMLElement@?$CXMLReaderImpl@DVIXMLBase@io@irr@@@io@irr@@AAEXXZ$1 6083abb0 f    CIL library: CIL module
 0001:00039bb8       __unwindfunclet$?parseOpeningXMLElement@?$CXMLReaderImpl@DVIXMLBase@io@irr@@@io@irr@@AAEXXZ$2 6083abb8 f    CIL library: CIL module
 0001:00039bc0       __unwindfunclet$?parseOpeningXMLElement@?$CXMLReaderImpl@DVIXMLBase@io@irr@@@io@irr@@AAEXXZ$3 6083abc0 f    CIL library: CIL module
 0001:00039bc8       __unwindfunclet$?parseOpeningXMLElement@?$CXMLReaderImpl@DVIXMLBase@io@irr@@@io@irr@@AAEXXZ$7 6083abc8 f    CIL library: CIL module
 0001:00039bd0       __unwindfunclet$?parseOpeningXMLElement@?$CXMLReaderImpl@DVIXMLBase@io@irr@@@io@irr@@AAEXXZ$4 6083abd0 f    CIL library: CIL module
 0001:00039bd8       __ehhandler$?parseOpeningXMLElement@?$CXMLReaderImpl@DVIXMLBase@io@irr@@@io@irr@@AAEXXZ 6083abd8 f    CIL library: CIL module
 0001:00039c00       __unwindfunclet$?setText@?$CXMLReaderImpl@DVIXMLBase@io@irr@@@io@irr@@AAE_NPAD0@Z$0 6083ac00 f    CIL library: CIL module
 0001:00039c08       __unwindfunclet$?setText@?$CXMLReaderImpl@DVIXMLBase@io@irr@@@io@irr@@AAE_NPAD0@Z$1 6083ac08 f    CIL library: CIL module
 0001:00039c10       __ehhandler$?setText@?$CXMLReaderImpl@DVIXMLBase@io@irr@@@io@irr@@AAE_NPAD0@Z 6083ac10 f    CIL library: CIL module
 0001:00039c30       ??__Eengine@@YAXXZ         6083ac30 f   NMS_Engine.obj
 0001:00039c80       ??__Fengine@@YAXXZ         6083ac80 f   NMS_Engine.obj

 Exports

  ordinal    name

        1    ??0AmbientLight@@QAE@ABV0@@Z (public: __thiscall AmbientLight::AmbientLight(class AmbientLight const &))
        2    ??0AmbientLight@@QAE@XZ (public: __thiscall AmbientLight::AmbientLight(void))
        3    ??0CameraNode@@QAE@ABV0@@Z (public: __thiscall CameraNode::CameraNode(class CameraNode const &))
        4    ??0CameraNode@@QAE@XZ (public: __thiscall CameraNode::CameraNode(void))
        5    ??0ColMesh@@QAE@ABV0@@Z (public: __thiscall ColMesh::ColMesh(class ColMesh const &))
        6    ??0ColMesh@@QAE@XZ (public: __thiscall ColMesh::ColMesh(void))
        7    ??0ColladaModel@@QAE@ABV0@@Z (public: __thiscall ColladaModel::ColladaModel(class ColladaModel const &))
        8    ??0ColladaModel@@QAE@XZ (public: __thiscall ColladaModel::ColladaModel(void))
        9    ??0EmptySceneVisitor@@QAE@ABV0@@Z (public: __thiscall EmptySceneVisitor::EmptySceneVisitor(class EmptySceneVisitor const &))
       10    ??0EmptySceneVisitor@@QAE@XZ (public: __thiscall EmptySceneVisitor::EmptySceneVisitor(void))
       11    ??0GeometryNode@@QAE@ABV0@@Z (public: __thiscall GeometryNode::GeometryNode(class GeometryNode const &))
       12    ??0GeometryNode@@QAE@PAVNMS_Mesh@@PAVbtRigidBody@@@Z (public: __thiscall GeometryNode::GeometryNode(class NMS_Mesh *,class btRigidBody *))
       13    ??0GeometryNode@@QAE@PAVNMS_Mesh@@PAVbtRigidBody@@VMatrix@@@Z (public: __thiscall GeometryNode::GeometryNode(class NMS_Mesh *,class btRigidBody *,class Matrix))
       14    ??0GeometryNode@@QAE@XZ (public: __thiscall GeometryNode::GeometryNode(void))
       15    ??0LightSource@@QAE@ABV0@@Z (public: __thiscall LightSource::LightSource(class LightSource const &))
       16    ??0LightSource@@QAE@XZ (public: __thiscall LightSource::LightSource(void))
       17    ??0MD2Model@@QAE@ABV0@@Z (public: __thiscall MD2Model::MD2Model(class MD2Model const &))
       18    ??0MD2Model@@QAE@XZ (public: __thiscall MD2Model::MD2Model(void))
       19    ??0Matrix@@QAE@ABV0@@Z (public: __thiscall Matrix::Matrix(class Matrix const &))
       20    ??0Matrix@@QAE@II@Z (public: __thiscall Matrix::Matrix(unsigned int,unsigned int))
       21    ??0Matrix@@QAE@XZ (public: __thiscall Matrix::Matrix(void))
       22    ??0NMSCameraController@@QAE@ABV0@@Z (public: __thiscall NMSCameraController::NMSCameraController(class NMSCameraController const &))
       23    ??0NMSCameraController@@QAE@XZ (public: __thiscall NMSCameraController::NMSCameraController(void))
       24    ??0NMSCameraFPS@@QAE@ABV0@@Z (public: __thiscall NMSCameraFPS::NMSCameraFPS(class NMSCameraFPS const &))
       25    ??0NMSCameraFPS@@QAE@XZ (public: __thiscall NMSCameraFPS::NMSCameraFPS(void))
       26    ??0NMS_3DObject@@QAE@ABV0@@Z (public: __thiscall NMS_3DObject::NMS_3DObject(class NMS_3DObject const &))
       27    ??0NMS_3DObject@@QAE@PBVVector@@0@Z (public: __thiscall NMS_3DObject::NMS_3DObject(class Vector const *,class Vector const *))
       28    ??0NMS_3DObject@@QAE@XZ (public: __thiscall NMS_3DObject::NMS_3DObject(void))
       29    ??0NMS_AssetManager@@QAE@XZ (public: __thiscall NMS_AssetManager::NMS_AssetManager(void))
       30    ??0NMS_Event@@AAE@XZ (private: __thiscall NMS_Event::NMS_Event(void))
       31    ??0NMS_Event@@QAE@ABV0@@Z (public: __thiscall NMS_Event::NMS_Event(class NMS_Event const &))
       32    ??0NMS_Framework@@QAE@ABV0@@Z (public: __thiscall NMS_Framework::NMS_Framework(class NMS_Framework const &))
       33    ??0NMS_Framework@@QAE@XZ (public: __thiscall NMS_Framework::NMS_Framework(void))
       34    ??0NMS_LightSystem@@QAE@XZ (public: __thiscall NMS_LightSystem::NMS_LightSystem(void))
       35    ??0NMS_Mesh@@QAE@ABV0@@Z (public: __thiscall NMS_Mesh::NMS_Mesh(class NMS_Mesh const &))
       36    ??0NMS_Mesh@@QAE@XZ (public: __thiscall NMS_Mesh::NMS_Mesh(void))
       37    ??0NMS_SceneRenderer@@QAE@ABV0@@Z (public: __thiscall NMS_SceneRenderer::NMS_SceneRenderer(class NMS_SceneRenderer const &))
       38    ??0NMS_SceneRenderer@@QAE@PAVnms_physics@@@Z (public: __thiscall NMS_SceneRenderer::NMS_SceneRenderer(class nms_physics *))
       39    ??0NMS_SceneRenderer@@QAE@XZ (public: __thiscall NMS_SceneRenderer::NMS_SceneRenderer(void))
       40    ??0NMS_TextureManager@@QAE@ABV0@@Z (public: __thiscall NMS_TextureManager::NMS_TextureManager(class NMS_TextureManager const &))
       41    ??0NMS_TextureManager@@QAE@XZ (public: __thiscall NMS_TextureManager::NMS_TextureManager(void))
       42    ??0Point@@QAE@MMM@Z (public: __thiscall Point::Point(float,float,float))
       43    ??0Point@@QAE@XZ (public: __thiscall Point::Point(void))
       44    ??0SceneGraphNode@@QAE@ABV0@@Z (public: __thiscall SceneGraphNode::SceneGraphNode(class SceneGraphNode const &))
       45    ??0SceneGraphNode@@QAE@XZ (public: __thiscall SceneGraphNode::SceneGraphNode(void))
       46    ??0SceneGraphVisitor@@QAE@ABV0@@Z (public: __thiscall SceneGraphVisitor::SceneGraphVisitor(class SceneGraphVisitor const &))
       47    ??0SceneGraphVisitor@@QAE@XZ (public: __thiscall SceneGraphVisitor::SceneGraphVisitor(void))
       48    ??0Source@@QAE@ABV0@@Z (public: __thiscall Source::Source(class Source const &))
       49    ??0Source@@QAE@XZ (public: __thiscall Source::Source(void))
       50    ??0Thread@@QAE@ABV0@@Z (public: __thiscall Thread::Thread(class Thread const &))
       51    ??0Thread@@QAE@XZ (public: __thiscall Thread::Thread(void))
       52    ??0TransformationNode@@QAE@ABV0@@Z (public: __thiscall TransformationNode::TransformationNode(class TransformationNode const &))
       53    ??0TransformationNode@@QAE@VMatrix@@@Z (public: __thiscall TransformationNode::TransformationNode(class Matrix))
       54    ??0TransformationNode@@QAE@XZ (public: __thiscall TransformationNode::TransformationNode(void))
       55    ??0Triangle@@QAE@ABV0@@Z (public: __thiscall Triangle::Triangle(class Triangle const &))
       56    ??0Triangle@@QAE@XZ (public: __thiscall Triangle::Triangle(void))
       57    ??0Vector@@QAE@MMM@Z (public: __thiscall Vector::Vector(float,float,float))
       58    ??0Vector@@QAE@MMMM@Z (public: __thiscall Vector::Vector(float,float,float,float))
       59    ??0Vector@@QAE@XZ (public: __thiscall Vector::Vector(void))
       60    ??1AmbientLight@@QAE@XZ (public: __thiscall AmbientLight::~AmbientLight(void))
       61    ??1CameraNode@@QAE@XZ (public: __thiscall CameraNode::~CameraNode(void))
       62    ??1ColMesh@@QAE@XZ (public: __thiscall ColMesh::~ColMesh(void))
       63    ??1ColladaModel@@QAE@XZ (public: __thiscall ColladaModel::~ColladaModel(void))
       64    ??1GeometryNode@@QAE@XZ (public: __thiscall GeometryNode::~GeometryNode(void))
       65    ??1LightSource@@QAE@XZ (public: __thiscall LightSource::~LightSource(void))
       66    ??1MD2Model@@QAE@XZ (public: __thiscall MD2Model::~MD2Model(void))
       67    ??1Matrix@@QAE@XZ (public: __thiscall Matrix::~Matrix(void))
       68    ??1NMSCameraController@@QAE@XZ (public: __thiscall NMSCameraController::~NMSCameraController(void))
       69    ??1NMSCameraFPS@@QAE@XZ (public: __thiscall NMSCameraFPS::~NMSCameraFPS(void))
       70    ??1NMS_3DObject@@QAE@XZ (public: __thiscall NMS_3DObject::~NMS_3DObject(void))
       71    ??1NMS_AssetManager@@QAE@XZ (public: __thiscall NMS_AssetManager::~NMS_AssetManager(void))
       72    ??1NMS_Event@@QAE@XZ (public: __thiscall NMS_Event::~NMS_Event(void))
       73    ??1NMS_Framework@@QAE@XZ (public: __thiscall NMS_Framework::~NMS_Framework(void))
       74    ??1NMS_Mesh@@QAE@XZ (public: __thiscall NMS_Mesh::~NMS_Mesh(void))
       75    ??1NMS_TextureManager@@QAE@XZ (public: __thiscall NMS_TextureManager::~NMS_TextureManager(void))
       76    ??1Point@@QAE@XZ (public: __thiscall Point::~Point(void))
       77    ??1SceneGraphNode@@QAE@XZ (public: __thiscall SceneGraphNode::~SceneGraphNode(void))
       78    ??1Source@@QAE@XZ (public: __thiscall Source::~Source(void))
       79    ??1TransformationNode@@QAE@XZ (public: __thiscall TransformationNode::~TransformationNode(void))
       80    ??1Triangle@@QAE@XZ (public: __thiscall Triangle::~Triangle(void))
       81    ??1Vector@@QAE@XZ (public: __thiscall Vector::~Vector(void))
       82    ??4AmbientLight@@QAEAAV0@ABV0@@Z (public: class AmbientLight & __thiscall AmbientLight::operator=(class AmbientLight const &))
       83    ??4CameraNode@@QAEAAV0@ABV0@@Z (public: class CameraNode & __thiscall CameraNode::operator=(class CameraNode const &))
       84    ??4ColMesh@@QAEAAV0@ABV0@@Z (public: class ColMesh & __thiscall ColMesh::operator=(class ColMesh const &))
       85    ??4ColladaModel@@QAEAAV0@ABV0@@Z (public: class ColladaModel & __thiscall ColladaModel::operator=(class ColladaModel const &))
       86    ??4EmptySceneVisitor@@QAEAAV0@ABV0@@Z (public: class EmptySceneVisitor & __thiscall EmptySceneVisitor::operator=(class EmptySceneVisitor const &))
       87    ??4GeometryNode@@QAEAAV0@ABV0@@Z (public: class GeometryNode & __thiscall GeometryNode::operator=(class GeometryNode const &))
       88    ??4LightSource@@QAEAAV0@ABV0@@Z (public: class LightSource & __thiscall LightSource::operator=(class LightSource const &))
       89    ??4MD2Model@@QAEAAV0@ABV0@@Z (public: class MD2Model & __thiscall MD2Model::operator=(class MD2Model const &))
       90    ??4Matrix@@QAEABV0@ABV0@@Z (public: class Matrix const & __thiscall Matrix::operator=(class Matrix const &))
       91    ??4NMSCameraController@@QAEAAV0@ABV0@@Z (public: class NMSCameraController & __thiscall NMSCameraController::operator=(class NMSCameraController const &))
       92    ??4NMSCameraFPS@@QAEAAV0@ABV0@@Z (public: class NMSCameraFPS & __thiscall NMSCameraFPS::operator=(class NMSCameraFPS const &))
       93    ??4NMS_3DObject@@QAEAAV0@ABV0@@Z (public: class NMS_3DObject & __thiscall NMS_3DObject::operator=(class NMS_3DObject const &))
       94    ??4NMS_AssetManager@@QAEAAV0@ABV0@@Z (public: class NMS_AssetManager & __thiscall NMS_AssetManager::operator=(class NMS_AssetManager const &))
       95    ??4NMS_Event@@QAEAAV0@ABV0@@Z (public: class NMS_Event & __thiscall NMS_Event::operator=(class NMS_Event const &))
       96    ??4NMS_Framework@@QAEAAV0@ABV0@@Z (public: class NMS_Framework & __thiscall NMS_Framework::operator=(class NMS_Framework const &))
       97    ??4NMS_LightSystem@@QAEAAV0@ABV0@@Z (public: class NMS_LightSystem & __thiscall NMS_LightSystem::operator=(class NMS_LightSystem const &))
       98    ??4NMS_Mesh@@QAEAAV0@ABV0@@Z (public: class NMS_Mesh & __thiscall NMS_Mesh::operator=(class NMS_Mesh const &))
       99    ??4NMS_SceneRenderer@@QAEAAV0@ABV0@@Z (public: class NMS_SceneRenderer & __thiscall NMS_SceneRenderer::operator=(class NMS_SceneRenderer const &))
      100    ??4NMS_TextureManager@@QAEAAV0@ABV0@@Z (public: class NMS_TextureManager & __thiscall NMS_TextureManager::operator=(class NMS_TextureManager const &))
      101    ??4Point@@QAEAAV0@ABV0@@Z (public: class Point & __thiscall Point::operator=(class Point const &))
      102    ??4SceneGraphNode@@QAEAAV0@ABV0@@Z (public: class SceneGraphNode & __thiscall SceneGraphNode::operator=(class SceneGraphNode const &))
      103    ??4SceneGraphVisitor@@QAEAAV0@ABV0@@Z (public: class SceneGraphVisitor & __thiscall SceneGraphVisitor::operator=(class SceneGraphVisitor const &))
      104    ??4Source@@QAEAAV0@ABV0@@Z (public: class Source & __thiscall Source::operator=(class Source const &))
      105    ??4Thread@@QAEAAV0@ABV0@@Z (public: class Thread & __thiscall Thread::operator=(class Thread const &))
      106    ??4TransformationNode@@QAEAAV0@ABV0@@Z (public: class TransformationNode & __thiscall TransformationNode::operator=(class TransformationNode const &))
      107    ??4Triangle@@QAEAAV0@ABV0@@Z (public: class Triangle & __thiscall Triangle::operator=(class Triangle const &))
      108    ??4Vector@@QAEAAV0@ABV0@@Z (public: class Vector & __thiscall Vector::operator=(class Vector const &))
      109    ??4nmsTrig@@QAEAAV0@ABV0@@Z (public: class nmsTrig & __thiscall nmsTrig::operator=(class nmsTrig const &))
      110    ??APoint@@QAEAAMH@Z (public: float & __thiscall Point::operator[](int))
      111    ??APoint@@QBEABMH@Z (public: float const & __thiscall Point::operator[](int)const )
      112    ??DVector@@QAEMABV0@@Z (public: float __thiscall Vector::operator*(class Vector const &))
      113    ??GPoint@@QAE?AV0@ABVVector@@@Z (public: class Point __thiscall Point::operator-(class Vector const &))
      114    ??GPoint@@QAE?AVVector@@ABV0@@Z (public: class Vector __thiscall Point::operator-(class Point const &))
      115    ??HPoint@@QAE?AV0@ABVVector@@@Z (public: class Point __thiscall Point::operator+(class Vector const &))
      116    ??LVector@@QAE?AV0@ABV0@@Z (public: class Vector __thiscall Vector::operator%(class Vector const &))
      117    ??RMatrix@@QAEAAMII@Z (public: float & __thiscall Matrix::operator()(unsigned int,unsigned int))
      118    ??RMatrix@@QBE?BMII@Z (public: float const __thiscall Matrix::operator()(unsigned int,unsigned int)const )
      119    ??XMatrix@@QAEAAV0@ABM@Z (public: class Matrix & __thiscall Matrix::operator*=(float const &))
      120    ??XMatrix@@QAEAAV0@ABV0@@Z (public: class Matrix & __thiscall Matrix::operator*=(class Matrix const &))
      121    ??XPoint@@QAEAAV0@ABVMatrix@@@Z (public: class Point & __thiscall Point::operator*=(class Matrix const &))
      122    ??XVector@@QAEAAV0@ABVMatrix@@@Z (public: class Vector & __thiscall Vector::operator*=(class Matrix const &))
      123    ??XVector@@QAEAAV0@M@Z (public: class Vector & __thiscall Vector::operator*=(float))
      124    ??YVector@@QAEAAV0@ABV0@@Z (public: class Vector & __thiscall Vector::operator+=(class Vector const &))
      125    ??ZVector@@QAEAAV0@ABV0@@Z (public: class Vector & __thiscall Vector::operator-=(class Vector const &))
      126    ??_0Vector@@QAEAAV0@M@Z (public: class Vector & __thiscall Vector::operator/=(float))
      127    ??_7AmbientLight@@6B@ (const AmbientLight::`vftable')
      128    ??_7CameraNode@@6B@ (const CameraNode::`vftable')
      129    ??_7ColladaModel@@6B@ (const ColladaModel::`vftable')
      130    ??_7EmptySceneVisitor@@6B@ (const EmptySceneVisitor::`vftable')
      131    ??_7GeometryNode@@6B@ (const GeometryNode::`vftable')
      132    ??_7LightSource@@6B@ (const LightSource::`vftable')
      133    ??_7MD2Model@@6B@ (const MD2Model::`vftable')
      134    ??_7NMSCameraController@@6B@ (const NMSCameraController::`vftable')
      135    ??_7NMSCameraFPS@@6B@ (const NMSCameraFPS::`vftable')
      136    ??_7NMS_3DObject@@6B@ (const NMS_3DObject::`vftable')
      137    ??_7NMS_Mesh@@6B@ (const NMS_Mesh::`vftable')
      138    ??_7NMS_SceneRenderer@@6BSceneGraphVisitor@@@ (const NMS_SceneRenderer::`vftable'{for `SceneGraphVisitor'})
      139    ??_7NMS_SceneRenderer@@6BThread@@@ (const NMS_SceneRenderer::`vftable'{for `Thread'})
      140    ??_7SceneGraphNode@@6B@ (const SceneGraphNode::`vftable')
      141    ??_7SceneGraphVisitor@@6B@ (const SceneGraphVisitor::`vftable')
      142    ??_7Thread@@6B@ (const Thread::`vftable')
      143    ??_7TransformationNode@@6B@ (const TransformationNode::`vftable')
      144    ?Animate@MD2Model@@AAEXM@Z (private: void __thiscall MD2Model::Animate(float))
      145    ?CalculateFrameRate@NMS_Framework@@QAEXXZ (public: void __thiscall NMS_Framework::CalculateFrameRate(void))
      146    ?CalculateFrameRate@NMS_SceneRenderer@@QAEXXZ (public: void __thiscall NMS_SceneRenderer::CalculateFrameRate(void))
      147    ?Destroy@NMS_AssetManager@@SAXXZ (public: static void __cdecl NMS_AssetManager::Destroy(void))
      148    ?Destroy@NMS_TextureManager@@SAXXZ (public: static void __cdecl NMS_TextureManager::Destroy(void))
      149    ?Disable@NMS_LightSystem@@QAEXXZ (public: void __thiscall NMS_LightSystem::Disable(void))
      150    ?DrawFrame@MD2Model@@QAEXHH@Z (public: void __thiscall MD2Model::DrawFrame(int,int))
      151    ?Enable@NMS_LightSystem@@QAEXH@Z (public: void __thiscall NMS_LightSystem::Enable(int))
      152    ?FreeAll@NMS_AssetManager@@QAEXXZ (public: void __thiscall NMS_AssetManager::FreeAll(void))
      153    ?FreeAll@NMS_TextureManager@@QAEXXZ (public: void __thiscall NMS_TextureManager::FreeAll(void))
      154    ?FreeTexture@NMS_AssetManager@@QAEXPAD@Z (public: void __thiscall NMS_AssetManager::FreeTexture(char *))
      155    ?FreeTexture@NMS_TextureManager@@QAEXPAD@Z (public: void __thiscall NMS_TextureManager::FreeTexture(char *))
      156    ?GetErrorMessage@NMS_AssetManager@@QAEPADXZ (public: char * __thiscall NMS_AssetManager::GetErrorMessage(void))
      157    ?GetSingleton@NMS_AssetManager@@SAAAV1@XZ (public: static class NMS_AssetManager & __cdecl NMS_AssetManager::GetSingleton(void))
      158    ?GetSingleton@NMS_TextureManager@@SAAAV1@XZ (public: static class NMS_TextureManager & __cdecl NMS_TextureManager::GetSingleton(void))
      159    ?InitData@MD2Model@@AAEXXZ (private: void __thiscall MD2Model::InitData(void))
      160    ?InitEngine@@YA_NHHHPAD_N@Z (bool __cdecl InitEngine(int,int,int,char *,bool))
      161    ?Initialize@NMS_AssetManager@@CAXXZ (private: static void __cdecl NMS_AssetManager::Initialize(void))
      162    ?Initialize@NMS_TextureManager@@CAXXZ (private: static void __cdecl NMS_TextureManager::Initialize(void))
      163    ?Interpolate@MD2Model@@AAEXPAY02M0@Z (private: void __thiscall MD2Model::Interpolate(float (*)[3],float (*)[3]))
      164    ?LoadData@MD2Model@@AAEXXZ (private: void __thiscall MD2Model::LoadData(void))
      165    ?LoadFrames@MD2Model@@AAEXXZ (private: void __thiscall MD2Model::LoadFrames(void))
      166    ?LoadGLCommands@MD2Model@@AAEXXZ (private: void __thiscall MD2Model::LoadGLCommands(void))
      167    ?LoadModel@ColladaModel@@QAEHPBD@Z (public: int __thiscall ColladaModel::LoadModel(char const *))
      168    ?LoadModel@MD2Model@@QAEHPBD0@Z (public: int __thiscall MD2Model::LoadModel(char const *,char const *))
      169    ?LoadSkin@ColladaModel@@QAEHPAD@Z (public: int __thiscall ColladaModel::LoadSkin(char *))
      170    ?LoadSkin@MD2Model@@QAEHPBD@Z (public: int __thiscall MD2Model::LoadSkin(char const *))
      171    ?LoadTexture@NMS_AssetManager@@QAEHPBDPAD@Z (public: int __thiscall NMS_AssetManager::LoadTexture(char const *,char *))
      172    ?LoadTexture@NMS_TextureManager@@QAEHPBDPAD@Z (public: int __thiscall NMS_TextureManager::LoadTexture(char const *,char *))
      173    ?NMSInit@NMS_Framework@@QAE_NHHHPAD_N@Z (public: bool __thiscall NMS_Framework::NMSInit(int,int,int,char *,bool))
      174    ?NMSQuit@NMS_Framework@@QAEXH@Z (public: void __thiscall NMS_Framework::NMSQuit(int))
      175    ?QuitEngine@@YAXXZ (void __cdecl QuitEngine(void))
      176    ?ReadFile@MD2Model@@AAEHPBD@Z (private: int __thiscall MD2Model::ReadFile(char const *))
      177    ?ReadHeader@MD2Model@@AAEHPAEPAUHeader@@@Z (private: int __thiscall MD2Model::ReadHeader(unsigned char *,struct Header *))
      178    ?RenderFrame@ColladaModel@@AAEXXZ (private: void __thiscall ColladaModel::RenderFrame(void))
      179    ?RenderFrame@MD2Model@@AAEXXZ (private: void __thiscall MD2Model::RenderFrame(void))
      180    ?SetAnim@MD2Model@@QAEXH@Z (public: void __thiscall MD2Model::SetAnim(int))
      181    ?StartEngine@@YAXXZ (void __cdecl StartEngine(void))
      182    ?UpdateCamera@NMSCameraController@@QAEXM@Z (public: void __thiscall NMSCameraController::UpdateCamera(float))
      183    ?addChild@SceneGraphNode@@QAEXPAV1@@Z (public: void __thiscall SceneGraphNode::addChild(class SceneGraphNode *))
      184    ?after@GeometryNode@@UAEXPAVSceneGraphVisitor@@PAVMatrix@@@Z (public: virtual void __thiscall GeometryNode::after(class SceneGraphVisitor *,class Matrix *))
      185    ?after@NMSCameraController@@UAEXPAVSceneGraphVisitor@@PAVMatrix@@@Z (public: virtual void __thiscall NMSCameraController::after(class SceneGraphVisitor *,class Matrix *))
      186    ?after@TransformationNode@@UAEXPAVSceneGraphVisitor@@PAVMatrix@@@Z (public: virtual void __thiscall TransformationNode::after(class SceneGraphVisitor *,class Matrix *))
      187    ?animlist@MD2Model@@2PAUanim_t@@A (public: static struct anim_t * MD2Model::animlist)
      188    ?anorms@MD2Model@@0PAY02MA (private: static float (* MD2Model::anorms)[3])
      189    ?applyPhysics@NMS_SceneRenderer@@QAEXPAVbtRigidBody@@@Z (public: void __thiscall NMS_SceneRenderer::applyPhysics(class btRigidBody *))
      190    ?backtrack_to_root@SceneGraphNode@@QAEXPAVSceneGraphVisitor@@PAVMatrix@@@Z (public: void __thiscall SceneGraphNode::backtrack_to_root(class SceneGraphVisitor *,class Matrix *))
      191    ?before@GeometryNode@@UAEXPAVSceneGraphVisitor@@PAVMatrix@@@Z (public: virtual void __thiscall GeometryNode::before(class SceneGraphVisitor *,class Matrix *))
      192    ?before@NMSCameraController@@UAEXPAVSceneGraphVisitor@@PAVMatrix@@@Z (public: virtual void __thiscall NMSCameraController::before(class SceneGraphVisitor *,class Matrix *))
      193    ?before@TransformationNode@@UAEXPAVSceneGraphVisitor@@PAVMatrix@@@Z (public: virtual void __thiscall TransformationNode::before(class SceneGraphVisitor *,class Matrix *))
      194    ?checkForHash@NMS_TextureManager@@AAE?AUtextStruct@@PAD0@Z (private: struct textStruct __thiscall NMS_TextureManager::checkForHash(char *,char *))
      195    ?cleanup@NMS_Framework@@QAEXXZ (public: void __thiscall NMS_Framework::cleanup(void))
      196    ?cos@nmsTrig@@SAMN@Z (public: static float __cdecl nmsTrig::cos(double))
      197    ?debugPrint@Matrix@@QAEXXZ (public: void __thiscall Matrix::debugPrint(void))
      198    ?defineLight@LightSource@@QAEXV1@@Z (public: void __thiscall LightSource::defineLight(class LightSource))
      199    ?degToRad@nmsTrig@@SAMM@Z (public: static float __cdecl nmsTrig::degToRad(float))
      200    ?degToRad@nmsTrig@@SANN@Z (public: static double __cdecl nmsTrig::degToRad(double))
      201    ?destroy@NMS_Event@@SAXXZ (public: static void __cdecl NMS_Event::destroy(void))
      202    ?down@NMS_SceneRenderer@@QAEXXZ (public: void __thiscall NMS_SceneRenderer::down(void))
      203    ?enableWireframe@NMS_Framework@@QAEX_N@Z (public: void __thiscall NMS_Framework::enableWireframe(bool))
      204    ?engine@@3VNMS_Framework@@A (class NMS_Framework engine)
      205    ?getAttFact@LightSource@@QAEMXZ (public: float __thiscall LightSource::getAttFact(void))
      206    ?getAttType@LightSource@@QAEIXZ (public: unsigned int __thiscall LightSource::getAttType(void))
      207    ?getCol@Matrix@@QAE?AVVector@@I@Z (public: class Vector __thiscall Matrix::getCol(unsigned int))
      208    ?getColL@Matrix@@QBEIXZ (public: unsigned int __thiscall Matrix::getColL(void)const )
      209    ?getDir@NMSCameraController@@QAE?AVVector@@XZ (public: class Vector __thiscall NMSCameraController::getDir(void))
      210    ?getDirVector@NMS_3DObject@@QAE?AVVector@@XZ (public: class Vector __thiscall NMS_3DObject::getDirVector(void))
      211    ?getGlobalAmbient@AmbientLight@@QAE?AVVector@@XZ (public: class Vector __thiscall AmbientLight::getGlobalAmbient(void))
      212    ?getInstance@NMS_Event@@SAAAV1@XZ (public: static class NMS_Event & __cdecl NMS_Event::getInstance(void))
      213    ?getIntDis@LightSource@@QAEMXZ (public: float __thiscall LightSource::getIntDis(void))
      214    ?getLightNumber@LightSource@@QAEIXZ (public: unsigned int __thiscall LightSource::getLightNumber(void))
      215    ?getLightValue@LightSource@@QAE?AVVector@@XZ (public: class Vector __thiscall LightSource::getLightValue(void))
      216    ?getPos@NMSCameraController@@QAE?AVVector@@XZ (public: class Vector __thiscall NMSCameraController::getPos(void))
      217    ?getPosVector@NMS_3DObject@@QAE?AVVector@@XZ (public: class Vector __thiscall NMS_3DObject::getPosVector(void))
      218    ?getRSpeedX@NMSCameraController@@QAEMXZ (public: float __thiscall NMSCameraController::getRSpeedX(void))
      219    ?getRSpeedY@NMSCameraController@@QAEMXZ (public: float __thiscall NMSCameraController::getRSpeedY(void))
      220    ?getRSpeedZ@NMSCameraController@@QAEMXZ (public: float __thiscall NMSCameraController::getRSpeedZ(void))
      221    ?getRenderer@NMS_Framework@@QAEPAVNMS_SceneRenderer@@XZ (public: class NMS_SceneRenderer * __thiscall NMS_Framework::getRenderer(void))
      222    ?getRight@NMSCameraController@@QAE?AVVector@@XZ (public: class Vector __thiscall NMSCameraController::getRight(void))
      223    ?getRotation@NMSCameraController@@QAE?AVVector@@XZ (public: class Vector __thiscall NMSCameraController::getRotation(void))
      224    ?getRow@Matrix@@QAE?AVVector@@I@Z (public: class Vector __thiscall Matrix::getRow(unsigned int))
      225    ?getRowL@Matrix@@QBEIXZ (public: unsigned int __thiscall Matrix::getRowL(void)const )
      226    ?getScene@NMS_Framework@@QAEPAVSceneGraphNode@@XZ (public: class SceneGraphNode * __thiscall NMS_Framework::getScene(void))
      227    ?getSlideSpeed@NMSCameraController@@QAEMXZ (public: float __thiscall NMSCameraController::getSlideSpeed(void))
      228    ?getSpeed@NMSCameraController@@QAEMXZ (public: float __thiscall NMSCameraController::getSpeed(void))
      229    ?getThread@Thread@@QAEPAUSDL_Thread@@XZ (public: struct SDL_Thread * __thiscall Thread::getThread(void))
      230    ?getUp@NMSCameraController@@QAE?AVVector@@XZ (public: class Vector __thiscall NMSCameraController::getUp(void))
      231    ?getVelocity@NMSCameraController@@QAE?AVVector@@XZ (public: class Vector __thiscall NMSCameraController::getVelocity(void))
      232    ?handleEvent@NMS_Event@@QAEXTSDL_Event@@@Z (public: void __thiscall NMS_Event::handleEvent(union SDL_Event))
      233    ?init@NMSCameraFPS@@MAEXXZ (protected: virtual void __thiscall NMSCameraFPS::init(void))
      234    ?initMutexes@@YAXXZ (void __cdecl initMutexes(void))
      235    ?initRendering@NMS_SceneRenderer@@QAE_NXZ (public: bool __thiscall NMS_SceneRenderer::initRendering(void))
      236    ?m_Singleton@NMS_AssetManager@@0PAV1@A (private: static class NMS_AssetManager * NMS_AssetManager::m_Singleton)
      237    ?m_Singleton@NMS_TextureManager@@0PAV1@A (private: static class NMS_TextureManager * NMS_TextureManager::m_Singleton)
      238    ?m_iMessageSize@NMS_TextureManager@@0IB (private: static unsigned int const NMS_TextureManager::m_iMessageSize)
      239    ?magnitude@Vector@@QAEMXZ (public: float __thiscall Vector::magnitude(void))
      240    ?memoryRealloc@Matrix@@AAEXIIII@Z (private: void __thiscall Matrix::memoryRealloc(unsigned int,unsigned int,unsigned int,unsigned int))
      241    ?multiply@TransformationNode@@QAEXVMatrix@@@Z (public: void __thiscall TransformationNode::multiply(class Matrix))
      242    ?normal@Vector@@QAE?AV1@XZ (public: class Vector __thiscall Vector::normal(void))
      243    ?onIdle@NMS_Event@@QAEXP6AXH@Z@Z (public: void __thiscall NMS_Event::onIdle(void (__cdecl*)(int)))
      244    ?onKeyPressed@NMS_Event@@QAEXP6AXW4SDLKey@@@Z@Z (public: void __thiscall NMS_Event::onKeyPressed(void (__cdecl*)(enum SDLKey)))
      245    ?onKeyReleased@NMS_Event@@QAEXP6AXW4SDLKey@@@Z@Z (public: void __thiscall NMS_Event::onKeyReleased(void (__cdecl*)(enum SDLKey)))
      246    ?onMouseMoved@NMS_Event@@QAEXP6AXHH@Z@Z (public: void __thiscall NMS_Event::onMouseMoved(void (__cdecl*)(int,int)))
      247    ?pollEvents@NMS_Event@@QAEXXZ (public: void __thiscall NMS_Event::pollEvents(void))
      248    ?processEvents@NMS_Event@@QAEXXZ (public: void __thiscall NMS_Event::processEvents(void))
      249    ?radToDeg@nmsTrig@@SAMM@Z (public: static float __cdecl nmsTrig::radToDeg(float))
      250    ?radToDeg@nmsTrig@@SANN@Z (public: static double __cdecl nmsTrig::radToDeg(double))
      251    ?readLibraryGeometries@ColladaModel@@AAEXPAV?$IIrrXMLReader@DVIXMLBase@io@irr@@@io@irr@@@Z (private: void __thiscall ColladaModel::readLibraryGeometries(class irr::io::IIrrXMLReader<char,class irr::io::IXMLBase> *))
      252    ?readLibraryImages@ColladaModel@@AAEXPAV?$IIrrXMLReader@DVIXMLBase@io@irr@@@io@irr@@@Z (private: void __thiscall ColladaModel::readLibraryImages(class irr::io::IIrrXMLReader<char,class irr::io::IXMLBase> *))
      253    ?readMainSection@ColladaModel@@AAEXPAV?$IIrrXMLReader@DVIXMLBase@io@irr@@@io@irr@@@Z (private: void __thiscall ColladaModel::readMainSection(class irr::io::IIrrXMLReader<char,class irr::io::IXMLBase> *))
      254    ?recalcAxes@NMSCameraFPS@@MAEXXZ (protected: virtual void __thiscall NMSCameraFPS::recalcAxes(void))
      255    ?removeWhitespaces@ColladaModel@@AAEXPAPAD@Z (private: void __thiscall ColladaModel::removeWhitespaces(char * *))
      256    ?render@AmbientLight@@UAEXM@Z (public: virtual void __thiscall AmbientLight::render(float))
      257    ?render@ColladaModel@@UAEXM@Z (public: virtual void __thiscall ColladaModel::render(float))
      258    ?render@LightSource@@UAEXM@Z (public: virtual void __thiscall LightSource::render(float))
      259    ?render@MD2Model@@UAEXM@Z (public: virtual void __thiscall MD2Model::render(float))
      260    ?render@NMS_Framework@@QAEXXZ (public: void __thiscall NMS_Framework::render(void))
      261    ?render@NMS_SceneRenderer@@QAEXXZ (public: void __thiscall NMS_SceneRenderer::render(void))
      262    ?renderingLoop@NMS_SceneRenderer@@QAEHXZ (public: int __thiscall NMS_SceneRenderer::renderingLoop(void))
      263    ?resize@Matrix@@QAEXIIII@Z (public: void __thiscall Matrix::resize(unsigned int,unsigned int,unsigned int,unsigned int))
      264    ?returnPointer@Matrix@@QAEPAMXZ (public: float * __thiscall Matrix::returnPointer(void))
      265    ?returnViewMatrix@NMSCameraController@@QAE?AVMatrix@@XZ (public: class Matrix __thiscall NMSCameraController::returnViewMatrix(void))
      266    ?rotV@Matrix@@QAEXABNABVVector@@@Z (public: void __thiscall Matrix::rotV(double const &,class Vector const &))
      267    ?rotX@Matrix@@QAEXABN@Z (public: void __thiscall Matrix::rotX(double const &))
      268    ?rotY@Matrix@@QAEXABN@Z (public: void __thiscall Matrix::rotY(double const &))
      269    ?rotZ@Matrix@@QAEXABN@Z (public: void __thiscall Matrix::rotZ(double const &))
      270    ?run@NMS_Framework@@QAEXXZ (public: void __thiscall NMS_Framework::run(void))
      271    ?run@NMS_SceneRenderer@@UAEHXZ (public: virtual int __thiscall NMS_SceneRenderer::run(void))
      272    ?run@Thread@@UAEHXZ (public: virtual int __thiscall Thread::run(void))
      273    ?sceneGraphGuard@@3PAUSDL_mutex@@A (struct SDL_mutex * sceneGraphGuard)
      274    ?setAttFact@LightSource@@QAEXM@Z (public: void __thiscall LightSource::setAttFact(float))
      275    ?setAttType@LightSource@@QAEXI@Z (public: void __thiscall LightSource::setAttType(unsigned int))
      276    ?setCol@Matrix@@QAEXIABVVector@@@Z (public: void __thiscall Matrix::setCol(unsigned int,class Vector const &))
      277    ?setCurrentCamera@NMS_SceneRenderer@@QAEXPAVCameraNode@@@Z (public: void __thiscall NMS_SceneRenderer::setCurrentCamera(class CameraNode *))
      278    ?setDir@NMSCameraController@@QAEXAAVVector@@@Z (public: void __thiscall NMSCameraController::setDir(class Vector &))
      279    ?setDirVector@NMS_3DObject@@QAEXPBVVector@@@Z (public: void __thiscall NMS_3DObject::setDirVector(class Vector const *))
      280    ?setGlobalAmbient@AmbientLight@@QAEXPBVVector@@@Z (public: void __thiscall AmbientLight::setGlobalAmbient(class Vector const *))
      281    ?setIntDis@LightSource@@QAEXM@Z (public: void __thiscall LightSource::setIntDis(float))
      282    ?setLightNumber@LightSource@@QAEXI@Z (public: void __thiscall LightSource::setLightNumber(unsigned int))
      283    ?setLightValue@LightSource@@QAEXPBVVector@@@Z (public: void __thiscall LightSource::setLightValue(class Vector const *))
      284    ?setParent@SceneGraphNode@@IAEXPAV1@@Z (protected: void __thiscall SceneGraphNode::setParent(class SceneGraphNode *))
      285    ?setPos@NMSCameraController@@QAEXAAVVector@@@Z (public: void __thiscall NMSCameraController::setPos(class Vector &))
      286    ?setPosVector@NMS_3DObject@@QAEXPBVVector@@@Z (public: void __thiscall NMS_3DObject::setPosVector(class Vector const *))
      287    ?setRSpeedX@NMSCameraController@@QAEXM@Z (public: void __thiscall NMSCameraController::setRSpeedX(float))
      288    ?setRSpeedY@NMSCameraController@@QAEXM@Z (public: void __thiscall NMSCameraController::setRSpeedY(float))
      289    ?setRSpeedZ@NMSCameraController@@QAEXM@Z (public: void __thiscall NMSCameraController::setRSpeedZ(float))
      290    ?setRight@NMSCameraController@@QAEXAAVVector@@@Z (public: void __thiscall NMSCameraController::setRight(class Vector &))
      291    ?setRotation@NMSCameraController@@QAEXMMM@Z (public: void __thiscall NMSCameraController::setRotation(float,float,float))
      292    ?setRow@Matrix@@QAEXIABVVector@@@Z (public: void __thiscall Matrix::setRow(unsigned int,class Vector const &))
      293    ?setScene@NMS_SceneRenderer@@QAEXPAVSceneGraphNode@@@Z (public: void __thiscall NMS_SceneRenderer::setScene(class SceneGraphNode *))
      294    ?setSlideSpeed@NMSCameraController@@QAEXM@Z (public: void __thiscall NMSCameraController::setSlideSpeed(float))
      295    ?setSpeed@NMSCameraController@@QAEXM@Z (public: void __thiscall NMSCameraController::setSpeed(float))
      296    ?setUp@NMSCameraController@@QAEXAAVVector@@@Z (public: void __thiscall NMSCameraController::setUp(class Vector &))
      297    ?sg_after@EmptySceneVisitor@@UAEXVMatrix@@PAVNMS_Mesh@@@Z (public: virtual void __thiscall EmptySceneVisitor::sg_after(class Matrix,class NMS_Mesh *))
      298    ?sg_after@NMS_SceneRenderer@@UAEXVMatrix@@PAVNMS_Mesh@@@Z (public: virtual void __thiscall NMS_SceneRenderer::sg_after(class Matrix,class NMS_Mesh *))
      299    ?sg_before@EmptySceneVisitor@@UAEXVMatrix@@PAVNMS_Mesh@@PAVbtRigidBody@@@Z (public: virtual void __thiscall EmptySceneVisitor::sg_before(class Matrix,class NMS_Mesh *,class btRigidBody *))
      300    ?sg_before@NMS_SceneRenderer@@UAEXVMatrix@@PAVNMS_Mesh@@PAVbtRigidBody@@@Z (public: virtual void __thiscall NMS_SceneRenderer::sg_before(class Matrix,class NMS_Mesh *,class btRigidBody *))
      301    ?shear@Matrix@@QAEXABMABI1@Z (public: void __thiscall Matrix::shear(float const &,unsigned int const &,unsigned int const &))
      302    ?sin@nmsTrig@@SAMN@Z (public: static float __cdecl nmsTrig::sin(double))
      303    ?singleton@NMS_Event@@0PAV1@A (private: static class NMS_Event * NMS_Event::singleton)
      304    ?sqmagnitude@Vector@@QAEMXZ (public: float __thiscall Vector::sqmagnitude(void))
      305    ?start@Thread@@QAEXXZ (public: void __thiscall Thread::start(void))
      306    ?swapRows@Matrix@@QAEXII@Z (public: void __thiscall Matrix::swapRows(unsigned int,unsigned int))
      307    ?szErrorMessageSize@NMS_AssetManager@@0IB (private: static unsigned int const NMS_AssetManager::szErrorMessageSize)
      308    ?threadProxy@@YAHPAX@Z (int __cdecl threadProxy(void *))
      309    ?translate@Matrix@@QAEXABVVector@@@Z (public: void __thiscall Matrix::translate(class Vector const &))
      310    ?traverse_df@SceneGraphNode@@QAEXPAVSceneGraphVisitor@@@Z (public: void __thiscall SceneGraphNode::traverse_df(class SceneGraphVisitor *))
      311    ?traverse_df@SceneGraphNode@@QAEXPAVSceneGraphVisitor@@PAVMatrix@@@Z (public: void __thiscall SceneGraphNode::traverse_df(class SceneGraphVisitor *,class Matrix *))
      312    ?uScale@Matrix@@QAEXABM@Z (public: void __thiscall Matrix::uScale(float const &))
      313    ?up@NMS_SceneRenderer@@QAEXXZ (public: void __thiscall NMS_SceneRenderer::up(void))
