 nms_GL

 Timestamp is 4ca74ae6 (Sat Oct 02 17:08:22 2010)

 Preferred load address is 60800000

 Start         Length     Name                   Class
 0001:00000000 00013835H .textbss                DATA
 0002:00000000 0002760bH .text                   CODE
 0002:00027610 00003740H .text$x                 CODE
 0002:0002ad50 0000105bH .text$yc                CODE
 0002:0002bdb0 0000104bH .text$yd                CODE
 0003:00000000 00000104H .CRT$XCA                DATA
 0003:00000104 00000104H .CRT$XCU                DATA
 0003:00000208 00000104H .CRT$XCZ                DATA
 0003:0000030c 00000104H .CRT$XIA                DATA
 0003:00000410 00000104H .CRT$XIAA               DATA
 0003:00000514 00000104H .CRT$XIC                DATA
 0003:00000618 00000104H .CRT$XIZ                DATA
 0003:00000720 000034fdH .rdata                  DATA
 0003:00003c20 0000015aH .rdata$debug            DATA
 0003:00003d7c 000008c9H .rdata$r                DATA
 0003:00004648 00000104H .rtc$IAA                DATA
 0003:0000474c 0000010eH .rtc$IMZ                DATA
 0003:0000485c 00000104H .rtc$IZZ                DATA
 0003:00004960 00000104H .rtc$TAA                DATA
 0003:00004a64 0000010eH .rtc$TMZ                DATA
 0003:00004b74 00000104H .rtc$TZZ                DATA
 0003:00004c78 00002b16H .xdata$x                DATA
 0003:00007790 000033a9H .edata                  DATA
 0004:00000000 00001043H .data                   DATA
 0004:00001048 00000590H .bss                    DATA
 0005:00000000 000000a0H .idata$2                DATA
 0005:000000a0 00000014H .idata$3                DATA
 0005:000000b4 000004a4H .idata$4                DATA
 0005:00000558 000004a4H .idata$5                DATA
 0005:000009fc 00001430H .idata$6                DATA

  Address         Publics by Value              Rva+Base       Lib:Object

 0000:00000000       ___safe_se_handler_table   00000000     <absolute>
 0000:00000000       __except_list              00000000     <absolute>
 0000:00000000       ___safe_se_handler_count   00000000     <absolute>
 0000:00009876       __fltused                  00009876     <absolute>
 0000:00009876       __ldused                   00009876     <absolute>
 0000:00000000       ___ImageBase               60800000     <linker-defined>
 0001:00000000       __enc$textbss$begin        60801000     <linker-defined>
 0001:00013835       __enc$textbss$end          60814835     <linker-defined>
 0002:00002350       ??0NMS_TextureManager@@QAE@ABV0@@Z 60817350 f i MD2Model.obj
 0002:000023d0       ??4NMS_TextureManager@@QAEAAV0@ABV0@@Z 608173d0 f i MD2Model.obj
 0002:00002470       ??0?$map@PADUtextStruct@@U?$less@PAD@std@@V?$allocator@U?$pair@QADUtextStruct@@@std@@@3@@std@@QAE@ABV01@@Z 60817470 f i MD2Model.obj
 0002:000024d0       ??4?$map@PADUtextStruct@@U?$less@PAD@std@@V?$allocator@U?$pair@QADUtextStruct@@@std@@@3@@std@@QAEAAV01@ABV01@@Z 608174d0 f i MD2Model.obj
 0002:00002530       ??4NMS_AssetManager@@QAEAAV0@ABV0@@Z 60817530 f i MD2Model.obj
 0002:00002580       ??4MD2Model@@QAEAAV0@ABV0@@Z 60817580 f i MD2Model.obj
 0002:000025d0       ??0MD2Model@@QAE@XZ        608175d0 f   MD2Model.obj
 0002:00002660       ??1MD2Model@@QAE@XZ        60817660 f   MD2Model.obj
 0002:00002760       ?LoadModel@MD2Model@@QAEHPBD@Z 60817760 f   MD2Model.obj
 0002:00002870       ?Malloc@MD2Model@@AAEPAXI@Z 60817870 f   MD2Model.obj
 0002:00002900       ?Free@MD2Model@@AAEXPAPAX@Z 60817900 f   MD2Model.obj
 0002:00002980       ?ReadFile@MD2Model@@AAEHPBD@Z 60817980 f   MD2Model.obj
 0002:00002b00       ?ReadHeader@MD2Model@@AAEHPAEPAUHeader@@@Z 60817b00 f   MD2Model.obj
 0002:00002bb0       ?InitData@MD2Model@@AAEXXZ 60817bb0 f   MD2Model.obj
 0002:00002d80       ?LoadData@MD2Model@@AAEXXZ 60817d80 f   MD2Model.obj
 0002:00002de0       ?LoadFrames@MD2Model@@AAEXXZ 60817de0 f   MD2Model.obj
 0002:00002f90       ?LoadGLCommands@MD2Model@@AAEXXZ 60817f90 f   MD2Model.obj
 0002:00003020       ?DrawFrame@MD2Model@@QAEXHH@Z 60818020 f   MD2Model.obj
 0002:00003400       ?DrawModel@MD2Model@@QAEXM@Z 60818400 f   MD2Model.obj
 0002:00003510       ?RenderFrame@MD2Model@@AAEXXZ 60818510 f   MD2Model.obj
 0002:00003750       ?Interpolate@MD2Model@@AAEXPAY02M@Z 60818750 f   MD2Model.obj
 0002:000038d0       ?LoadSkin@MD2Model@@QAEHPAD@Z 608188d0 f   MD2Model.obj
 0002:00003940       ?SetAnim@MD2Model@@QAEXH@Z 60818940 f   MD2Model.obj
 0002:00003a00       ?Animate@MD2Model@@AAEXM@Z 60818a00 f   MD2Model.obj
 0002:00003b80       ??0?$_Tree@V?$_Tmap_traits@PADUtextStruct@@U?$less@PAD@std@@V?$allocator@U?$pair@QADUtextStruct@@@std@@@3@$0A@@std@@@std@@QAE@ABV01@@Z 60818b80 f i MD2Model.obj
 0002:00003ca0       ??4?$_Tree@V?$_Tmap_traits@PADUtextStruct@@U?$less@PAD@std@@V?$allocator@U?$pair@QADUtextStruct@@@std@@@3@$0A@@std@@@std@@QAEAAV01@ABV01@@Z 60818ca0 f i MD2Model.obj
 0002:00003e50       ??1?$_Tree_val@V?$_Tmap_traits@PADUtextStruct@@U?$less@PAD@std@@V?$allocator@U?$pair@QADUtextStruct@@@std@@@3@$0A@@std@@@std@@QAE@XZ 60818e50 f i MD2Model.obj
 0002:00003ea0       ??1iterator@?$_Tree@V?$_Tmap_traits@PADUtextStruct@@U?$less@PAD@std@@V?$allocator@U?$pair@QADUtextStruct@@@std@@@3@$0A@@std@@@std@@QAE@XZ 60818ea0 f i MD2Model.obj
 0002:00003ef0       ??0const_iterator@?$_Tree@V?$_Tmap_traits@PADUtextStruct@@U?$less@PAD@std@@V?$allocator@U?$pair@QADUtextStruct@@@std@@@3@$0A@@std@@@std@@QAE@ABV012@@Z 60818ef0 f i MD2Model.obj
 0002:00003f60       ??1const_iterator@?$_Tree@V?$_Tmap_traits@PADUtextStruct@@U?$less@PAD@std@@V?$allocator@U?$pair@QADUtextStruct@@@std@@@3@$0A@@std@@@std@@QAE@XZ 60818f60 f i MD2Model.obj
 0002:00003fb0       ??1?$_Tree_ptr@V?$_Tmap_traits@PADUtextStruct@@U?$less@PAD@std@@V?$allocator@U?$pair@QADUtextStruct@@@std@@@3@$0A@@std@@@std@@QAE@XZ 60818fb0 f i MD2Model.obj
 0002:00004000       ??0?$_Bidit@U?$pair@QADUtextStruct@@@std@@HPBU12@ABU12@@std@@QAE@ABU01@@Z 60819000 f i MD2Model.obj
 0002:00004060       ??1?$_Bidit@U?$pair@QADUtextStruct@@@std@@HPBU12@ABU12@@std@@QAE@XZ 60819060 f i MD2Model.obj
 0002:000040b0       ??1?$_Tree_nod@V?$_Tmap_traits@PADUtextStruct@@U?$less@PAD@std@@V?$allocator@U?$pair@QADUtextStruct@@@std@@@3@$0A@@std@@@std@@QAE@XZ 608190b0 f i MD2Model.obj
 0002:00004100       ??0?$_Iterator_with_base@Ubidirectional_iterator_tag@std@@U?$pair@QADUtextStruct@@@2@HPBU32@ABU32@V_Iterator_base@2@@std@@QAE@ABU01@@Z 60819100 f i MD2Model.obj
 0002:00004160       ??0_Iterator_base@std@@QAE@ABV01@@Z 60819160 f i MD2Model.obj
 0002:000041e0       ??4_Iterator_base@std@@QAEAAV01@ABV01@@Z 608191e0 f i MD2Model.obj
 0002:00004310       ?_Adopt@_Iterator_base@std@@QAEXPBV_Container_base_secure@2@@Z 60819310 f i MD2Model.obj
 0002:00004450       ?_Orphan_me@_Iterator_base@std@@QAEXXZ 60819450 f i MD2Model.obj
 0002:00004530       ??1?$_Iterator_with_base@Ubidirectional_iterator_tag@std@@U?$pair@QADUtextStruct@@@2@HPBU32@ABU32@V_Iterator_base@2@@std@@QAE@XZ 60819530 f i MD2Model.obj
 0002:00004580       ??1_Iterator_base@std@@QAE@XZ 60819580 f i MD2Model.obj
 0002:00004680       ??1?$_Tmap_traits@PADUtextStruct@@U?$less@PAD@std@@V?$allocator@U?$pair@QADUtextStruct@@@std@@@3@$0A@@std@@QAE@XZ 60819680 f i MD2Model.obj
 0002:000046d0       ?begin@?$_Tree@V?$_Tmap_traits@PADUtextStruct@@U?$less@PAD@std@@V?$allocator@U?$pair@QADUtextStruct@@@std@@@3@$0A@@std@@@std@@QAE?AViterator@12@XZ 608196d0 f i MD2Model.obj
 0002:00004760       ?end@?$_Tree@V?$_Tmap_traits@PADUtextStruct@@U?$less@PAD@std@@V?$allocator@U?$pair@QADUtextStruct@@@std@@@3@$0A@@std@@@std@@QAE?AViterator@12@XZ 60819760 f i MD2Model.obj
 0002:000047f0       ?get_allocator@?$_Tree@V?$_Tmap_traits@PADUtextStruct@@U?$less@PAD@std@@V?$allocator@U?$pair@QADUtextStruct@@@std@@@3@$0A@@std@@@std@@QBE?AV?$allocator@U?$pair@QADUtextStruct@@@std@@@2@XZ 608197f0 f i MD2Model.obj
 0002:00004850       ?key_comp@?$_Tree@V?$_Tmap_traits@PADUtextStruct@@U?$less@PAD@std@@V?$allocator@U?$pair@QADUtextStruct@@@std@@@3@$0A@@std@@@std@@QBE?AU?$less@PAD@2@XZ 60819850 f i MD2Model.obj
 0002:00004890       ?erase@?$_Tree@V?$_Tmap_traits@PADUtextStruct@@U?$less@PAD@std@@V?$allocator@U?$pair@QADUtextStruct@@@std@@@3@$0A@@std@@@std@@QAE?AViterator@12@Vconst_iterator@12@0@Z 60819890 f i MD2Model.obj
 0002:00004bc0       ?_Copy@?$_Tree@V?$_Tmap_traits@PADUtextStruct@@U?$less@PAD@std@@V?$allocator@U?$pair@QADUtextStruct@@@std@@@3@$0A@@std@@@std@@IAEXABV12@@Z 60819bc0 f i MD2Model.obj
 0002:00004ce0       ?_Init@?$_Tree@V?$_Tmap_traits@PADUtextStruct@@U?$less@PAD@std@@V?$allocator@U?$pair@QADUtextStruct@@@std@@@3@$0A@@std@@@std@@IAEXXZ 60819ce0 f i MD2Model.obj
 0002:00004da0       ?_Tidy@?$_Tree@V?$_Tmap_traits@PADUtextStruct@@U?$less@PAD@std@@V?$allocator@U?$pair@QADUtextStruct@@@std@@@3@$0A@@std@@@std@@IAEXXZ 60819da0 f i MD2Model.obj
 0002:00004fd0       ??0?$_Tree_val@V?$_Tmap_traits@PADUtextStruct@@U?$less@PAD@std@@V?$allocator@U?$pair@QADUtextStruct@@@std@@@3@$0A@@std@@@std@@IAE@ABU?$less@PAD@1@V?$allocator@U?$pair@QADUtextStruct@@@std@@@1@@Z 60819fd0 f i MD2Model.obj
 0002:00005060       ??1?$_Container_base_aux_alloc_empty@V?$allocator@U?$pair@QADUtextStruct@@@std@@@std@@@std@@IAE@XZ 6081a060 f i MD2Model.obj
 0002:000050c0       ?_Isnil@?$_Tree@V?$_Tmap_traits@PADUtextStruct@@U?$less@PAD@std@@V?$allocator@U?$pair@QADUtextStruct@@@std@@@3@$0A@@std@@@std@@KAAADPAU_Node@?$_Tree_nod@V?$_Tmap_traits@PADUtextStruct@@U?$less@PAD@std@@V?$allocator@U?$pair@QADUtextStruct@@@std@@@3@$0A@@std@@@2@@Z 6081a0c0 f i MD2Model.obj
 0002:00005100       ?_Left@?$_Tree@V?$_Tmap_traits@PADUtextStruct@@U?$less@PAD@std@@V?$allocator@U?$pair@QADUtextStruct@@@std@@@3@$0A@@std@@@std@@KAAAPAU_Node@?$_Tree_nod@V?$_Tmap_traits@PADUtextStruct@@U?$less@PAD@std@@V?$allocator@U?$pair@QADUtextStruct@@@std@@@3@$0A@@std@@@2@PAU342@@Z 6081a100 f i MD2Model.obj
 0002:00005140       ?_Parent@?$_Tree@V?$_Tmap_traits@PADUtextStruct@@U?$less@PAD@std@@V?$allocator@U?$pair@QADUtextStruct@@@std@@@3@$0A@@std@@@std@@KAAAPAU_Node@?$_Tree_nod@V?$_Tmap_traits@PADUtextStruct@@U?$less@PAD@std@@V?$allocator@U?$pair@QADUtextStruct@@@std@@@3@$0A@@std@@@2@PAU342@@Z 6081a140 f i MD2Model.obj
 0002:00005180       ?_Right@?$_Tree@V?$_Tmap_traits@PADUtextStruct@@U?$less@PAD@std@@V?$allocator@U?$pair@QADUtextStruct@@@std@@@3@$0A@@std@@@std@@KAAAPAU_Node@?$_Tree_nod@V?$_Tmap_traits@PADUtextStruct@@U?$less@PAD@std@@V?$allocator@U?$pair@QADUtextStruct@@@std@@@3@$0A@@std@@@2@PAU342@@Z 6081a180 f i MD2Model.obj
 0002:000051c0       ?_Make_iter@?$_Tree@V?$_Tmap_traits@PADUtextStruct@@U?$less@PAD@std@@V?$allocator@U?$pair@QADUtextStruct@@@std@@@3@$0A@@std@@@std@@QBE?AViterator@12@Vconst_iterator@12@@Z 6081a1c0 f i MD2Model.obj
 0002:000052d0       ?size@?$_Tree@V?$_Tmap_traits@PADUtextStruct@@U?$less@PAD@std@@V?$allocator@U?$pair@QADUtextStruct@@@std@@@3@$0A@@std@@@std@@QBEIXZ 6081a2d0 f i MD2Model.obj
 0002:00005310       ?erase@?$_Tree@V?$_Tmap_traits@PADUtextStruct@@U?$less@PAD@std@@V?$allocator@U?$pair@QADUtextStruct@@@std@@@3@$0A@@std@@@std@@QAE?AViterator@12@Vconst_iterator@12@@Z 6081a310 f i MD2Model.obj
 0002:00005d70       ?clear@?$_Tree@V?$_Tmap_traits@PADUtextStruct@@U?$less@PAD@std@@V?$allocator@U?$pair@QADUtextStruct@@@std@@@3@$0A@@std@@@std@@QAEXXZ 6081ad70 f i MD2Model.obj
 0002:00005e30       ?_Copy@?$_Tree@V?$_Tmap_traits@PADUtextStruct@@U?$less@PAD@std@@V?$allocator@U?$pair@QADUtextStruct@@@std@@@3@$0A@@std@@@std@@IAEPAU_Node@?$_Tree_nod@V?$_Tmap_traits@PADUtextStruct@@U?$less@PAD@std@@V?$allocator@U?$pair@QADUtextStruct@@@std@@@3@$0A@@std@@@2@PAU342@0@Z 6081ae30 f i MD2Model.obj
 0002:00006050       ?_Lmost@?$_Tree@V?$_Tmap_traits@PADUtextStruct@@U?$less@PAD@std@@V?$allocator@U?$pair@QADUtextStruct@@@std@@@3@$0A@@std@@@std@@IBEAAPAU_Node@?$_Tree_nod@V?$_Tmap_traits@PADUtextStruct@@U?$less@PAD@std@@V?$allocator@U?$pair@QADUtextStruct@@@std@@@3@$0A@@std@@@2@XZ 6081b050 f i MD2Model.obj
 0002:000060b0       ?_Max@?$_Tree@V?$_Tmap_traits@PADUtextStruct@@U?$less@PAD@std@@V?$allocator@U?$pair@QADUtextStruct@@@std@@@3@$0A@@std@@@std@@KAPAU_Node@?$_Tree_nod@V?$_Tmap_traits@PADUtextStruct@@U?$less@PAD@std@@V?$allocator@U?$pair@QADUtextStruct@@@std@@@3@$0A@@std@@@2@PAU342@@Z 6081b0b0 f i MD2Model.obj
 0002:00006130       ?_Min@?$_Tree@V?$_Tmap_traits@PADUtextStruct@@U?$less@PAD@std@@V?$allocator@U?$pair@QADUtextStruct@@@std@@@3@$0A@@std@@@std@@KAPAU_Node@?$_Tree_nod@V?$_Tmap_traits@PADUtextStruct@@U?$less@PAD@std@@V?$allocator@U?$pair@QADUtextStruct@@@std@@@3@$0A@@std@@@2@PAU342@@Z 6081b130 f i MD2Model.obj
 0002:000061b0       ?_Rmost@?$_Tree@V?$_Tmap_traits@PADUtextStruct@@U?$less@PAD@std@@V?$allocator@U?$pair@QADUtextStruct@@@std@@@3@$0A@@std@@@std@@IBEAAPAU_Node@?$_Tree_nod@V?$_Tmap_traits@PADUtextStruct@@U?$less@PAD@std@@V?$allocator@U?$pair@QADUtextStruct@@@std@@@3@$0A@@std@@@2@XZ 6081b1b0 f i MD2Model.obj
 0002:00006210       ?_Root@?$_Tree@V?$_Tmap_traits@PADUtextStruct@@U?$less@PAD@std@@V?$allocator@U?$pair@QADUtextStruct@@@std@@@3@$0A@@std@@@std@@IBEAAPAU_Node@?$_Tree_nod@V?$_Tmap_traits@PADUtextStruct@@U?$less@PAD@std@@V?$allocator@U?$pair@QADUtextStruct@@@std@@@3@$0A@@std@@@2@XZ 6081b210 f i MD2Model.obj
 0002:00006270       ?_Buynode@?$_Tree@V?$_Tmap_traits@PADUtextStruct@@U?$less@PAD@std@@V?$allocator@U?$pair@QADUtextStruct@@@std@@@3@$0A@@std@@@std@@IAEPAU_Node@?$_Tree_nod@V?$_Tmap_traits@PADUtextStruct@@U?$less@PAD@std@@V?$allocator@U?$pair@QADUtextStruct@@@std@@@3@$0A@@std@@@2@XZ 6081b270 f i MD2Model.obj
 0002:000064b0       ??0?$_Tree_ptr@V?$_Tmap_traits@PADUtextStruct@@U?$less@PAD@std@@V?$allocator@U?$pair@QADUtextStruct@@@std@@@3@$0A@@std@@@std@@QAE@ABU?$less@PAD@1@V?$allocator@U?$pair@QADUtextStruct@@@std@@@1@@Z 6081b4b0 f i MD2Model.obj
 0002:00006540       ??0?$allocator@U?$pair@QADUtextStruct@@@std@@@std@@QAE@ABV01@@Z 6081b540 f i MD2Model.obj
 0002:00006580       ?deallocate@?$allocator@U_Node@?$_Tree_nod@V?$_Tmap_traits@PADUtextStruct@@U?$less@PAD@std@@V?$allocator@U?$pair@QADUtextStruct@@@std@@@3@$0A@@std@@@std@@@std@@QAEXPAU_Node@?$_Tree_nod@V?$_Tmap_traits@PADUtextStruct@@U?$less@PAD@std@@V?$allocator@U?$pair@QADUtextStruct@@@std@@@3@$0A@@std@@@2@I@Z 6081b580 f i MD2Model.obj
 0002:000065e0       ?destroy@?$allocator@PAU_Node@?$_Tree_nod@V?$_Tmap_traits@PADUtextStruct@@U?$less@PAD@std@@V?$allocator@U?$pair@QADUtextStruct@@@std@@@3@$0A@@std@@@std@@@std@@QAEXPAPAU_Node@?$_Tree_nod@V?$_Tmap_traits@PADUtextStruct@@U?$less@PAD@std@@V?$allocator@U?$pair@QADUtextStruct@@@std@@@3@$0A@@std@@@2@@Z 6081b5e0 f i MD2Model.obj
 0002:00006640       ??0iterator@?$_Tree@V?$_Tmap_traits@PADUtextStruct@@U?$less@PAD@std@@V?$allocator@U?$pair@QADUtextStruct@@@std@@@3@$0A@@std@@@std@@QAE@PAU_Node@?$_Tree_nod@V?$_Tmap_traits@PADUtextStruct@@U?$less@PAD@std@@V?$allocator@U?$pair@QADUtextStruct@@@std@@@3@$0A@@std@@@2@PBV12@@Z 6081b640 f i MD2Model.obj
 0002:000066a0       ??Econst_iterator@?$_Tree@V?$_Tmap_traits@PADUtextStruct@@U?$less@PAD@std@@V?$allocator@U?$pair@QADUtextStruct@@@std@@@3@$0A@@std@@@std@@QAE?AV012@H@Z 6081b6a0 f i MD2Model.obj
 0002:000067c0       ??8const_iterator@?$_Tree@V?$_Tmap_traits@PADUtextStruct@@U?$less@PAD@std@@V?$allocator@U?$pair@QADUtextStruct@@@std@@@3@$0A@@std@@@std@@QBE_NABV012@@Z 6081b7c0 f i MD2Model.obj
 0002:000068d0       ??9const_iterator@?$_Tree@V?$_Tmap_traits@PADUtextStruct@@U?$less@PAD@std@@V?$allocator@U?$pair@QADUtextStruct@@@std@@@3@$0A@@std@@@std@@QBE_NABV012@@Z 6081b8d0 f i MD2Model.obj
 0002:00006940       ??0iterator@?$_Tree@V?$_Tmap_traits@PADUtextStruct@@U?$less@PAD@std@@V?$allocator@U?$pair@QADUtextStruct@@@std@@@3@$0A@@std@@@std@@QAE@ABV012@@Z 6081b940 f i MD2Model.obj
 0002:000069a0       ?_Color@?$_Tree@V?$_Tmap_traits@PADUtextStruct@@U?$less@PAD@std@@V?$allocator@U?$pair@QADUtextStruct@@@std@@@3@$0A@@std@@@std@@KAAADPAU_Node@?$_Tree_nod@V?$_Tmap_traits@PADUtextStruct@@U?$less@PAD@std@@V?$allocator@U?$pair@QADUtextStruct@@@std@@@3@$0A@@std@@@2@@Z 6081b9a0 f i MD2Model.obj
 0002:000069e0       ?_Myval@?$_Tree@V?$_Tmap_traits@PADUtextStruct@@U?$less@PAD@std@@V?$allocator@U?$pair@QADUtextStruct@@@std@@@3@$0A@@std@@@std@@KAAAU?$pair@QADUtextStruct@@@2@PAU_Node@?$_Tree_nod@V?$_Tmap_traits@PADUtextStruct@@U?$less@PAD@std@@V?$allocator@U?$pair@QADUtextStruct@@@std@@@3@$0A@@std@@@2@@Z 6081b9e0 f i MD2Model.obj
 0002:00006a20       ?_Erase@?$_Tree@V?$_Tmap_traits@PADUtextStruct@@U?$less@PAD@std@@V?$allocator@U?$pair@QADUtextStruct@@@std@@@3@$0A@@std@@@std@@IAEXPAU_Node@?$_Tree_nod@V?$_Tmap_traits@PADUtextStruct@@U?$less@PAD@std@@V?$allocator@U?$pair@QADUtextStruct@@@std@@@3@$0A@@std@@@2@@Z 6081ba20 f i MD2Model.obj
 0002:00006af0       ?_Lrotate@?$_Tree@V?$_Tmap_traits@PADUtextStruct@@U?$less@PAD@std@@V?$allocator@U?$pair@QADUtextStruct@@@std@@@3@$0A@@std@@@std@@IAEXPAU_Node@?$_Tree_nod@V?$_Tmap_traits@PADUtextStruct@@U?$less@PAD@std@@V?$allocator@U?$pair@QADUtextStruct@@@std@@@3@$0A@@std@@@2@@Z 6081baf0 f i MD2Model.obj
 0002:00006ca0       ?_Rrotate@?$_Tree@V?$_Tmap_traits@PADUtextStruct@@U?$less@PAD@std@@V?$allocator@U?$pair@QADUtextStruct@@@std@@@3@$0A@@std@@@std@@IAEXPAU_Node@?$_Tree_nod@V?$_Tmap_traits@PADUtextStruct@@U?$less@PAD@std@@V?$allocator@U?$pair@QADUtextStruct@@@std@@@3@$0A@@std@@@2@@Z 6081bca0 f i MD2Model.obj
 0002:00006e50       ?_Orphan_ptr@?$_Tree@V?$_Tmap_traits@PADUtextStruct@@U?$less@PAD@std@@V?$allocator@U?$pair@QADUtextStruct@@@std@@@3@$0A@@std@@@std@@IBEXAAV12@PAU_Node@?$_Tree_nod@V?$_Tmap_traits@PADUtextStruct@@U?$less@PAD@std@@V?$allocator@U?$pair@QADUtextStruct@@@std@@@3@$0A@@std@@@2@@Z 6081be50 f i MD2Model.obj
 0002:00006f70       ?_Buynode@?$_Tree@V?$_Tmap_traits@PADUtextStruct@@U?$less@PAD@std@@V?$allocator@U?$pair@QADUtextStruct@@@std@@@3@$0A@@std@@@std@@IAEPAU_Node@?$_Tree_nod@V?$_Tmap_traits@PADUtextStruct@@U?$less@PAD@std@@V?$allocator@U?$pair@QADUtextStruct@@@std@@@3@$0A@@std@@@2@PAU342@00ABU?$pair@QADUtextStruct@@@2@D@Z 6081bf70 f i MD2Model.obj
 0002:000070e0       ??2@YAPAXIPAX@Z            6081c0e0 f i MD2Model.obj
 0002:00007120       ??3@YAXPAX0@Z              6081c120 f i MD2Model.obj
 0002:00007150       ??0?$_Tree_nod@V?$_Tmap_traits@PADUtextStruct@@U?$less@PAD@std@@V?$allocator@U?$pair@QADUtextStruct@@@std@@@3@$0A@@std@@@std@@IAE@ABU?$less@PAD@1@V?$allocator@U?$pair@QADUtextStruct@@@std@@@1@@Z 6081c150 f i MD2Model.obj
 0002:000071e0       ?allocate@?$allocator@U_Node@?$_Tree_nod@V?$_Tmap_traits@PADUtextStruct@@U?$less@PAD@std@@V?$allocator@U?$pair@QADUtextStruct@@@std@@@3@$0A@@std@@@std@@@std@@QAEPAU_Node@?$_Tree_nod@V?$_Tmap_traits@PADUtextStruct@@U?$less@PAD@std@@V?$allocator@U?$pair@QADUtextStruct@@@std@@@3@$0A@@std@@@2@I@Z 6081c1e0 f i MD2Model.obj
 0002:00007240       ?destroy@?$allocator@U_Node@?$_Tree_nod@V?$_Tmap_traits@PADUtextStruct@@U?$less@PAD@std@@V?$allocator@U?$pair@QADUtextStruct@@@std@@@3@$0A@@std@@@std@@@std@@QAEXPAU_Node@?$_Tree_nod@V?$_Tmap_traits@PADUtextStruct@@U?$less@PAD@std@@V?$allocator@U?$pair@QADUtextStruct@@@std@@@3@$0A@@std@@@2@@Z 6081c240 f i MD2Model.obj
 0002:000072a0       ?construct@?$allocator@PAU_Node@?$_Tree_nod@V?$_Tmap_traits@PADUtextStruct@@U?$less@PAD@std@@V?$allocator@U?$pair@QADUtextStruct@@@std@@@3@$0A@@std@@@std@@@std@@QAEXPAPAU_Node@?$_Tree_nod@V?$_Tmap_traits@PADUtextStruct@@U?$less@PAD@std@@V?$allocator@U?$pair@QADUtextStruct@@@std@@@3@$0A@@std@@@2@ABQAU342@@Z 6081c2a0 f i MD2Model.obj
 0002:00007300       ??0const_iterator@?$_Tree@V?$_Tmap_traits@PADUtextStruct@@U?$less@PAD@std@@V?$allocator@U?$pair@QADUtextStruct@@@std@@@3@$0A@@std@@@std@@QAE@PAU_Node@?$_Tree_nod@V?$_Tmap_traits@PADUtextStruct@@U?$less@PAD@std@@V?$allocator@U?$pair@QADUtextStruct@@@std@@@3@$0A@@std@@@2@PBV12@@Z 6081c300 f i MD2Model.obj
 0002:000073c0       ??Econst_iterator@?$_Tree@V?$_Tmap_traits@PADUtextStruct@@U?$less@PAD@std@@V?$allocator@U?$pair@QADUtextStruct@@@std@@@3@$0A@@std@@@std@@QAEAAV012@XZ 6081c3c0 f i MD2Model.obj
 0002:00007420       ?_Mynode@const_iterator@?$_Tree@V?$_Tmap_traits@PADUtextStruct@@U?$less@PAD@std@@V?$allocator@U?$pair@QADUtextStruct@@@std@@@3@$0A@@std@@@std@@QBEPAU_Node@?$_Tree_nod@V?$_Tmap_traits@PADUtextStruct@@U?$less@PAD@std@@V?$allocator@U?$pair@QADUtextStruct@@@std@@@3@$0A@@std@@@3@XZ 6081c420 f i MD2Model.obj
 0002:00007460       ??0?$_Bidit@U?$pair@QADUtextStruct@@@std@@HPBU12@ABU12@@std@@QAE@XZ 6081c460 f i MD2Model.obj
 0002:000074c0       ??0?$_Iterator_with_base@Ubidirectional_iterator_tag@std@@U?$pair@QADUtextStruct@@@2@HPBU32@ABU32@V_Iterator_base@2@@std@@QAE@XZ 6081c4c0 f i MD2Model.obj
 0002:00007520       ??0_Iterator_base@std@@QAE@XZ 6081c520 f i MD2Model.obj
 0002:00007570       ??0?$_Tmap_traits@PADUtextStruct@@U?$less@PAD@std@@V?$allocator@U?$pair@QADUtextStruct@@@std@@@3@$0A@@std@@QAE@U?$less@PAD@1@V?$allocator@U?$pair@QADUtextStruct@@@std@@@1@@Z 6081c570 f i MD2Model.obj
 0002:000075e0       ?_Inc@const_iterator@?$_Tree@V?$_Tmap_traits@PADUtextStruct@@U?$less@PAD@std@@V?$allocator@U?$pair@QADUtextStruct@@@std@@@3@$0A@@std@@@std@@QAEXXZ 6081c5e0 f i MD2Model.obj
 0002:000077b0       ??0_Node@?$_Tree_nod@V?$_Tmap_traits@PADUtextStruct@@U?$less@PAD@std@@V?$allocator@U?$pair@QADUtextStruct@@@std@@@3@$0A@@std@@@std@@QAE@PAU012@00ABU?$pair@QADUtextStruct@@@2@D@Z 6081c7b0 f i MD2Model.obj
 0002:00007840       ??0?$_Container_base_aux_alloc_empty@V?$allocator@U?$pair@QADUtextStruct@@@std@@@std@@@std@@IAE@V?$allocator@U?$pair@QADUtextStruct@@@std@@@1@@Z 6081c840 f i MD2Model.obj
 0002:000078b0       ??$swap@D@std@@YAXAAD0@Z   6081c8b0 f i MD2Model.obj
 0002:00007910       ??$?0U?$pair@QADUtextStruct@@@std@@@?$allocator@PAU_Node@?$_Tree_nod@V?$_Tmap_traits@PADUtextStruct@@U?$less@PAD@std@@V?$allocator@U?$pair@QADUtextStruct@@@std@@@3@$0A@@std@@@std@@@std@@QAE@ABV?$allocator@U?$pair@QADUtextStruct@@@std@@@1@@Z 6081c910 f i MD2Model.obj
 0002:00007950       ??$_Destroy@PAU_Node@?$_Tree_nod@V?$_Tmap_traits@PADUtextStruct@@U?$less@PAD@std@@V?$allocator@U?$pair@QADUtextStruct@@@std@@@3@$0A@@std@@@std@@@std@@YAXPAPAU_Node@?$_Tree_nod@V?$_Tmap_traits@PADUtextStruct@@U?$less@PAD@std@@V?$allocator@U?$pair@QADUtextStruct@@@std@@@3@$0A@@std@@@0@@Z 6081c950 f i MD2Model.obj
 0002:00007980       ??$?0U?$pair@QADUtextStruct@@@std@@@?$allocator@U_Node@?$_Tree_nod@V?$_Tmap_traits@PADUtextStruct@@U?$less@PAD@std@@V?$allocator@U?$pair@QADUtextStruct@@@std@@@3@$0A@@std@@@std@@@std@@QAE@ABV?$allocator@U?$pair@QADUtextStruct@@@std@@@1@@Z 6081c980 f i MD2Model.obj
 0002:000079c0       ??$_Allocate@U_Node@?$_Tree_nod@V?$_Tmap_traits@PADUtextStruct@@U?$less@PAD@std@@V?$allocator@U?$pair@QADUtextStruct@@@std@@@3@$0A@@std@@@std@@@std@@YAPAU_Node@?$_Tree_nod@V?$_Tmap_traits@PADUtextStruct@@U?$less@PAD@std@@V?$allocator@U?$pair@QADUtextStruct@@@std@@@3@$0A@@std@@@0@IPAU120@@Z 6081c9c0 f i MD2Model.obj
 0002:00007a60       ??0bad_alloc@std@@QAE@PBD@Z 6081ca60 f i MD2Model.obj
 0002:00007ae0       ??1bad_alloc@std@@UAE@XZ   6081cae0 f i MD2Model.obj
 0002:00007b50       ??_Ebad_alloc@std@@UAEPAXI@Z 6081cb50 f i MD2Model.obj
 0002:00007b50       ??_Gbad_alloc@std@@UAEPAXI@Z 6081cb50 f i MD2Model.obj
 0002:00007bc0       ??0bad_alloc@std@@QAE@ABV01@@Z 6081cbc0 f i MD2Model.obj
 0002:00007c40       ??$_Destroy@U_Node@?$_Tree_nod@V?$_Tmap_traits@PADUtextStruct@@U?$less@PAD@std@@V?$allocator@U?$pair@QADUtextStruct@@@std@@@3@$0A@@std@@@std@@@std@@YAXPAU_Node@?$_Tree_nod@V?$_Tmap_traits@PADUtextStruct@@U?$less@PAD@std@@V?$allocator@U?$pair@QADUtextStruct@@@std@@@3@$0A@@std@@@0@@Z 6081cc40 f i MD2Model.obj
 0002:00007c70       ??$_Construct@PAU_Node@?$_Tree_nod@V?$_Tmap_traits@PADUtextStruct@@U?$less@PAD@std@@V?$allocator@U?$pair@QADUtextStruct@@@std@@@3@$0A@@std@@@std@@PAU123@@std@@YAXPAPAU_Node@?$_Tree_nod@V?$_Tmap_traits@PADUtextStruct@@U?$less@PAD@std@@V?$allocator@U?$pair@QADUtextStruct@@@std@@@3@$0A@@std@@@0@ABQAU120@@Z 6081cc70 f i MD2Model.obj
 0002:00007d10       ??1Point@@QAE@XZ           6081cd10 f i NMS_3DObject.obj
 0002:00007d50       ??4Point@@QAEAAV0@ABV0@@Z  6081cd50 f i NMS_3DObject.obj
 0002:00007db0       ??1Vector@@QAE@XZ          6081cdb0 f i NMS_3DObject.obj
 0002:00007e00       ??4Vector@@QAEAAV0@ABV0@@Z 6081ce00 f i NMS_3DObject.obj
 0002:00007e60       ??4nmsTrig@@QAEAAV0@ABV0@@Z 6081ce60 f i NMS_3DObject.obj
 0002:00007ea0       ??4NMS_3DObject@@QAEAAV0@ABV0@@Z 6081cea0 f i NMS_3DObject.obj
 0002:00007ef0       ??0NMS_3DObject@@QAE@XZ    6081cef0 f   NMS_3DObject.obj
 0002:00008040       ??1NMS_3DObject@@QAE@XZ    6081d040 f   NMS_3DObject.obj
 0002:000080f0       ??0NMS_3DObject@@QAE@PBVVector@@0@Z 6081d0f0 f   NMS_3DObject.obj
 0002:000081f0       ?getPosVector@NMS_3DObject@@QAE?AVVector@@XZ 6081d1f0 f   NMS_3DObject.obj
 0002:00008270       ?setPosVector@NMS_3DObject@@QAEXPBVVector@@@Z 6081d270 f   NMS_3DObject.obj
 0002:000082d0       ?getDirVector@NMS_3DObject@@QAE?AVVector@@XZ 6081d2d0 f   NMS_3DObject.obj
 0002:00008350       ?setDirVector@NMS_3DObject@@QAEXPBVVector@@@Z 6081d350 f   NMS_3DObject.obj
 0002:000083b0       ??6@YAAAV?$basic_ostream@DU?$char_traits@D@std@@@std@@AAV01@ABVNMS_3DObject@@@Z 6081d3b0 f   NMS_3DObject.obj
 0002:00008470       ??8@YA_NABVNMS_3DObject@@0@Z 6081d470 f   NMS_3DObject.obj
 0002:00008500       ??$?6U?$char_traits@D@std@@@std@@YAAAV?$basic_ostream@DU?$char_traits@D@std@@@0@AAV10@PBD@Z 6081d500 f i NMS_3DObject.obj
 0002:00008a80       ??0sentry@?$basic_ostream@DU?$char_traits@D@std@@@std@@QAE@AAV12@@Z 6081da80 f i NMS_3DObject.obj
 0002:00008be0       ??1sentry@?$basic_ostream@DU?$char_traits@D@std@@@std@@QAE@XZ 6081dbe0 f i NMS_3DObject.obj
 0002:00008cb0       ??Bsentry@?$basic_ostream@DU?$char_traits@D@std@@@std@@QBE_NXZ 6081dcb0 f i NMS_3DObject.obj
 0002:00008cf0       ??0_Sentry_base@?$basic_ostream@DU?$char_traits@D@std@@@std@@QAE@AAV12@@Z 6081dcf0 f i NMS_3DObject.obj
 0002:00008db0       ??1_Sentry_base@?$basic_ostream@DU?$char_traits@D@std@@@std@@QAE@XZ 6081ddb0 f i NMS_3DObject.obj
 0002:00008e60       ??$?6U?$char_traits@D@std@@@std@@YAAAV?$basic_ostream@DU?$char_traits@D@std@@@0@AAV10@D@Z 6081de60 f i NMS_3DObject.obj
 0002:00009400       ??0NMS_AssetManager@@QAE@XZ 6081e400 f   NMS_AssetManager.obj
 0002:00009440       ??1NMS_AssetManager@@QAE@XZ 6081e440 f   NMS_AssetManager.obj
 0002:00009480       ?GetSingleton@NMS_AssetManager@@SAAAV1@XZ 6081e480 f   NMS_AssetManager.obj
 0002:00009580       ?Initialize@NMS_AssetManager@@CAXXZ 6081e580 f   NMS_AssetManager.obj
 0002:000095f0       ?Destroy@NMS_AssetManager@@SAXXZ 6081e5f0 f   NMS_AssetManager.obj
 0002:000096a0       ??_GNMS_AssetManager@@QAEPAXI@Z 6081e6a0 f i NMS_AssetManager.obj
 0002:00009710       ?GetErrorMessage@NMS_AssetManager@@QAEPADXZ 6081e710 f   NMS_AssetManager.obj
 0002:00009750       ?LoadTexture@NMS_AssetManager@@QAEHPBDPAD@Z 6081e750 f   NMS_AssetManager.obj
 0002:000097b0       ?FreeTexture@NMS_AssetManager@@QAEXPAD@Z 6081e7b0 f   NMS_AssetManager.obj
 0002:00009810       ?FreeAll@NMS_AssetManager@@QAEXXZ 6081e810 f   NMS_AssetManager.obj
 0002:00009870       ??1Quaternion@@QAE@XZ      6081e870 f i NMS_Camera.obj
 0002:000098c0       ??4Quaternion@@QAEAAV0@ABV0@@Z 6081e8c0 f i NMS_Camera.obj
 0002:00009920       ?getPos@NMSCameraController@@QAE?AVVector@@XZ 6081e920 f i NMS_Camera.obj
 0002:000099a0       ?getRight@NMSCameraController@@QAE?AVVector@@XZ 6081e9a0 f i NMS_Camera.obj
 0002:00009a20       ?getUp@NMSCameraController@@QAE?AVVector@@XZ 6081ea20 f i NMS_Camera.obj
 0002:00009aa0       ?getDir@NMSCameraController@@QAE?AVVector@@XZ 6081eaa0 f i NMS_Camera.obj
 0002:00009b20       ?getVelocity@NMSCameraController@@QAE?AVVector@@XZ 6081eb20 f i NMS_Camera.obj
 0002:00009ba0       ??0NMSCameraController@@QAE@ABV0@@Z 6081eba0 f i NMS_Camera.obj
 0002:00009d40       ??4NMSCameraController@@QAEAAV0@ABV0@@Z 6081ed40 f i NMS_Camera.obj
 0002:00009ee0       ?setRSpeedX@NMSCameraFPS@@QAEXM@Z 6081eee0 f i NMS_Camera.obj
 0002:00009f30       ?setRSpeedY@NMSCameraFPS@@QAEXM@Z 6081ef30 f i NMS_Camera.obj
 0002:00009f80       ?getRSpeedX@NMSCameraFPS@@QAEMXZ 6081ef80 f i NMS_Camera.obj
 0002:00009fc0       ?getRSpeedY@NMSCameraFPS@@QAEMXZ 6081efc0 f i NMS_Camera.obj
 0002:0000a000       ?setSpeed@NMSCameraFPS@@QAEXM@Z 6081f000 f i NMS_Camera.obj
 0002:0000a050       ?setSlideSpeed@NMSCameraFPS@@QAEXM@Z 6081f050 f i NMS_Camera.obj
 0002:0000a0a0       ?getSpeed@NMSCameraFPS@@QAEMXZ 6081f0a0 f i NMS_Camera.obj
 0002:0000a0e0       ?getSlideSpeed@NMSCameraFPS@@QAEMXZ 6081f0e0 f i NMS_Camera.obj
 0002:0000a120       ?setPos@NMSCameraFPS@@QAEXAAVVector@@@Z 6081f120 f i NMS_Camera.obj
 0002:0000a180       ?setRight@NMSCameraFPS@@QAEXAAVVector@@@Z 6081f180 f i NMS_Camera.obj
 0002:0000a1e0       ?setUp@NMSCameraFPS@@QAEXAAVVector@@@Z 6081f1e0 f i NMS_Camera.obj
 0002:0000a240       ?setDir@NMSCameraFPS@@QAEXAAVVector@@@Z 6081f240 f i NMS_Camera.obj
 0002:0000a2a0       ??0NMSCameraFPS@@QAE@ABV0@@Z 6081f2a0 f i NMS_Camera.obj
 0002:0000a330       ??4NMSCameraFPS@@QAEAAV0@ABV0@@Z 6081f330 f i NMS_Camera.obj
 0002:0000a3b0       ?init@NMSCameraFPS@@MAEXXZ 6081f3b0 f   NMS_Camera.obj
 0002:0000a690       ??0NMSCameraController@@QAE@XZ 6081f690 f   NMS_Camera.obj
 0002:0000a790       ??1NMSCameraController@@QAE@XZ 6081f790 f   NMS_Camera.obj
 0002:0000a890       ?returnViewMatrix@NMSCameraController@@QAE?AVMatrix@@XZ 6081f890 f   NMS_Camera.obj
 0002:0000aa50       ??0NMSCameraFPS@@QAE@XZ    6081fa50 f   NMS_Camera.obj
 0002:0000ab00       ??1NMSCameraFPS@@QAE@XZ    6081fb00 f   NMS_Camera.obj
 0002:0000ab60       ?setRotation@NMSCameraFPS@@QAEXMMM@Z 6081fb60 f   NMS_Camera.obj
 0002:0000abf0       ?getRotation@NMSCameraFPS@@QAE?AVVector@@XZ 6081fbf0 f   NMS_Camera.obj
 0002:0000ac90       ?recalcAxes@NMSCameraFPS@@MAEXXZ 6081fc90 f   NMS_Camera.obj
 0002:0000b1a0       ?UpdateCamera@NMSCameraFPS@@QAEXM@Z 608201a0 f   NMS_Camera.obj
 0002:0000b4c0       ??1NMS_Event@@QAE@XZ       608204c0 f i NMS_Engine.obj
 0002:0000b580       ??0NMS_Event@@QAE@ABV0@@Z  60820580 f i NMS_Engine.obj
 0002:0000b670       ??4NMS_Event@@QAEAAV0@ABV0@@Z 60820670 f i NMS_Engine.obj
 0002:0000b720       ??0Thread@@QAE@ABV0@@Z     60820720 f i NMS_Engine.obj
 0002:0000b780       ??4Thread@@QAEAAV0@ABV0@@Z 60820780 f i NMS_Engine.obj
 0002:0000b7d0       ??4Mesh@@QAEAAV0@ABV0@@Z   608207d0 f i NMS_Engine.obj
 0002:0000b810       ??0SceneGraphVisitor@@QAE@XZ 60820810 f i NMS_Engine.obj
 0002:0000b860       ??0SceneGraphVisitor@@QAE@ABV0@@Z 60820860 f i NMS_Engine.obj
 0002:0000b8b0       ??4SceneGraphVisitor@@QAEAAV0@ABV0@@Z 608208b0 f i NMS_Engine.obj
 0002:0000b8f0       ??1SceneGraphNode@@QAE@XZ  608208f0 f i NMS_Engine.obj
 0002:0000b950       ??0SceneGraphNode@@QAE@ABV0@@Z 60820950 f i NMS_Engine.obj
 0002:0000b9c0       ??4SceneGraphNode@@QAEAAV0@ABV0@@Z 608209c0 f i NMS_Engine.obj
 0002:0000ba30       ??1TransformationNode@@QAE@XZ 60820a30 f i NMS_Engine.obj
 0002:0000bae0       ??0TransformationNode@@QAE@ABV0@@Z 60820ae0 f i NMS_Engine.obj
 0002:0000bbb0       ??4TransformationNode@@QAEAAV0@ABV0@@Z 60820bb0 f i NMS_Engine.obj
 0002:0000bc20       ??1GeometryNode@@QAE@XZ    60820c20 f i NMS_Engine.obj
 0002:0000bc70       ??0GeometryNode@@QAE@ABV0@@Z 60820c70 f i NMS_Engine.obj
 0002:0000bcf0       ??4GeometryNode@@QAEAAV0@ABV0@@Z 60820cf0 f i NMS_Engine.obj
 0002:0000bd60       ??0NMS_SceneRenderer@@QAE@ABV0@@Z 60820d60 f i NMS_Engine.obj
 0002:0000be40       ??4NMS_SceneRenderer@@QAEAAV0@ABV0@@Z 60820e40 f i NMS_Engine.obj
 0002:0000bf10       ??1LightSource@@QAE@XZ     60820f10 f i NMS_Engine.obj
 0002:0000bfc0       ??4LightSource@@QAEAAV0@ABV0@@Z 60820fc0 f i NMS_Engine.obj
 0002:0000c010       ??4NMS_LightSystem@@QAEAAV0@ABV0@@Z 60821010 f i NMS_Engine.obj
 0002:0000c050       ??1NMS_Framework@@QAE@XZ   60821050 f i NMS_Engine.obj
 0002:0000c0b0       ??0NMS_Framework@@QAE@ABV0@@Z 608210b0 f i NMS_Engine.obj
 0002:0000c170       ??4NMS_Framework@@QAEAAV0@ABV0@@Z 60821170 f i NMS_Engine.obj
 0002:0000c230       ?InitEngine@@YA_NHHHPAD_N@Z 60821230 f   NMS_Engine.obj
 0002:0000c2d0       ?Render@@YAXXZ             608212d0 f   NMS_Engine.obj
 0002:0000c370       ?StartEngine@@YAXXZ        60821370 f   NMS_Engine.obj
 0002:0000c3f0       ?QuitEngine@@YAXXZ         608213f0 f   NMS_Engine.obj
 0002:0000c430       ??0?$list@TSDL_Event@@V?$allocator@TSDL_Event@@@std@@@std@@QAE@ABV01@@Z 60821430 f i NMS_Engine.obj
 0002:0000c620       ??1?$list@TSDL_Event@@V?$allocator@TSDL_Event@@@std@@@std@@QAE@XZ 60821620 f i NMS_Engine.obj
 0002:0000c6c0       ??4?$list@TSDL_Event@@V?$allocator@TSDL_Event@@@std@@@std@@QAEAAV01@ABV01@@Z 608216c0 f i NMS_Engine.obj
 0002:0000c7c0       ??0?$function1@XH@boost@@QAE@ABV01@@Z 608217c0 f i NMS_Engine.obj
 0002:0000c830       ??0function_base@boost@@QAE@XZ 60821830 f i NMS_Engine.obj
 0002:0000c880       ??1?$function1@XH@boost@@QAE@XZ 60821880 f i NMS_Engine.obj
 0002:0000c8d0       ??4?$function1@XH@boost@@QAEAAV01@ABV01@@Z 608218d0 f i NMS_Engine.obj
 0002:0000c9c0       ??0?$function1@XW4SDLKey@@@boost@@QAE@ABV01@@Z 608219c0 f i NMS_Engine.obj
 0002:0000ca30       ??1?$function1@XW4SDLKey@@@boost@@QAE@XZ 60821a30 f i NMS_Engine.obj
 0002:0000ca80       ??4?$function1@XW4SDLKey@@@boost@@QAEAAV01@ABV01@@Z 60821a80 f i NMS_Engine.obj
 0002:0000cb70       ??0?$vector@PAVSceneGraphNode@@V?$allocator@PAVSceneGraphNode@@@std@@@std@@QAE@ABV01@@Z 60821b70 f i NMS_Engine.obj
 0002:0000cd10       ??1?$vector@PAVSceneGraphNode@@V?$allocator@PAVSceneGraphNode@@@std@@@std@@QAE@XZ 60821d10 f i NMS_Engine.obj
 0002:0000cdb0       ??4?$vector@PAVSceneGraphNode@@V?$allocator@PAVSceneGraphNode@@@std@@@std@@QAEAAV01@ABV01@@Z 60821db0 f i NMS_Engine.obj
 0002:0000cfe0       ??1?$_List_val@TSDL_Event@@V?$allocator@TSDL_Event@@@std@@@std@@QAE@XZ 60821fe0 f i NMS_Engine.obj
 0002:0000d030       ??1?$_Iterator@$00@?$list@TSDL_Event@@V?$allocator@TSDL_Event@@@std@@@std@@QAE@XZ 60822030 f i NMS_Engine.obj
 0002:0000d080       ??1?$_Const_iterator@$00@?$list@TSDL_Event@@V?$allocator@TSDL_Event@@@std@@@std@@QAE@XZ 60822080 f i NMS_Engine.obj
 0002:0000d0d0       ??0?$_Const_iterator@$00@?$list@TSDL_Event@@V?$allocator@TSDL_Event@@@std@@@std@@QAE@ABV012@@Z 608220d0 f i NMS_Engine.obj
 0002:0000d140       ??1?$_Vector_val@PAVSceneGraphNode@@V?$allocator@PAVSceneGraphNode@@@std@@@std@@QAE@XZ 60822140 f i NMS_Engine.obj
 0002:0000d190       ??1?$_Vector_const_iterator@PAVSceneGraphNode@@V?$allocator@PAVSceneGraphNode@@@std@@@std@@QAE@XZ 60822190 f i NMS_Engine.obj
 0002:0000d1e0       ??1?$_List_ptr@TSDL_Event@@V?$allocator@TSDL_Event@@@std@@@std@@QAE@XZ 608221e0 f i NMS_Engine.obj
 0002:0000d230       ??1?$_Bidit@TSDL_Event@@HPBT1@ABT1@@std@@QAE@XZ 60822230 f i NMS_Engine.obj
 0002:0000d280       ??0?$_Bidit@TSDL_Event@@HPBT1@ABT1@@std@@QAE@ABU01@@Z 60822280 f i NMS_Engine.obj
 0002:0000d2e0       ??1?$_Ranit@PAVSceneGraphNode@@HPBQAV1@ABQAV1@@std@@QAE@XZ 608222e0 f i NMS_Engine.obj
 0002:0000d330       ??1?$_List_nod@TSDL_Event@@V?$allocator@TSDL_Event@@@std@@@std@@QAE@XZ 60822330 f i NMS_Engine.obj
 0002:0000d380       ??1?$_Iterator_with_base@Ubidirectional_iterator_tag@std@@TSDL_Event@@HPBT3@ABT3@V_Iterator_base@2@@std@@QAE@XZ 60822380 f i NMS_Engine.obj
 0002:0000d3d0       ??0?$_Iterator_with_base@Ubidirectional_iterator_tag@std@@TSDL_Event@@HPBT3@ABT3@V_Iterator_base@2@@std@@QAE@ABU01@@Z 608223d0 f i NMS_Engine.obj
 0002:0000d430       ??1?$_Iterator_with_base@Urandom_access_iterator_tag@std@@PAVSceneGraphNode@@HPBQAV3@ABQAV3@V_Iterator_base@2@@std@@QAE@XZ 60822430 f i NMS_Engine.obj
 0002:0000d480       ?begin@?$list@TSDL_Event@@V?$allocator@TSDL_Event@@@std@@@std@@QAE?AV?$_Iterator@$00@12@XZ 60822480 f i NMS_Engine.obj
 0002:0000d510       ?begin@?$list@TSDL_Event@@V?$allocator@TSDL_Event@@@std@@@std@@QBE?AV?$_Const_iterator@$00@12@XZ 60822510 f i NMS_Engine.obj
 0002:0000d5a0       ?end@?$list@TSDL_Event@@V?$allocator@TSDL_Event@@@std@@@std@@QBE?AV?$_Const_iterator@$00@12@XZ 608225a0 f i NMS_Engine.obj
 0002:0000d630       ?_Buynode@?$list@TSDL_Event@@V?$allocator@TSDL_Event@@@std@@@std@@IAEPAU_Node@?$_List_nod@TSDL_Event@@V?$allocator@TSDL_Event@@@std@@@2@XZ 60822630 f i NMS_Engine.obj
 0002:0000d7f0       ?_Tidy@?$list@TSDL_Event@@V?$allocator@TSDL_Event@@@std@@@std@@IAEXXZ 608227f0 f i NMS_Engine.obj
 0002:0000d8b0       ??0?$_List_val@TSDL_Event@@V?$allocator@TSDL_Event@@@std@@@std@@QAE@V?$allocator@TSDL_Event@@@1@@Z 608228b0 f i NMS_Engine.obj
 0002:0000d930       ??1?$_Container_base_aux_alloc_empty@V?$allocator@TSDL_Event@@@std@@@std@@IAE@XZ 60822930 f i NMS_Engine.obj
 0002:0000d990       ??0?$allocator@TSDL_Event@@@std@@QAE@ABV01@@Z 60822990 f i NMS_Engine.obj
 0002:0000d9d0       ?clear@?$function1@XH@boost@@QAEXXZ 608229d0 f i NMS_Engine.obj
 0002:0000da60       ?has_trivial_copy_and_destroy@function_base@boost@@QBE_NXZ 60822a60 f i NMS_Engine.obj
 0002:0000daa0       ?assign_to_own@?$function1@XH@boost@@AAEXABV12@@Z 60822aa0 f i NMS_Engine.obj
 0002:0000db90       ?empty@function_base@boost@@QBE_NXZ 60822b90 f i NMS_Engine.obj
 0002:0000dbe0       ?clear@?$function1@XW4SDLKey@@@boost@@QAEXXZ 60822be0 f i NMS_Engine.obj
 0002:0000dc70       ?assign_to_own@?$function1@XW4SDLKey@@@boost@@AAEXABV12@@Z 60822c70 f i NMS_Engine.obj
 0002:0000dd60       ?capacity@?$vector@PAVSceneGraphNode@@V?$allocator@PAVSceneGraphNode@@@std@@@std@@QBEIXZ 60822d60 f i NMS_Engine.obj
 0002:0000ddd0       ?begin@?$vector@PAVSceneGraphNode@@V?$allocator@PAVSceneGraphNode@@@std@@@std@@QBE?AV?$_Vector_const_iterator@PAVSceneGraphNode@@V?$allocator@PAVSceneGraphNode@@@std@@@2@XZ 60822dd0 f i NMS_Engine.obj
 0002:0000de60       ?end@?$vector@PAVSceneGraphNode@@V?$allocator@PAVSceneGraphNode@@@std@@@std@@QBE?AV?$_Vector_const_iterator@PAVSceneGraphNode@@V?$allocator@PAVSceneGraphNode@@@std@@@2@XZ 60822e60 f i NMS_Engine.obj
 0002:0000def0       ?size@?$vector@PAVSceneGraphNode@@V?$allocator@PAVSceneGraphNode@@@std@@@std@@QBEIXZ 60822ef0 f i NMS_Engine.obj
 0002:0000df40       ?clear@?$vector@PAVSceneGraphNode@@V?$allocator@PAVSceneGraphNode@@@std@@@std@@QAEXXZ 60822f40 f i NMS_Engine.obj
 0002:0000e0d0       ?_Buy@?$vector@PAVSceneGraphNode@@V?$allocator@PAVSceneGraphNode@@@std@@@std@@IAE_NI@Z 608230d0 f i NMS_Engine.obj
 0002:0000e1b0       ?_Destroy@?$vector@PAVSceneGraphNode@@V?$allocator@PAVSceneGraphNode@@@std@@@std@@IAEXPAPAVSceneGraphNode@@0@Z 608231b0 f i NMS_Engine.obj
 0002:0000e220       ?_Tidy@?$vector@PAVSceneGraphNode@@V?$allocator@PAVSceneGraphNode@@@std@@@std@@IAEXXZ 60823220 f i NMS_Engine.obj
 0002:0000e300       ??0?$_Vector_val@PAVSceneGraphNode@@V?$allocator@PAVSceneGraphNode@@@std@@@std@@IAE@V?$allocator@PAVSceneGraphNode@@@1@@Z 60823300 f i NMS_Engine.obj
 0002:0000e380       ??1?$_Container_base_aux_alloc_empty@V?$allocator@PAVSceneGraphNode@@@std@@@std@@IAE@XZ 60823380 f i NMS_Engine.obj
 0002:0000e3e0       ??0?$allocator@PAVSceneGraphNode@@@std@@QAE@ABV01@@Z 608233e0 f i NMS_Engine.obj
 0002:0000e420       ?deallocate@?$allocator@PAVSceneGraphNode@@@std@@QAEXPAPAVSceneGraphNode@@I@Z 60823420 f i NMS_Engine.obj
 0002:0000e480       ??1?$_Vector_iterator@PAVSceneGraphNode@@V?$allocator@PAVSceneGraphNode@@@std@@@std@@QAE@XZ 60823480 f i NMS_Engine.obj
 0002:0000e4d0       ??0?$_Vector_const_iterator@PAVSceneGraphNode@@V?$allocator@PAVSceneGraphNode@@@std@@@std@@QAE@ABV01@@Z 608234d0 f i NMS_Engine.obj
 0002:0000e540       ??0?$_Ranit@PAVSceneGraphNode@@HPBQAV1@ABQAV1@@std@@QAE@ABU01@@Z 60823540 f i NMS_Engine.obj
 0002:0000e5a0       ??0?$_Iterator_with_base@Urandom_access_iterator_tag@std@@PAVSceneGraphNode@@HPBQAV3@ABQAV3@V_Iterator_base@2@@std@@QAE@ABU01@@Z 608235a0 f i NMS_Engine.obj
 0002:0000e600       ?_Nextnode@?$list@TSDL_Event@@V?$allocator@TSDL_Event@@@std@@@std@@KAAAPAU_Node@?$_List_nod@TSDL_Event@@V?$allocator@TSDL_Event@@@std@@@2@PAU342@@Z 60823600 f i NMS_Engine.obj
 0002:0000e640       ?_Prevnode@?$list@TSDL_Event@@V?$allocator@TSDL_Event@@@std@@@std@@KAAAPAU_Node@?$_List_nod@TSDL_Event@@V?$allocator@TSDL_Event@@@std@@@2@PAU342@@Z 60823640 f i NMS_Engine.obj
 0002:0000e680       ?clear@?$list@TSDL_Event@@V?$allocator@TSDL_Event@@@std@@@std@@QAEXXZ 60823680 f i NMS_Engine.obj
 0002:0000e790       ??0?$_List_ptr@TSDL_Event@@V?$allocator@TSDL_Event@@@std@@@std@@IAE@V?$allocator@TSDL_Event@@@1@@Z 60823790 f i NMS_Engine.obj
 0002:0000e810       ?deallocate@?$allocator@U_Node@?$_List_nod@TSDL_Event@@V?$allocator@TSDL_Event@@@std@@@std@@@std@@QAEXPAU_Node@?$_List_nod@TSDL_Event@@V?$allocator@TSDL_Event@@@std@@@2@I@Z 60823810 f i NMS_Engine.obj
 0002:0000e870       ?allocate@?$allocator@U_Node@?$_List_nod@TSDL_Event@@V?$allocator@TSDL_Event@@@std@@@std@@@std@@QAEPAU_Node@?$_List_nod@TSDL_Event@@V?$allocator@TSDL_Event@@@std@@@2@I@Z 60823870 f i NMS_Engine.obj
 0002:0000e8d0       ?construct@?$allocator@PAU_Node@?$_List_nod@TSDL_Event@@V?$allocator@TSDL_Event@@@std@@@std@@@std@@QAEXPAPAU_Node@?$_List_nod@TSDL_Event@@V?$allocator@TSDL_Event@@@std@@@2@ABQAU342@@Z 608238d0 f i NMS_Engine.obj
 0002:0000e930       ?destroy@?$allocator@PAU_Node@?$_List_nod@TSDL_Event@@V?$allocator@TSDL_Event@@@std@@@std@@@std@@QAEXPAPAU_Node@?$_List_nod@TSDL_Event@@V?$allocator@TSDL_Event@@@std@@@2@@Z 60823930 f i NMS_Engine.obj
 0002:0000e990       ?get_vtable@?$function1@XH@boost@@ABEPAU?$basic_vtable1@XH@function@detail@2@XZ 60823990 f i NMS_Engine.obj
 0002:0000e9d0       ?get_vtable@?$function1@XW4SDLKey@@@boost@@ABEPAU?$basic_vtable1@XW4SDLKey@@@function@detail@2@XZ 608239d0 f i NMS_Engine.obj
 0002:0000ea10       ?begin@?$vector@PAVSceneGraphNode@@V?$allocator@PAVSceneGraphNode@@@std@@@std@@QAE?AV?$_Vector_iterator@PAVSceneGraphNode@@V?$allocator@PAVSceneGraphNode@@@std@@@2@XZ 60823a10 f i NMS_Engine.obj
 0002:0000eaa0       ?end@?$vector@PAVSceneGraphNode@@V?$allocator@PAVSceneGraphNode@@@std@@@std@@QAE?AV?$_Vector_iterator@PAVSceneGraphNode@@V?$allocator@PAVSceneGraphNode@@@std@@@2@XZ 60823aa0 f i NMS_Engine.obj
 0002:0000eb30       ?max_size@?$vector@PAVSceneGraphNode@@V?$allocator@PAVSceneGraphNode@@@std@@@std@@QBEIXZ 60823b30 f i NMS_Engine.obj
 0002:0000eb90       ?erase@?$vector@PAVSceneGraphNode@@V?$allocator@PAVSceneGraphNode@@@std@@@std@@QAE?AV?$_Vector_iterator@PAVSceneGraphNode@@V?$allocator@PAVSceneGraphNode@@@std@@@2@V?$_Vector_const_iterator@PAVSceneGraphNode@@V?$allocator@PAVSceneGraphNode@@@std@@@2@0@Z 60823b90 f i NMS_Engine.obj
 0002:0000ee30       ?_Xlen@?$vector@PAVSceneGraphNode@@V?$allocator@PAVSceneGraphNode@@@std@@@std@@KAXXZ 60823e30 f i NMS_Engine.obj
 0002:0000ef20       ??0length_error@std@@QAE@ABV?$basic_string@DU?$char_traits@D@std@@V?$allocator@D@2@@1@@Z 60823f20 f i NMS_Engine.obj
 0002:0000ef90       ??0logic_error@std@@QAE@ABV?$basic_string@DU?$char_traits@D@std@@V?$allocator@D@2@@1@@Z 60823f90 f i NMS_Engine.obj
 0002:0000f070       ?what@logic_error@std@@UBEPBDXZ 60824070 f i NMS_Engine.obj
 0002:0000f0d0       ??_Glogic_error@std@@UAEPAXI@Z 608240d0 f i NMS_Engine.obj
 0002:0000f0d0       ??_Elogic_error@std@@UAEPAXI@Z 608240d0 f i NMS_Engine.obj
 0002:0000f140       ??1logic_error@std@@UAE@XZ 60824140 f i NMS_Engine.obj
 0002:0000f1c0       ??1length_error@std@@UAE@XZ 608241c0 f i NMS_Engine.obj
 0002:0000f220       ??_Glength_error@std@@UAEPAXI@Z 60824220 f i NMS_Engine.obj
 0002:0000f220       ??_Elength_error@std@@UAEPAXI@Z 60824220 f i NMS_Engine.obj
 0002:0000f290       ??0logic_error@std@@QAE@ABV01@@Z 60824290 f i NMS_Engine.obj
 0002:0000f370       ??0?$_Container_base_aux_alloc_empty@V?$allocator@PAVSceneGraphNode@@@std@@@std@@IAE@V?$allocator@PAVSceneGraphNode@@@1@@Z 60824370 f i NMS_Engine.obj
 0002:0000f3e0       ?allocate@?$allocator@PAVSceneGraphNode@@@std@@QAEPAPAVSceneGraphNode@@I@Z 608243e0 f i NMS_Engine.obj
 0002:0000f440       ??0?$_Iterator@$00@?$list@TSDL_Event@@V?$allocator@TSDL_Event@@@std@@@std@@QAE@PAU_Node@?$_List_nod@TSDL_Event@@V?$allocator@TSDL_Event@@@std@@@2@PBV12@@Z 60824440 f i NMS_Engine.obj
 0002:0000f4a0       ??0?$_Const_iterator@$00@?$list@TSDL_Event@@V?$allocator@TSDL_Event@@@std@@@std@@QAE@PAU_Node@?$_List_nod@TSDL_Event@@V?$allocator@TSDL_Event@@@std@@@2@PBV12@@Z 608244a0 f i NMS_Engine.obj
 0002:0000f560       ??0?$_Vector_const_iterator@PAVSceneGraphNode@@V?$allocator@PAVSceneGraphNode@@@std@@@std@@QAE@PAPAVSceneGraphNode@@PBV_Container_base_secure@1@@Z 60824560 f i NMS_Engine.obj
 0002:0000f6b0       ?clear@?$basic_vtable1@XH@function@detail@boost@@QAEXAATfunction_buffer@234@@Z 608246b0 f i NMS_Engine.obj
 0002:0000f730       ?clear@?$basic_vtable1@XW4SDLKey@@@function@detail@boost@@QAEXAATfunction_buffer@234@@Z 60824730 f i NMS_Engine.obj
 0002:0000f7b0       ??0length_error@std@@QAE@ABV01@@Z 608247b0 f i NMS_Engine.obj
 0002:0000f820       ??0?$_Bidit@TSDL_Event@@HPBT1@ABT1@@std@@QAE@XZ 60824820 f i NMS_Engine.obj
 0002:0000f880       ??0?$_Ranit@PAVSceneGraphNode@@HPBQAV1@ABQAV1@@std@@QAE@XZ 60824880 f i NMS_Engine.obj
 0002:0000f8e0       ??0?$_Iterator_with_base@Ubidirectional_iterator_tag@std@@TSDL_Event@@HPBT3@ABT3@V_Iterator_base@2@@std@@QAE@XZ 608248e0 f i NMS_Engine.obj
 0002:0000f940       ??0?$_Iterator_with_base@Urandom_access_iterator_tag@std@@PAVSceneGraphNode@@HPBQAV3@ABQAV3@V_Iterator_base@2@@std@@QAE@XZ 60824940 f i NMS_Engine.obj
 0002:0000f9a0       ?_Orphan_ptr@?$list@TSDL_Event@@V?$allocator@TSDL_Event@@@std@@@std@@IBEXAAV12@PAU_Node@?$_List_nod@TSDL_Event@@V?$allocator@TSDL_Event@@@std@@@2@@Z 608249a0 f i NMS_Engine.obj
 0002:0000fac0       ??0?$_List_nod@TSDL_Event@@V?$allocator@TSDL_Event@@@std@@@std@@IAE@V?$allocator@TSDL_Event@@@1@@Z 60824ac0 f i NMS_Engine.obj
 0002:0000fb40       ?destroy@?$allocator@U_Node@?$_List_nod@TSDL_Event@@V?$allocator@TSDL_Event@@@std@@@std@@@std@@QAEXPAU_Node@?$_List_nod@TSDL_Event@@V?$allocator@TSDL_Event@@@std@@@2@@Z 60824b40 f i NMS_Engine.obj
 0002:0000fba0       ?_Make_iter@?$vector@PAVSceneGraphNode@@V?$allocator@PAVSceneGraphNode@@@std@@@std@@QBE?AV?$_Vector_iterator@PAVSceneGraphNode@@V?$allocator@PAVSceneGraphNode@@@std@@@2@V?$_Vector_const_iterator@PAVSceneGraphNode@@V?$allocator@PAVSceneGraphNode@@@std@@@2@@Z 60824ba0 f i NMS_Engine.obj
 0002:0000fc70       ?_Orphan_range@?$vector@PAVSceneGraphNode@@V?$allocator@PAVSceneGraphNode@@@std@@@std@@IBEXPAPAVSceneGraphNode@@0@Z 60824c70 f i NMS_Engine.obj
 0002:0000fd80       ?max_size@?$allocator@PAVSceneGraphNode@@@std@@QBEIXZ 60824d80 f i NMS_Engine.obj
 0002:0000fdf0       ??9?$_Vector_const_iterator@PAVSceneGraphNode@@V?$allocator@PAVSceneGraphNode@@@std@@@std@@QBE_NABV01@@Z 60824df0 f i NMS_Engine.obj
 0002:0000fe60       ??M?$_Vector_const_iterator@PAVSceneGraphNode@@V?$allocator@PAVSceneGraphNode@@@std@@@std@@QBE_NABV01@@Z 60824e60 f i NMS_Engine.obj
 0002:0000fed0       ??0?$_Vector_iterator@PAVSceneGraphNode@@V?$allocator@PAVSceneGraphNode@@@std@@@std@@QAE@PAPAVSceneGraphNode@@PBV_Container_base_secure@1@@Z 60824ed0 f i NMS_Engine.obj
 0002:0000ff30       ??0?$_Container_base_aux_alloc_empty@V?$allocator@TSDL_Event@@@std@@@std@@IAE@V?$allocator@TSDL_Event@@@1@@Z 60824f30 f i NMS_Engine.obj
 0002:0000ffa0       ??8?$_Vector_const_iterator@PAVSceneGraphNode@@V?$allocator@PAVSceneGraphNode@@@std@@@std@@QBE_NABV01@@Z 60824fa0 f i NMS_Engine.obj
 0002:00010010       ?_Compat@?$_Vector_const_iterator@PAVSceneGraphNode@@V?$allocator@PAVSceneGraphNode@@@std@@@std@@QBEXABV12@@Z 60825010 f i NMS_Engine.obj
 0002:00010110       ??$insert@V?$_Const_iterator@$00@?$list@TSDL_Event@@V?$allocator@TSDL_Event@@@std@@@std@@@?$list@TSDL_Event@@V?$allocator@TSDL_Event@@@std@@@std@@QAEXV?$_Const_iterator@$00@01@00@Z 60825110 f i NMS_Engine.obj
 0002:00010280       ??$assign@V?$_Const_iterator@$00@?$list@TSDL_Event@@V?$allocator@TSDL_Event@@@std@@@std@@@?$list@TSDL_Event@@V?$allocator@TSDL_Event@@@std@@@std@@QAEXV?$_Const_iterator@$00@01@0@Z 60825280 f i NMS_Engine.obj
 0002:000103b0       ??$_Ucopy@V?$_Vector_const_iterator@PAVSceneGraphNode@@V?$allocator@PAVSceneGraphNode@@@std@@@std@@@?$vector@PAVSceneGraphNode@@V?$allocator@PAVSceneGraphNode@@@std@@@std@@IAEPAPAVSceneGraphNode@@V?$_Vector_const_iterator@PAVSceneGraphNode@@V?$allocator@PAVSceneGraphNode@@@std@@@1@0PAPAV2@@Z 608253b0 f i NMS_Engine.obj
 0002:000104f0       ??$unchecked_copy@PAPAVSceneGraphNode@@PAPAV1@@stdext@@YAPAPAVSceneGraphNode@@PAPAV1@00@Z 608254f0 f i NMS_Engine.obj
 0002:000105c0       ??$_Ucopy@PAPAVSceneGraphNode@@@?$vector@PAVSceneGraphNode@@V?$allocator@PAVSceneGraphNode@@@std@@@std@@IAEPAPAVSceneGraphNode@@PAPAV2@00@Z 608255c0 f i NMS_Engine.obj
 0002:00010630       ??$_Destroy_range@V?$allocator@PAVSceneGraphNode@@@std@@@std@@YAXPAPAVSceneGraphNode@@0AAV?$allocator@PAVSceneGraphNode@@@0@@Z 60825630 f i NMS_Engine.obj
 0002:000106b0       ??$?0TSDL_Event@@@?$allocator@PAU_Node@?$_List_nod@TSDL_Event@@V?$allocator@TSDL_Event@@@std@@@std@@@std@@QAE@ABV?$allocator@TSDL_Event@@@1@@Z 608256b0 f i NMS_Engine.obj
 0002:000106f0       ??$_Allocate@U_Node@?$_List_nod@TSDL_Event@@V?$allocator@TSDL_Event@@@std@@@std@@@std@@YAPAU_Node@?$_List_nod@TSDL_Event@@V?$allocator@TSDL_Event@@@std@@@0@IPAU120@@Z 608256f0 f i NMS_Engine.obj
 0002:00010790       ??$_Construct@PAU_Node@?$_List_nod@TSDL_Event@@V?$allocator@TSDL_Event@@@std@@@std@@PAU123@@std@@YAXPAPAU_Node@?$_List_nod@TSDL_Event@@V?$allocator@TSDL_Event@@@std@@@0@ABQAU120@@Z 60825790 f i NMS_Engine.obj
 0002:00010830       ??$_Destroy@PAU_Node@?$_List_nod@TSDL_Event@@V?$allocator@TSDL_Event@@@std@@@std@@@std@@YAXPAPAU_Node@?$_List_nod@TSDL_Event@@V?$allocator@TSDL_Event@@@std@@@0@@Z 60825830 f i NMS_Engine.obj
 0002:00010860       ??$_Allocate@PAVSceneGraphNode@@@std@@YAPAPAVSceneGraphNode@@IPAPAV1@@Z 60825860 f i NMS_Engine.obj
 0002:00010900       ??$?0TSDL_Event@@@?$allocator@U_Node@?$_List_nod@TSDL_Event@@V?$allocator@TSDL_Event@@@std@@@std@@@std@@QAE@ABV?$allocator@TSDL_Event@@@1@@Z 60825900 f i NMS_Engine.obj
 0002:00010940       ??$_Destroy@U_Node@?$_List_nod@TSDL_Event@@V?$allocator@TSDL_Event@@@std@@@std@@@std@@YAXPAU_Node@?$_List_nod@TSDL_Event@@V?$allocator@TSDL_Event@@@std@@@0@@Z 60825940 f i NMS_Engine.obj
 0002:00010970       ??$_Iter_cat@V?$_Const_iterator@$00@?$list@TSDL_Event@@V?$allocator@TSDL_Event@@@std@@@std@@@std@@YA?AUbidirectional_iterator_tag@0@ABV?$_Const_iterator@$00@?$list@TSDL_Event@@V?$allocator@TSDL_Event@@@std@@@0@@Z 60825970 f i NMS_Engine.obj
 0002:000109e0       ??$_Insert@V?$_Const_iterator@$00@?$list@TSDL_Event@@V?$allocator@TSDL_Event@@@std@@@std@@@?$list@TSDL_Event@@V?$allocator@TSDL_Event@@@std@@@std@@QAEXV?$_Const_iterator@$00@01@00Uforward_iterator_tag@1@@Z 608259e0 f i NMS_Engine.obj
 0002:00010cc0       ??$_Assign@V?$_Const_iterator@$00@?$list@TSDL_Event@@V?$allocator@TSDL_Event@@@std@@@std@@@?$list@TSDL_Event@@V?$allocator@TSDL_Event@@@std@@@std@@QAEXV?$_Const_iterator@$00@01@0Uinput_iterator_tag@1@@Z 60825cc0 f i NMS_Engine.obj
 0002:00010e50       ??$unchecked_uninitialized_copy@V?$_Vector_const_iterator@PAVSceneGraphNode@@V?$allocator@PAVSceneGraphNode@@@std@@@std@@PAPAVSceneGraphNode@@V?$allocator@PAVSceneGraphNode@@@2@@stdext@@YAPAPAVSceneGraphNode@@V?$_Vector_const_iterator@PAVSceneGraphNode@@V?$allocator@PAVSceneGraphNode@@@std@@@std@@0PAPAV1@AAV?$allocator@PAVSceneGraphNode@@@3@@Z 60825e50 f i NMS_Engine.obj
 0002:00010fc0       ??$_Checked_base@PAPAVSceneGraphNode@@@std@@YAPAPAVSceneGraphNode@@AAPAPAV1@@Z 60825fc0 f i NMS_Engine.obj
 0002:00011050       ??$_Iter_random@PAPAVSceneGraphNode@@PAPAV1@@std@@YA?AUrandom_access_iterator_tag@0@ABQAPAVSceneGraphNode@@0@Z 60826050 f i NMS_Engine.obj
 0002:000110c0       ??$_Ptr_cat@PAPAVSceneGraphNode@@PAPAV1@@std@@YA?AU_Scalar_ptr_iterator_tag@0@AAPAPAVSceneGraphNode@@0@Z 608260c0 f i NMS_Engine.obj
 0002:00011130       ??$_Copy_opt@PAPAVSceneGraphNode@@PAPAV1@Urandom_access_iterator_tag@std@@@std@@YAPAPAVSceneGraphNode@@PAPAV1@00Urandom_access_iterator_tag@0@U_Scalar_ptr_iterator_tag@0@U_Range_checked_iterator_tag@0@@Z 60826130 f i NMS_Engine.obj
 0002:00011210       ??$unchecked_uninitialized_copy@PAPAVSceneGraphNode@@PAPAV1@V?$allocator@PAVSceneGraphNode@@@std@@@stdext@@YAPAPAVSceneGraphNode@@PAPAV1@00AAV?$allocator@PAVSceneGraphNode@@@std@@@Z 60826210 f i NMS_Engine.obj
 0002:000112c0       ??$_Destroy_range@V?$allocator@PAVSceneGraphNode@@@std@@@std@@YAXPAPAVSceneGraphNode@@0AAV?$allocator@PAVSceneGraphNode@@@0@U_Scalar_ptr_iterator_tag@0@@Z 608262c0 f i NMS_Engine.obj
 0002:000112f0       ?_Insert@?$list@TSDL_Event@@V?$allocator@TSDL_Event@@@std@@@std@@QAEXV?$_Const_iterator@$00@12@ABTSDL_Event@@@Z 608262f0 f i NMS_Engine.obj
 0002:00011440       ?erase@?$list@TSDL_Event@@V?$allocator@TSDL_Event@@@std@@@std@@QAE?AV?$_Iterator@$00@12@V?$_Const_iterator@$00@12@@Z 60826440 f i NMS_Engine.obj
 0002:00011690       ??D?$_Const_iterator@$00@?$list@TSDL_Event@@V?$allocator@TSDL_Event@@@std@@@std@@QBEABTSDL_Event@@XZ 60826690 f i NMS_Engine.obj
 0002:000117c0       ??E?$_Const_iterator@$00@?$list@TSDL_Event@@V?$allocator@TSDL_Event@@@std@@@std@@QAEAAV012@XZ 608267c0 f i NMS_Engine.obj
 0002:00011900       ??F?$_Const_iterator@$00@?$list@TSDL_Event@@V?$allocator@TSDL_Event@@@std@@@std@@QAEAAV012@XZ 60826900 f i NMS_Engine.obj
 0002:00011a40       ??9?$_Const_iterator@$00@?$list@TSDL_Event@@V?$allocator@TSDL_Event@@@std@@@std@@QBE_NABV012@@Z 60826a40 f i NMS_Engine.obj
 0002:00011ab0       ?_Myval@?$list@TSDL_Event@@V?$allocator@TSDL_Event@@@std@@@std@@KAAATSDL_Event@@PAU_Node@?$_List_nod@TSDL_Event@@V?$allocator@TSDL_Event@@@std@@@2@@Z 60826ab0 f i NMS_Engine.obj
 0002:00011af0       ?_Make_iter@?$list@TSDL_Event@@V?$allocator@TSDL_Event@@@std@@@std@@QBE?AV?$_Iterator@$00@12@V?$_Const_iterator@$00@12@@Z 60826af0 f i NMS_Engine.obj
 0002:00011bc0       ?_Buynode@?$list@TSDL_Event@@V?$allocator@TSDL_Event@@@std@@@std@@IAEPAU_Node@?$_List_nod@TSDL_Event@@V?$allocator@TSDL_Event@@@std@@@2@PAU342@0ABTSDL_Event@@@Z 60826bc0 f i NMS_Engine.obj
 0002:00011da0       ?_Incsize@?$list@TSDL_Event@@V?$allocator@TSDL_Event@@@std@@@std@@IAEXI@Z 60826da0 f i NMS_Engine.obj
 0002:00011ec0       ??E?$_Const_iterator@$00@?$list@TSDL_Event@@V?$allocator@TSDL_Event@@@std@@@std@@QAE?AV012@H@Z 60826ec0 f i NMS_Engine.obj
 0002:00011fe0       ??8?$_Const_iterator@$00@?$list@TSDL_Event@@V?$allocator@TSDL_Event@@@std@@@std@@QBE_NABV012@@Z 60826fe0 f i NMS_Engine.obj
 0002:00012050       ?_Mynode@?$_Const_iterator@$00@?$list@TSDL_Event@@V?$allocator@TSDL_Event@@@std@@@std@@QBEPAU_Node@?$_List_nod@TSDL_Event@@V?$allocator@TSDL_Event@@@std@@@3@XZ 60827050 f i NMS_Engine.obj
 0002:00012090       ?max_size@?$list@TSDL_Event@@V?$allocator@TSDL_Event@@@std@@@std@@QBEIXZ 60827090 f i NMS_Engine.obj
 0002:000120f0       ?construct@?$allocator@TSDL_Event@@@std@@QAEXPATSDL_Event@@ABT3@@Z 608270f0 f i NMS_Engine.obj
 0002:00012150       ?_Compat@?$_Const_iterator@$00@?$list@TSDL_Event@@V?$allocator@TSDL_Event@@@std@@@std@@QBEXABV123@@Z 60827150 f i NMS_Engine.obj
 0002:00012260       ?max_size@?$allocator@TSDL_Event@@@std@@QBEIXZ 60827260 f i NMS_Engine.obj
 0002:000122d0       ??$_Debug_range@V?$_Const_iterator@$00@?$list@TSDL_Event@@V?$allocator@TSDL_Event@@@std@@@std@@@std@@YAXV?$_Const_iterator@$00@?$list@TSDL_Event@@V?$allocator@TSDL_Event@@@std@@@0@0PB_WI@Z 608272d0 f i NMS_Engine.obj
 0002:00012400       ??$_Checked_base@V?$_Vector_const_iterator@PAVSceneGraphNode@@V?$allocator@PAVSceneGraphNode@@@std@@@std@@@std@@YA?AV?$_Vector_const_iterator@PAVSceneGraphNode@@V?$allocator@PAVSceneGraphNode@@@std@@@0@AAV10@@Z 60827400 f i NMS_Engine.obj
 0002:000124c0       ??$_Ptr_cat@V?$_Vector_const_iterator@PAVSceneGraphNode@@V?$allocator@PAVSceneGraphNode@@@std@@@std@@PAPAVSceneGraphNode@@@std@@YA?AU_Scalar_ptr_iterator_tag@0@AAV?$_Vector_const_iterator@PAVSceneGraphNode@@V?$allocator@PAVSceneGraphNode@@@std@@@0@AAPAPAVSceneGraphNode@@@Z 608274c0 f i NMS_Engine.obj
 0002:00012530       ??$_Uninit_copy@V?$_Vector_const_iterator@PAVSceneGraphNode@@V?$allocator@PAVSceneGraphNode@@@std@@@std@@PAPAVSceneGraphNode@@V?$allocator@PAVSceneGraphNode@@@2@@std@@YAPAPAVSceneGraphNode@@V?$_Vector_const_iterator@PAVSceneGraphNode@@V?$allocator@PAVSceneGraphNode@@@std@@@0@0PAPAV1@AAV?$allocator@PAVSceneGraphNode@@@0@U_Scalar_ptr_iterator_tag@0@U_Range_checked_iterator_tag@0@@Z 60827530 f i NMS_Engine.obj
 0002:000126d0       ??$_Checked_base@PAPAVSceneGraphNode@@@std@@YAPAPAVSceneGraphNode@@AAPAPAV1@U_Unchanged_checked_iterator_base_type_tag@0@@Z 608276d0 f i NMS_Engine.obj
 0002:00012710       ??$_Debug_range@PAPAVSceneGraphNode@@@std@@YAXPAPAVSceneGraphNode@@0PB_WI@Z 60827710 f i NMS_Engine.obj
 0002:00012790       ??$_Debug_pointer@PAVSceneGraphNode@@@std@@YAXPAPAVSceneGraphNode@@PB_WI@Z 60827790 f i NMS_Engine.obj
 0002:00012800       ??$_Uninit_copy@PAPAVSceneGraphNode@@PAPAV1@V?$allocator@PAVSceneGraphNode@@@std@@@std@@YAPAPAVSceneGraphNode@@PAPAV1@00AAV?$allocator@PAVSceneGraphNode@@@0@U_Scalar_ptr_iterator_tag@0@U_Range_checked_iterator_tag@0@@Z 60827800 f i NMS_Engine.obj
 0002:000128e0       ??$_Construct@TSDL_Event@@T1@@std@@YAXPATSDL_Event@@ABT1@@Z 608278e0 f i NMS_Engine.obj
 0002:000129a0       ??D?$_Vector_const_iterator@PAVSceneGraphNode@@V?$allocator@PAVSceneGraphNode@@@std@@@std@@QBEABQAVSceneGraphNode@@XZ 608279a0 f i NMS_Engine.obj
 0002:00012ab0       ??G?$_Vector_const_iterator@PAVSceneGraphNode@@V?$allocator@PAVSceneGraphNode@@@std@@@std@@QBEHABV01@@Z 60827ab0 f i NMS_Engine.obj
 0002:00012b20       ??$_Debug_range2@V?$_Const_iterator@$00@?$list@TSDL_Event@@V?$allocator@TSDL_Event@@@std@@@std@@@std@@YAXV?$_Const_iterator@$00@?$list@TSDL_Event@@V?$allocator@TSDL_Event@@@std@@@0@0PB_WIUinput_iterator_tag@0@@Z 60827b20 f i NMS_Engine.obj
 0002:00012bc0       ??$_Checked_base@V?$_Vector_const_iterator@PAVSceneGraphNode@@V?$allocator@PAVSceneGraphNode@@@std@@@std@@@std@@YA?AV?$_Vector_const_iterator@PAVSceneGraphNode@@V?$allocator@PAVSceneGraphNode@@@std@@@0@AAV10@U_Unchanged_checked_iterator_base_type_tag@0@@Z 60827bc0 f i NMS_Engine.obj
 0002:00012c30       ??$_Debug_range@V?$_Vector_const_iterator@PAVSceneGraphNode@@V?$allocator@PAVSceneGraphNode@@@std@@@std@@@std@@YAXV?$_Vector_const_iterator@PAVSceneGraphNode@@V?$allocator@PAVSceneGraphNode@@@std@@@0@0PB_WI@Z 60827c30 f i NMS_Engine.obj
 0002:00012d60       ??$_Iter_cat@PAPAVSceneGraphNode@@@std@@YA?AUrandom_access_iterator_tag@0@ABQAPAVSceneGraphNode@@@Z 60827d60 f i NMS_Engine.obj
 0002:00012dd0       ??$_Debug_range2@PAPAVSceneGraphNode@@@std@@YAXPAPAVSceneGraphNode@@0PB_WIUrandom_access_iterator_tag@0@@Z 60827dd0 f i NMS_Engine.obj
 0002:00012e80       ??$_Iter_cat@V?$_Vector_const_iterator@PAVSceneGraphNode@@V?$allocator@PAVSceneGraphNode@@@std@@@std@@@std@@YA?AUrandom_access_iterator_tag@0@ABV?$_Vector_const_iterator@PAVSceneGraphNode@@V?$allocator@PAVSceneGraphNode@@@std@@@0@@Z 60827e80 f i NMS_Engine.obj
 0002:00012ef0       ??$_Debug_range2@V?$_Vector_const_iterator@PAVSceneGraphNode@@V?$allocator@PAVSceneGraphNode@@@std@@@std@@@std@@YAXV?$_Vector_const_iterator@PAVSceneGraphNode@@V?$allocator@PAVSceneGraphNode@@@std@@@0@0PB_WIUrandom_access_iterator_tag@0@@Z 60827ef0 f i NMS_Engine.obj
 0002:00013020       ??$_Debug_pointer@V?$_Vector_const_iterator@PAVSceneGraphNode@@V?$allocator@PAVSceneGraphNode@@@std@@@std@@@std@@YAXAAV?$_Vector_const_iterator@PAVSceneGraphNode@@V?$allocator@PAVSceneGraphNode@@@std@@@0@PB_WI@Z 60828020 f i NMS_Engine.obj
 0002:00013050       ?onKeyPressed@NMS_Event@@QAEXP6AXW4SDLKey@@@Z@Z 60828050 f i NMS_Event.obj
 0002:000130b0       ??0NMS_Event@@AAE@XZ       608280b0 f   NMS_Event.obj
 0002:00013190       ?getInstance@NMS_Event@@SAAAV1@XZ 60828190 f   NMS_Event.obj
 0002:00013290       ?destroy@NMS_Event@@SAXXZ  60828290 f   NMS_Event.obj
 0002:00013340       ??_GNMS_Event@@QAEPAXI@Z   60828340 f i NMS_Event.obj
 0002:000133b0       ?pollEvents@NMS_Event@@QAEXXZ 608283b0 f   NMS_Event.obj
 0002:00013480       ?processEvents@NMS_Event@@QAEXXZ 60828480 f   NMS_Event.obj
 0002:00013550       ?handleEvent@NMS_Event@@QAEXTSDL_Event@@@Z 60828550 f   NMS_Event.obj
 0002:00013650       ??0?$list@TSDL_Event@@V?$allocator@TSDL_Event@@@std@@@std@@QAE@XZ 60828650 f i NMS_Event.obj
 0002:00013720       ?size@?$list@TSDL_Event@@V?$allocator@TSDL_Event@@@std@@@std@@QBEIXZ 60828720 f i NMS_Event.obj
 0002:00013760       ?front@?$list@TSDL_Event@@V?$allocator@TSDL_Event@@@std@@@std@@QAEAATSDL_Event@@XZ 60828760 f i NMS_Event.obj
 0002:00013840       ?pop_front@?$list@TSDL_Event@@V?$allocator@TSDL_Event@@@std@@@std@@QAEXXZ 60828840 f i NMS_Event.obj
 0002:00013950       ?push_back@?$list@TSDL_Event@@V?$allocator@TSDL_Event@@@std@@@std@@QAEXABTSDL_Event@@@Z 60828950 f i NMS_Event.obj
 0002:00013a50       ??0?$function1@XH@boost@@QAE@XZ 60828a50 f i NMS_Event.obj
 0002:00013ab0       ??0?$function1@XW4SDLKey@@@boost@@QAE@XZ 60828ab0 f i NMS_Event.obj
 0002:00013b10       ?end@?$list@TSDL_Event@@V?$allocator@TSDL_Event@@@std@@@std@@QAE?AV?$_Iterator@$00@12@XZ 60828b10 f i NMS_Event.obj
 0002:00013ba0       ??0?$allocator@TSDL_Event@@@std@@QAE@XZ 60828ba0 f i NMS_Event.obj
 0002:00013be0       ??D?$_Iterator@$00@?$list@TSDL_Event@@V?$allocator@TSDL_Event@@@std@@@std@@QBEAATSDL_Event@@XZ 60828be0 f i NMS_Event.obj
 0002:00013c30       ??R?$function1@XH@boost@@QBEXH@Z 60828c30 f i NMS_Event.obj
 0002:00013d40       ??0bad_function_call@boost@@QAE@XZ 60828d40 f i NMS_Event.obj
 0002:00013e30       ??0runtime_error@std@@QAE@ABV?$basic_string@DU?$char_traits@D@std@@V?$allocator@D@2@@1@@Z 60828e30 f i NMS_Event.obj
 0002:00013f10       ??1runtime_error@std@@UAE@XZ 60828f10 f i NMS_Event.obj
 0002:00013f90       ?what@runtime_error@std@@UBEPBDXZ 60828f90 f i NMS_Event.obj
 0002:00013ff0       ??_Gruntime_error@std@@UAEPAXI@Z 60828ff0 f i NMS_Event.obj
 0002:00013ff0       ??_Eruntime_error@std@@UAEPAXI@Z 60828ff0 f i NMS_Event.obj
 0002:00014060       ??_Gbad_function_call@boost@@UAEPAXI@Z 60829060 f i NMS_Event.obj
 0002:00014060       ??_Ebad_function_call@boost@@UAEPAXI@Z 60829060 f i NMS_Event.obj
 0002:000140d0       ??1bad_function_call@boost@@UAE@XZ 608290d0 f i NMS_Event.obj
 0002:00014120       ??R?$function1@XW4SDLKey@@@boost@@QBEXW4SDLKey@@@Z 60829120 f i NMS_Event.obj
 0002:00014230       ??$?4P6AXW4SDLKey@@@Z@?$function1@XW4SDLKey@@@boost@@QAEAAV01@P6AXW4SDLKey@@@Z@Z 60829230 f i NMS_Event.obj
 0002:00014310       ??$throw_exception@Vbad_function_call@boost@@@boost@@YAXABVbad_function_call@0@@Z 60829310 f i NMS_Event.obj
 0002:00014410       ?throw_exception_assert_compatibility@boost@@YAXABVexception@std@@@Z 60829410 f i NMS_Event.obj
 0002:00014440       ??0runtime_error@std@@QAE@ABV01@@Z 60829440 f i NMS_Event.obj
 0002:00014520       ??$assign_to@P6AXW4SDLKey@@@Z@?$function1@XW4SDLKey@@@boost@@AAEXP6AXW4SDLKey@@@Z@Z 60829520 f i NMS_Event.obj
 0002:000145d0       ??0?$clone_impl@U?$error_info_injector@Vbad_function_call@boost@@@exception_detail@boost@@@exception_detail@boost@@QAE@ABV012@@Z 608295d0 f i NMS_Event.obj
 0002:00014690       ??0?$error_info_injector@Vbad_function_call@boost@@@exception_detail@boost@@QAE@ABU012@@Z 60829690 f i NMS_Event.obj
 0002:00014790       ??0bad_function_call@boost@@QAE@ABV01@@Z 60829790 f i NMS_Event.obj
 0002:00014800       ??0exception@boost@@QAE@ABV01@@Z 60829800 f i NMS_Event.obj
 0002:000148a0       ??0clone_base@exception_detail@boost@@QAE@ABV012@@Z 608298a0 f i NMS_Event.obj
 0002:000148f0       ??_Gclone_base@exception_detail@boost@@UAEPAXI@Z 608298f0 f i NMS_Event.obj
 0002:000148f0       ??_Eclone_base@exception_detail@boost@@UAEPAXI@Z 608298f0 f i NMS_Event.obj
 0002:00014960       ??1clone_base@exception_detail@boost@@UAE@XZ 60829960 f i NMS_Event.obj
 0002:000149a0       ??_G?$clone_impl@U?$error_info_injector@Vbad_function_call@boost@@@exception_detail@boost@@@exception_detail@boost@@UAEPAXI@Z 608299a0 f i NMS_Event.obj
 0002:000149a0       ??_E?$clone_impl@U?$error_info_injector@Vbad_function_call@boost@@@exception_detail@boost@@@exception_detail@boost@@UAEPAXI@Z 608299a0 f i NMS_Event.obj
 0002:00014a10       ??_E?$error_info_injector@Vbad_function_call@boost@@@exception_detail@boost@@UAEPAXI@Z 60829a10 f i NMS_Event.obj
 0002:00014a10       ??_G?$error_info_injector@Vbad_function_call@boost@@@exception_detail@boost@@UAEPAXI@Z 60829a10 f i NMS_Event.obj
 0002:00014a80       ??0?$refcount_ptr@Uerror_info_container@exception_detail@boost@@@exception_detail@boost@@QAE@ABV012@@Z 60829a80 f i NMS_Event.obj
 0002:00014af0       ?add_ref@?$refcount_ptr@Uerror_info_container@exception_detail@boost@@@exception_detail@boost@@AAEXXZ 60829af0 f i NMS_Event.obj
 0002:00014b70       ??1?$error_info_injector@Vbad_function_call@boost@@@exception_detail@boost@@UAE@XZ 60829b70 f i NMS_Event.obj
 0002:00014bf0       ??1exception@boost@@MAE@XZ 60829bf0 f i NMS_Event.obj
 0002:00014c50       ??1?$refcount_ptr@Uerror_info_container@exception_detail@boost@@@exception_detail@boost@@QAE@XZ 60829c50 f i NMS_Event.obj
 0002:00014ca0       ?release@?$refcount_ptr@Uerror_info_container@exception_detail@boost@@@exception_detail@boost@@AAEXXZ 60829ca0 f i NMS_Event.obj
 0002:00014d30       ??1?$clone_impl@U?$error_info_injector@Vbad_function_call@boost@@@exception_detail@boost@@@exception_detail@boost@@UAE@XZ 60829d30 f i NMS_Event.obj
 0002:00014db0       ?clone@?$clone_impl@U?$error_info_injector@Vbad_function_call@boost@@@exception_detail@boost@@@exception_detail@boost@@EBEPBVclone_base@23@XZ 60829db0 f i NMS_Event.obj
 0002:00014ed0       ?rethrow@?$clone_impl@U?$error_info_injector@Vbad_function_call@boost@@@exception_detail@boost@@@exception_detail@boost@@EBEXXZ 60829ed0 f i NMS_Event.obj
 0002:00014f40       ?manage@?$functor_manager@P6AXW4SDLKey@@@Z@function@detail@boost@@SAXABTfunction_buffer@234@AAT5234@W4functor_manager_operation_type@234@@Z 60829f40 f i NMS_Event.obj
 0002:00014ff0       ?invoke@?$void_function_invoker1@P6AXW4SDLKey@@@ZXW41@@function@detail@boost@@SAXAATfunction_buffer@234@W4SDLKey@@@Z 60829ff0 f i NMS_Event.obj
 0002:00015050       ?manager@?$functor_manager@P6AXW4SDLKey@@@Z@function@detail@boost@@CAXABTfunction_buffer@234@AAT5234@W4functor_manager_operation_type@234@Ufunction_ptr_tag@234@@Z 6082a050 f i NMS_Event.obj
 0002:000150b0       ?manage_ptr@?$functor_manager_common@P6AXW4SDLKey@@@Z@function@detail@boost@@SAXABTfunction_buffer@234@AAT5234@W4functor_manager_operation_type@234@@Z 6082a0b0 f i NMS_Event.obj
 0002:000151b0       ??$enable_error_info@Vbad_function_call@boost@@@boost@@YA?AU?$error_info_injector@Vbad_function_call@boost@@@exception_detail@0@ABVbad_function_call@0@@Z 6082a1b0 f i NMS_Event.obj
 0002:00015220       ??$enable_current_exception@U?$error_info_injector@Vbad_function_call@boost@@@exception_detail@boost@@@boost@@YA?AV?$clone_impl@U?$error_info_injector@Vbad_function_call@boost@@@exception_detail@boost@@@exception_detail@0@ABU?$error_info_injector@Vbad_function_call@boost@@@20@@Z 6082a220 f i NMS_Event.obj
 0002:00015290       ??$assign_to@P6AXW4SDLKey@@@Z@?$basic_vtable1@XW4SDLKey@@@function@detail@boost@@QAE_NP6AXW4SDLKey@@@ZAATfunction_buffer@123@@Z 6082a290 f i NMS_Event.obj
 0002:00015300       ??0?$error_info_injector@Vbad_function_call@boost@@@exception_detail@boost@@QAE@ABVbad_function_call@2@@Z 6082a300 f i NMS_Event.obj
 0002:000153d0       ??0exception@boost@@IAE@XZ 6082a3d0 f i NMS_Event.obj
 0002:00015460       ??0?$refcount_ptr@Uerror_info_container@exception_detail@boost@@@exception_detail@boost@@QAE@XZ 6082a460 f i NMS_Event.obj
 0002:000154b0       ??0?$clone_impl@U?$error_info_injector@Vbad_function_call@boost@@@exception_detail@boost@@@exception_detail@boost@@QAE@ABU?$error_info_injector@Vbad_function_call@boost@@@12@@Z 6082a4b0 f i NMS_Event.obj
 0002:000155f0       ?copy_boost_exception@exception_detail@boost@@YAXPAVexception@2@PBV32@@Z 6082a5f0 f i NMS_Event.obj
 0002:00015780       ??4?$refcount_ptr@Uerror_info_container@exception_detail@boost@@@exception_detail@boost@@QAEAAV012@ABV012@@Z 6082a780 f i NMS_Event.obj
 0002:000157e0       ?get@?$refcount_ptr@Uerror_info_container@exception_detail@boost@@@exception_detail@boost@@QBEPAUerror_info_container@23@XZ 6082a7e0 f i NMS_Event.obj
 0002:00015820       ?adopt@?$refcount_ptr@Uerror_info_container@exception_detail@boost@@@exception_detail@boost@@QAEXPAUerror_info_container@23@@Z 6082a820 f i NMS_Event.obj
 0002:00015890       ??0clone_base@exception_detail@boost@@QAE@XZ 6082a890 f i NMS_Event.obj
 0002:000158e0       ??$assign_to@P6AXW4SDLKey@@@Z@?$basic_vtable1@XW4SDLKey@@@function@detail@boost@@AAE_NP6AXW4SDLKey@@@ZAATfunction_buffer@123@Ufunction_ptr_tag@123@@Z 6082a8e0 f i NMS_Event.obj
 0002:00015960       ??_E?$clone_impl@U?$error_info_injector@Vbad_function_call@boost@@@exception_detail@boost@@@exception_detail@boost@@WCM@AEPAXI@Z 6082a960 f i NMS_Event.obj
 0002:00015970       ??_E?$error_info_injector@Vbad_function_call@boost@@@exception_detail@boost@@WCM@AEPAXI@Z 6082a970 f i NMS_Event.obj
 0002:00015980       ??_E?$clone_impl@U?$error_info_injector@Vbad_function_call@boost@@@exception_detail@boost@@@exception_detail@boost@@WEA@AEPAXI@Z 6082a980 f i NMS_Event.obj
 0002:00015990       ??0NMS_Framework@@QAE@XZ   6082a990 f   NMS_Framework.obj
 0002:00015a50       ?NMSInit@NMS_Framework@@QAE_NHHHPAD_N@Z 6082aa50 f   NMS_Framework.obj
 0002:00015cc0       ?NMSQuit@NMS_Framework@@QAEXH@Z 6082acc0 f   NMS_Framework.obj
 0002:00015d00       ?CalculateFrameRate@NMS_Framework@@QAEXXZ 6082ad00 f   NMS_Framework.obj
 0002:00015e10       ?run@NMS_Framework@@QAEXXZ 6082ae10 f   NMS_Framework.obj
 0002:00015ea0       ?cleanup@NMS_Framework@@QAEXXZ 6082aea0 f   NMS_Framework.obj
 0002:00015f70       ??_GSceneGraphNode@@QAEPAXI@Z 6082af70 f i NMS_Framework.obj
 0002:00015fe0       ?render@NMS_Framework@@QAEXXZ 6082afe0 f   NMS_Framework.obj
 0002:00016040       ?getScene@NMS_Framework@@QAEPAVSceneGraphNode@@XZ 6082b040 f   NMS_Framework.obj
 0002:00016080       ?enableWireframe@NMS_Framework@@QAEX_N@Z 6082b080 f   NMS_Framework.obj
 0002:00016120       ??$onQuit@VNMS_Framework@@@NMS_Event@@QAEXPAVNMS_Framework@@P81@AEXH@Z@Z 6082b120 f i NMS_Framework.obj
 0002:000161b0       ??$mem_fun@XVNMS_Framework@@H@std@@YA?AV?$mem_fun1_t@XVNMS_Framework@@H@0@P8NMS_Framework@@AEXH@Z@Z 6082b1b0 f i NMS_Framework.obj
 0002:00016210       ??$bind1st@V?$mem_fun1_t@XVNMS_Framework@@H@std@@PAVNMS_Framework@@@std@@YA?AV?$binder1st@V?$mem_fun1_t@XVNMS_Framework@@H@std@@@0@ABV?$mem_fun1_t@XVNMS_Framework@@H@0@ABQAVNMS_Framework@@@Z 6082b210 f i NMS_Framework.obj
 0002:000162b0       ??$?4V?$binder1st@V?$mem_fun1_t@XVNMS_Framework@@H@std@@@std@@@?$function1@XH@boost@@QAEAAV01@V?$binder1st@V?$mem_fun1_t@XVNMS_Framework@@H@std@@@std@@@Z 6082b2b0 f i NMS_Framework.obj
 0002:00016390       ??0?$mem_fun1_t@XVNMS_Framework@@H@std@@QAE@P8NMS_Framework@@AEXH@Z@Z 6082b390 f i NMS_Framework.obj
 0002:000163e0       ??0?$binder1st@V?$mem_fun1_t@XVNMS_Framework@@H@std@@@std@@QAE@ABV?$mem_fun1_t@XVNMS_Framework@@H@1@ABQAVNMS_Framework@@@Z 6082b3e0 f i NMS_Framework.obj
 0002:00016440       ??$assign_to@V?$binder1st@V?$mem_fun1_t@XVNMS_Framework@@H@std@@@std@@@?$function1@XH@boost@@AAEXV?$binder1st@V?$mem_fun1_t@XVNMS_Framework@@H@std@@@std@@@Z 6082b440 f i NMS_Framework.obj
 0002:000164f0       ?manage@?$functor_manager@V?$binder1st@V?$mem_fun1_t@XVNMS_Framework@@H@std@@@std@@@function@detail@boost@@SAXABTfunction_buffer@234@AAT5234@W4functor_manager_operation_type@234@@Z 6082b4f0 f i NMS_Framework.obj
 0002:000165a0       ?invoke@?$void_function_obj_invoker1@V?$binder1st@V?$mem_fun1_t@XVNMS_Framework@@H@std@@@std@@XH@function@detail@boost@@SAXAATfunction_buffer@234@H@Z 6082b5a0 f i NMS_Framework.obj
 0002:00016610       ??R?$binder1st@V?$mem_fun1_t@XVNMS_Framework@@H@std@@@std@@QBEXAAH@Z 6082b610 f i NMS_Framework.obj
 0002:00016680       ?manager@?$functor_manager@V?$binder1st@V?$mem_fun1_t@XVNMS_Framework@@H@std@@@std@@@function@detail@boost@@CAXABTfunction_buffer@234@AAT5234@W4functor_manager_operation_type@234@Ufunction_obj_tag@234@@Z 6082b680 f i NMS_Framework.obj
 0002:000166f0       ??R?$mem_fun1_t@XVNMS_Framework@@H@std@@QBEXPAVNMS_Framework@@H@Z 6082b6f0 f i NMS_Framework.obj
 0002:00016760       ?manager@?$functor_manager@V?$binder1st@V?$mem_fun1_t@XVNMS_Framework@@H@std@@@std@@@function@detail@boost@@CAXABTfunction_buffer@234@AAT5234@W4functor_manager_operation_type@234@U?$bool_@$00@mpl@4@@Z 6082b760 f i NMS_Framework.obj
 0002:000167c0       ?manage_small@?$functor_manager_common@V?$binder1st@V?$mem_fun1_t@XVNMS_Framework@@H@std@@@std@@@function@detail@boost@@SAXABTfunction_buffer@234@AAT5234@W4functor_manager_operation_type@234@@Z 6082b7c0 f i NMS_Framework.obj
 0002:000168f0       ??$assign_to@V?$binder1st@V?$mem_fun1_t@XVNMS_Framework@@H@std@@@std@@@?$basic_vtable1@XH@function@detail@boost@@QAE_NV?$binder1st@V?$mem_fun1_t@XVNMS_Framework@@H@std@@@std@@AATfunction_buffer@123@@Z 6082b8f0 f i NMS_Framework.obj
 0002:00016970       ??$assign_to@V?$binder1st@V?$mem_fun1_t@XVNMS_Framework@@H@std@@@std@@@?$basic_vtable1@XH@function@detail@boost@@AAE_NV?$binder1st@V?$mem_fun1_t@XVNMS_Framework@@H@std@@@std@@AATfunction_buffer@123@Ufunction_obj_tag@123@@Z 6082b970 f i NMS_Framework.obj
 0002:00016a20       ?has_empty_target@function@detail@boost@@YA_NZZ 6082ba20 f i NMS_Framework.obj
 0002:00016a50       ??$addressof@V?$binder1st@V?$mem_fun1_t@XVNMS_Framework@@H@std@@@std@@@boost@@YAPAV?$binder1st@V?$mem_fun1_t@XVNMS_Framework@@H@std@@@std@@AAV12@@Z 6082ba50 f i NMS_Framework.obj
 0002:00016ac0       ??$assign_functor@V?$binder1st@V?$mem_fun1_t@XVNMS_Framework@@H@std@@@std@@@?$basic_vtable1@XH@function@detail@boost@@AAEXV?$binder1st@V?$mem_fun1_t@XVNMS_Framework@@H@std@@@std@@AATfunction_buffer@123@U?$bool_@$00@mpl@3@@Z 6082bac0 f i NMS_Framework.obj
 0002:00016b60       ?f@?$addressof_impl@V?$binder1st@V?$mem_fun1_t@XVNMS_Framework@@H@std@@@std@@@detail@boost@@SAPAV?$binder1st@V?$mem_fun1_t@XVNMS_Framework@@H@std@@@std@@AAV45@J@Z 6082bb60 f i NMS_Framework.obj
 0002:00016ba0       ??0?$addr_impl_ref@V?$binder1st@V?$mem_fun1_t@XVNMS_Framework@@H@std@@@std@@@detail@boost@@QAE@AAV?$binder1st@V?$mem_fun1_t@XVNMS_Framework@@H@std@@@std@@@Z 6082bba0 f i NMS_Framework.obj
 0002:00016bf0       ??B?$addr_impl_ref@V?$binder1st@V?$mem_fun1_t@XVNMS_Framework@@H@std@@@std@@@detail@boost@@QBEAAV?$binder1st@V?$mem_fun1_t@XVNMS_Framework@@H@std@@@std@@XZ 6082bbf0 f i NMS_Framework.obj
 0002:00016c30       ??0LightSource@@QAE@XZ     6082bc30 f   NMS_LightSystem.obj
 0002:00016d60       ?getAttFact@LightSource@@QAEMXZ 6082bd60 f   NMS_LightSystem.obj
 0002:00016da0       ?getAttType@LightSource@@QAEIXZ 6082bda0 f   NMS_LightSystem.obj
 0002:00016de0       ?getIntDis@LightSource@@QAEMXZ 6082bde0 f   NMS_LightSystem.obj
 0002:00016e20       ?getLightNumber@LightSource@@QAEIXZ 6082be20 f   NMS_LightSystem.obj
 0002:00016e60       ?getLightValue@LightSource@@QAE?AVVector@@XZ 6082be60 f   NMS_LightSystem.obj
 0002:00016ee0       ?setLightNumber@LightSource@@QAEXI@Z 6082bee0 f   NMS_LightSystem.obj
 0002:00016f30       ?setLightValue@LightSource@@QAEXPBVVector@@@Z 6082bf30 f   NMS_LightSystem.obj
 0002:00016f90       ?setIntDis@LightSource@@QAEXM@Z 6082bf90 f   NMS_LightSystem.obj
 0002:00016fe0       ?setAttType@LightSource@@QAEXI@Z 6082bfe0 f   NMS_LightSystem.obj
 0002:00017030       ?setAttFact@LightSource@@QAEXM@Z 6082c030 f   NMS_LightSystem.obj
 0002:00017080       ??0NMS_LightSystem@@QAE@XZ 6082c080 f   NMS_LightSystem.obj
 0002:000170c0       ?Enable@NMS_LightSystem@@QAEXH@Z 6082c0c0 f   NMS_LightSystem.obj
 0002:00017160       ?Disable@NMS_LightSystem@@QAEXXZ 6082c160 f   NMS_LightSystem.obj
 0002:000171c0       ?setGlobalAmbient@NMS_LightSystem@@QAEXPBVVector@@@Z 6082c1c0 f   NMS_LightSystem.obj
 0002:000172a0       ?defineLight@NMS_LightSystem@@QAEXVLightSource@@@Z 6082c2a0 f   NMS_LightSystem.obj
 0002:00017830       ??0SceneGraphNode@@QAE@XZ  6082c830 f   NMS_SceneGraph.obj
 0002:00017930       ?addChild@SceneGraphNode@@QAEXPAV1@@Z 6082c930 f   NMS_SceneGraph.obj
 0002:00017990       ?traverse_df@SceneGraphNode@@QAEXPAVSceneGraphVisitor@@@Z 6082c990 f   NMS_SceneGraph.obj
 0002:00017a80       ?traverse_df@SceneGraphNode@@QAEXPAVSceneGraphVisitor@@PAVMatrix@@@Z 6082ca80 f   NMS_SceneGraph.obj
 0002:00017b70       ??0TransformationNode@@QAE@XZ 6082cb70 f   NMS_SceneGraph.obj
 0002:00017c30       ??0TransformationNode@@QAE@VMatrix@@@Z 6082cc30 f   NMS_SceneGraph.obj
 0002:00017d10       ?multiply@TransformationNode@@QAEXVMatrix@@@Z 6082cd10 f   NMS_SceneGraph.obj
 0002:00017e10       ?before@TransformationNode@@UAEXPAVSceneGraphVisitor@@PAVMatrix@@@Z 6082ce10 f   NMS_SceneGraph.obj
 0002:00017f00       ?after@TransformationNode@@UAEXPAVSceneGraphVisitor@@PAVMatrix@@@Z 6082cf00 f   NMS_SceneGraph.obj
 0002:00018030       ??0GeometryNode@@QAE@PAVMesh@@@Z 6082d030 f   NMS_SceneGraph.obj
 0002:000180a0       ?before@GeometryNode@@UAEXPAVSceneGraphVisitor@@PAVMatrix@@@Z 6082d0a0 f   NMS_SceneGraph.obj
 0002:00018120       ?after@GeometryNode@@UAEXPAVSceneGraphVisitor@@PAVMatrix@@@Z 6082d120 f   NMS_SceneGraph.obj
 0002:000181b0       ?render@Mesh@@QAEXXZ       6082d1b0 f   NMS_SceneGraph.obj
 0002:00018720       ??0?$vector@PAVSceneGraphNode@@V?$allocator@PAVSceneGraphNode@@@std@@@std@@QAE@XZ 6082d720 f i NMS_SceneGraph.obj
 0002:000187e0       ??A?$vector@PAVSceneGraphNode@@V?$allocator@PAVSceneGraphNode@@@std@@@std@@QAEAAPAVSceneGraphNode@@I@Z 6082d7e0 f i NMS_SceneGraph.obj
 0002:00018960       ?push_back@?$vector@PAVSceneGraphNode@@V?$allocator@PAVSceneGraphNode@@@std@@@std@@QAEXABQAVSceneGraphNode@@@Z 6082d960 f i NMS_SceneGraph.obj
 0002:00018ad0       ?insert@?$vector@PAVSceneGraphNode@@V?$allocator@PAVSceneGraphNode@@@std@@@std@@QAE?AV?$_Vector_iterator@PAVSceneGraphNode@@V?$allocator@PAVSceneGraphNode@@@std@@@2@V?$_Vector_const_iterator@PAVSceneGraphNode@@V?$allocator@PAVSceneGraphNode@@@std@@@2@ABQAVSceneGraphNode@@@Z 6082dad0 f i NMS_SceneGraph.obj
 0002:00018cd0       ?_Ufill@?$vector@PAVSceneGraphNode@@V?$allocator@PAVSceneGraphNode@@@std@@@std@@IAEPAPAVSceneGraphNode@@PAPAV3@IABQAV3@@Z 6082dcd0 f i NMS_SceneGraph.obj
 0002:00018d50       ??0?$allocator@PAVSceneGraphNode@@@std@@QAE@XZ 6082dd50 f i NMS_SceneGraph.obj
 0002:00018d90       ?_Insert_n@?$vector@PAVSceneGraphNode@@V?$allocator@PAVSceneGraphNode@@@std@@@std@@IAEXV?$_Vector_const_iterator@PAVSceneGraphNode@@V?$allocator@PAVSceneGraphNode@@@std@@@2@IABQAVSceneGraphNode@@@Z 6082dd90 f i NMS_SceneGraph.obj
 0002:000192f0       ??H?$_Vector_iterator@PAVSceneGraphNode@@V?$allocator@PAVSceneGraphNode@@@std@@@std@@QBE?AV01@H@Z 6082e2f0 f i NMS_SceneGraph.obj
 0002:00019410       ??0?$_Vector_iterator@PAVSceneGraphNode@@V?$allocator@PAVSceneGraphNode@@@std@@@std@@QAE@ABV01@@Z 6082e410 f i NMS_SceneGraph.obj
 0002:00019470       ??Y?$_Vector_iterator@PAVSceneGraphNode@@V?$allocator@PAVSceneGraphNode@@@std@@@std@@QAEAAV01@H@Z 6082e470 f i NMS_SceneGraph.obj
 0002:000194d0       ??Y?$_Vector_const_iterator@PAVSceneGraphNode@@V?$allocator@PAVSceneGraphNode@@@std@@@std@@QAEAAV01@H@Z 6082e4d0 f i NMS_SceneGraph.obj
 0002:00019660       ?_Getmycont@_Iterator_base@std@@QBEPBV_Container_base_secure@2@XZ 6082e660 f i NMS_SceneGraph.obj
 0002:000196a0       ?_Has_container@_Iterator_base@std@@QBE_NXZ 6082e6a0 f i NMS_SceneGraph.obj
 0002:000196f0       ??$unchecked_uninitialized_fill_n@PAPAVSceneGraphNode@@IPAV1@V?$allocator@PAVSceneGraphNode@@@std@@@stdext@@YAXPAPAVSceneGraphNode@@IABQAV1@AAV?$allocator@PAVSceneGraphNode@@@std@@@Z 6082e6f0 f i NMS_SceneGraph.obj
 0002:00019790       ??$_Umove@PAPAVSceneGraphNode@@@?$vector@PAVSceneGraphNode@@V?$allocator@PAVSceneGraphNode@@@std@@@std@@IAEPAPAVSceneGraphNode@@PAPAV2@00@Z 6082e790 f i NMS_SceneGraph.obj
 0002:00019800       ??$fill@PAPAVSceneGraphNode@@PAV1@@std@@YAXPAPAVSceneGraphNode@@0ABQAV1@@Z 6082e800 f i NMS_SceneGraph.obj
 0002:00019870       ??$_Unchecked_move_backward@PAPAVSceneGraphNode@@PAPAV1@@stdext@@YAPAPAVSceneGraphNode@@PAPAV1@00@Z 6082e870 f i NMS_SceneGraph.obj
 0002:00019940       ??$_Uninit_fill_n@PAPAVSceneGraphNode@@IPAV1@V?$allocator@PAVSceneGraphNode@@@std@@@std@@YAXPAPAVSceneGraphNode@@IABQAV1@AAV?$allocator@PAVSceneGraphNode@@@0@U_Scalar_ptr_iterator_tag@0@U_Range_checked_iterator_tag@0@@Z 6082e940 f i NMS_SceneGraph.obj
 0002:000199a0       ??$_Unchecked_uninitialized_move@PAPAVSceneGraphNode@@PAPAV1@V?$allocator@PAVSceneGraphNode@@@std@@@stdext@@YAPAPAVSceneGraphNode@@PAPAV1@00AAV?$allocator@PAVSceneGraphNode@@@std@@@Z 6082e9a0 f i NMS_SceneGraph.obj
 0002:00019a50       ??$_Fill@PAPAVSceneGraphNode@@PAV1@@std@@YAXPAPAVSceneGraphNode@@0ABQAV1@@Z 6082ea50 f i NMS_SceneGraph.obj
 0002:00019ae0       ??$_Move_cat@PAPAVSceneGraphNode@@@std@@YA?AU_Undefined_move_tag@0@ABQAPAVSceneGraphNode@@@Z 6082eae0 f i NMS_SceneGraph.obj
 0002:00019b50       ??$_Move_backward_opt@PAPAVSceneGraphNode@@PAPAV1@Urandom_access_iterator_tag@std@@U_Undefined_move_tag@3@@std@@YAPAPAVSceneGraphNode@@PAPAV1@00Urandom_access_iterator_tag@0@U_Undefined_move_tag@0@U_Range_checked_iterator_tag@0@@Z 6082eb50 f i NMS_SceneGraph.obj
 0002:00019bf0       ??$unchecked_fill_n@PAPAVSceneGraphNode@@IPAV1@@stdext@@YAXPAPAVSceneGraphNode@@IABQAV1@@Z 6082ebf0 f i NMS_SceneGraph.obj
 0002:00019c80       ??$_Uninit_move@PAPAVSceneGraphNode@@PAPAV1@V?$allocator@PAVSceneGraphNode@@@std@@U_Undefined_move_tag@3@@std@@YAPAPAVSceneGraphNode@@PAPAV1@00AAV?$allocator@PAVSceneGraphNode@@@0@U_Undefined_move_tag@0@U_Range_checked_iterator_tag@0@@Z 6082ec80 f i NMS_SceneGraph.obj
 0002:00019ce0       ??$_Copy_backward_opt@PAPAVSceneGraphNode@@PAPAV1@Urandom_access_iterator_tag@std@@@std@@YAPAPAVSceneGraphNode@@PAPAV1@00Urandom_access_iterator_tag@0@U_Scalar_ptr_iterator_tag@0@U_Range_checked_iterator_tag@0@@Z 6082ece0 f i NMS_SceneGraph.obj
 0002:00019dd0       ??$_Fill_n@PAPAVSceneGraphNode@@IPAV1@@std@@YAXPAPAVSceneGraphNode@@IABQAV1@Urandom_access_iterator_tag@0@U_Range_checked_iterator_tag@0@@Z 6082edd0 f i NMS_SceneGraph.obj
 0002:00019e60       ??$_Fill_n@PAPAVSceneGraphNode@@IPAV1@@std@@YAXPAPAVSceneGraphNode@@IABQAV1@U_Range_checked_iterator_tag@0@@Z 6082ee60 f i NMS_SceneGraph.obj
 0002:00019ec0       ??0NMS_SceneRenderer@@QAE@XZ 6082eec0 f   NMS_SceneRenderer.obj
 0002:00019f60       ?initRendering@NMS_SceneRenderer@@QAE_NXZ 6082ef60 f   NMS_SceneRenderer.obj
 0002:0001a210       ?up@NMS_SceneRenderer@@QAEXXZ 6082f210 f   NMS_SceneRenderer.obj
 0002:0001a270       ?down@NMS_SceneRenderer@@QAEXXZ 6082f270 f   NMS_SceneRenderer.obj
 0002:0001a310       ?run@NMS_SceneRenderer@@UAEHXZ 6082f310 f   NMS_SceneRenderer.obj
 0002:0001a380       ?renderingLoop@NMS_SceneRenderer@@QAEHXZ 6082f380 f   NMS_SceneRenderer.obj
 0002:0001a3f0       ?render@NMS_SceneRenderer@@QAEXXZ 6082f3f0 f   NMS_SceneRenderer.obj
 0002:0001a4c0       ?setScene@NMS_SceneRenderer@@QAEXPAVSceneGraphNode@@PAUSDL_mutex@@@Z 6082f4c0 f   NMS_SceneRenderer.obj
 0002:0001a510       ?sg_before@NMS_SceneRenderer@@UAEXVMatrix@@VMesh@@@Z 6082f510 f   NMS_SceneRenderer.obj
 0002:0001a660       ?sg_after@NMS_SceneRenderer@@UAEXVMatrix@@VMesh@@@Z 6082f660 f   NMS_SceneRenderer.obj
 0002:0001a6c0       ??0NMS_TextureManager@@QAE@XZ 6082f6c0 f   NMS_TextureManager.obj
 0002:0001a720       ??1NMS_TextureManager@@QAE@XZ 6082f720 f   NMS_TextureManager.obj
 0002:0001a780       ??1?$map@PADUtextStruct@@U?$less@PAD@std@@V?$allocator@U?$pair@QADUtextStruct@@@std@@@3@@std@@QAE@XZ 6082f780 f i NMS_TextureManager.obj
 0002:0001a7d0       ?GetSingleton@NMS_TextureManager@@SAAAV1@XZ 6082f7d0 f   NMS_TextureManager.obj
 0002:0001a8d0       ?Initialize@NMS_TextureManager@@CAXXZ 6082f8d0 f   NMS_TextureManager.obj
 0002:0001a950       ?Destroy@NMS_TextureManager@@SAXXZ 6082f950 f   NMS_TextureManager.obj
 0002:0001aa40       ??_GNMS_TextureManager@@QAEPAXI@Z 6082fa40 f i NMS_TextureManager.obj
 0002:0001aab0       ?LoadTexture@NMS_TextureManager@@QAEHPBDPAD@Z 6082fab0 f   NMS_TextureManager.obj
 0002:0001b2b0       ?FreeTexture@NMS_TextureManager@@QAEXPAD@Z 608302b0 f   NMS_TextureManager.obj
 0002:0001b4a0       ?FreeAll@NMS_TextureManager@@QAEXXZ 608304a0 f   NMS_TextureManager.obj
 0002:0001b6c0       ??4iterator@?$_Tree@V?$_Tmap_traits@PADUtextStruct@@U?$less@PAD@std@@V?$allocator@U?$pair@QADUtextStruct@@@std@@@3@$0A@@std@@@std@@QAEAAV012@ABV012@@Z 608306c0 f i NMS_TextureManager.obj
 0002:0001b720       ??4const_iterator@?$_Tree@V?$_Tmap_traits@PADUtextStruct@@U?$less@PAD@std@@V?$allocator@U?$pair@QADUtextStruct@@@std@@@3@$0A@@std@@@std@@QAEAAV012@ABV012@@Z 60830720 f i NMS_TextureManager.obj
 0002:0001b790       ??4?$_Bidit@U?$pair@QADUtextStruct@@@std@@HPBU12@ABU12@@std@@QAEAAU01@ABU01@@Z 60830790 f i NMS_TextureManager.obj
 0002:0001b7f0       ??4?$_Iterator_with_base@Ubidirectional_iterator_tag@std@@U?$pair@QADUtextStruct@@@2@HPBU32@ABU32@V_Iterator_base@2@@std@@QAEAAU01@ABU01@@Z 608307f0 f i NMS_TextureManager.obj
 0002:0001b850       ?checkForHash@NMS_TextureManager@@AAE?AUtextStruct@@PAD0@Z 60830850 f   NMS_TextureManager.obj
 0002:0001bb80       ??0?$map@PADUtextStruct@@U?$less@PAD@std@@V?$allocator@U?$pair@QADUtextStruct@@@std@@@3@@std@@QAE@XZ 60830b80 f i NMS_TextureManager.obj
 0002:0001bbf0       ??A?$map@PADUtextStruct@@U?$less@PAD@std@@V?$allocator@U?$pair@QADUtextStruct@@@std@@@3@@std@@QAEAAUtextStruct@@ABQAD@Z 60830bf0 f i NMS_TextureManager.obj
 0002:0001bea0       ??1?$_Tree@V?$_Tmap_traits@PADUtextStruct@@U?$less@PAD@std@@V?$allocator@U?$pair@QADUtextStruct@@@std@@@3@$0A@@std@@@std@@QAE@XZ 60830ea0 f i NMS_TextureManager.obj
 0002:0001bf40       ?find@?$_Tree@V?$_Tmap_traits@PADUtextStruct@@U?$less@PAD@std@@V?$allocator@U?$pair@QADUtextStruct@@@std@@@3@$0A@@std@@@std@@QAE?AViterator@12@ABQAD@Z 60830f40 f i NMS_TextureManager.obj
 0002:0001c1d0       ??0iterator@?$_Tree@V?$_Tmap_traits@PADUtextStruct@@U?$less@PAD@std@@V?$allocator@U?$pair@QADUtextStruct@@@std@@@3@$0A@@std@@@std@@QAE@XZ 608311d0 f i NMS_TextureManager.obj
 0002:0001c230       ??Citerator@?$_Tree@V?$_Tmap_traits@PADUtextStruct@@U?$less@PAD@std@@V?$allocator@U?$pair@QADUtextStruct@@@std@@@3@$0A@@std@@@std@@QBEPAU?$pair@QADUtextStruct@@@2@XZ 60831230 f i NMS_TextureManager.obj
 0002:0001c280       ??Eiterator@?$_Tree@V?$_Tmap_traits@PADUtextStruct@@U?$less@PAD@std@@V?$allocator@U?$pair@QADUtextStruct@@@std@@@3@$0A@@std@@@std@@QAEAAV012@XZ 60831280 f i NMS_TextureManager.obj
 0002:0001c2e0       ??0const_iterator@?$_Tree@V?$_Tmap_traits@PADUtextStruct@@U?$less@PAD@std@@V?$allocator@U?$pair@QADUtextStruct@@@std@@@3@$0A@@std@@@std@@QAE@XZ 608312e0 f i NMS_TextureManager.obj
 0002:0001c340       ??Cconst_iterator@?$_Tree@V?$_Tmap_traits@PADUtextStruct@@U?$less@PAD@std@@V?$allocator@U?$pair@QADUtextStruct@@@std@@@3@$0A@@std@@@std@@QBEPBU?$pair@QADUtextStruct@@@2@XZ 60831340 f i NMS_TextureManager.obj
 0002:0001c390       ?_Key@?$_Tree@V?$_Tmap_traits@PADUtextStruct@@U?$less@PAD@std@@V?$allocator@U?$pair@QADUtextStruct@@@std@@@3@$0A@@std@@@std@@KAABQADPAU_Node@?$_Tree_nod@V?$_Tmap_traits@PADUtextStruct@@U?$less@PAD@std@@V?$allocator@U?$pair@QADUtextStruct@@@std@@@3@$0A@@std@@@2@@Z 60831390 f i NMS_TextureManager.obj
 0002:0001c3f0       ??0?$_Tree@V?$_Tmap_traits@PADUtextStruct@@U?$less@PAD@std@@V?$allocator@U?$pair@QADUtextStruct@@@std@@@3@$0A@@std@@@std@@QAE@ABU?$less@PAD@1@ABV?$allocator@U?$pair@QADUtextStruct@@@std@@@1@@Z 608313f0 f i NMS_TextureManager.obj
 0002:0001c4b0       ?insert@?$_Tree@V?$_Tmap_traits@PADUtextStruct@@U?$less@PAD@std@@V?$allocator@U?$pair@QADUtextStruct@@@std@@@3@$0A@@std@@@std@@QAE?AViterator@12@Vconst_iterator@12@ABU?$pair@QADUtextStruct@@@2@@Z 608314b0 f i NMS_TextureManager.obj
 0002:0001d380       ?lower_bound@?$_Tree@V?$_Tmap_traits@PADUtextStruct@@U?$less@PAD@std@@V?$allocator@U?$pair@QADUtextStruct@@@std@@@3@$0A@@std@@@std@@QAE?AViterator@12@ABQAD@Z 60832380 f i NMS_TextureManager.obj
 0002:0001d410       ??0?$allocator@U?$pair@QADUtextStruct@@@std@@@std@@QAE@XZ 60832410 f i NMS_TextureManager.obj
 0002:0001d450       ??R?$less@PAD@std@@QBE_NABQAD0@Z 60832450 f i NMS_TextureManager.obj
 0002:0001d4a0       ??Diterator@?$_Tree@V?$_Tmap_traits@PADUtextStruct@@U?$less@PAD@std@@V?$allocator@U?$pair@QADUtextStruct@@@std@@@3@$0A@@std@@@std@@QBEAAU?$pair@QADUtextStruct@@@2@XZ 608324a0 f i NMS_TextureManager.obj
 0002:0001d4f0       ??Dconst_iterator@?$_Tree@V?$_Tmap_traits@PADUtextStruct@@U?$less@PAD@std@@V?$allocator@U?$pair@QADUtextStruct@@@std@@@3@$0A@@std@@@std@@QBEABU?$pair@QADUtextStruct@@@2@XZ 608324f0 f i NMS_TextureManager.obj
 0002:0001d610       ??0?$pair@QADUtextStruct@@@std@@QAE@ABQADABUtextStruct@@@Z 60832610 f i NMS_TextureManager.obj
 0002:0001d670       ??1?$pair@Viterator@?$_Tree@V?$_Tmap_traits@PADUtextStruct@@U?$less@PAD@std@@V?$allocator@U?$pair@QADUtextStruct@@@std@@@3@$0A@@std@@@std@@_N@std@@QAE@XZ 60832670 f i NMS_TextureManager.obj
 0002:0001d6c0       ?insert@?$_Tree@V?$_Tmap_traits@PADUtextStruct@@U?$less@PAD@std@@V?$allocator@U?$pair@QADUtextStruct@@@std@@@3@$0A@@std@@@std@@QAE?AU?$pair@Viterator@?$_Tree@V?$_Tmap_traits@PADUtextStruct@@U?$less@PAD@std@@V?$allocator@U?$pair@QADUtextStruct@@@std@@@3@$0A@@std@@@std@@_N@2@ABU?$pair@QADUtextStruct@@@2@@Z 608326c0 f i NMS_TextureManager.obj
 0002:0001db90       ?_Insert@?$_Tree@V?$_Tmap_traits@PADUtextStruct@@U?$less@PAD@std@@V?$allocator@U?$pair@QADUtextStruct@@@std@@@3@$0A@@std@@@std@@IAE?AViterator@12@_NPAU_Node@?$_Tree_nod@V?$_Tmap_traits@PADUtextStruct@@U?$less@PAD@std@@V?$allocator@U?$pair@QADUtextStruct@@@std@@@3@$0A@@std@@@2@ABU?$pair@QADUtextStruct@@@2@@Z 60832b90 f i NMS_TextureManager.obj
 0002:0001e1a0       ?_Lbound@?$_Tree@V?$_Tmap_traits@PADUtextStruct@@U?$less@PAD@std@@V?$allocator@U?$pair@QADUtextStruct@@@std@@@3@$0A@@std@@@std@@IBEPAU_Node@?$_Tree_nod@V?$_Tmap_traits@PADUtextStruct@@U?$less@PAD@std@@V?$allocator@U?$pair@QADUtextStruct@@@std@@@3@$0A@@std@@@2@ABQAD@Z 608331a0 f i NMS_TextureManager.obj
 0002:0001e2a0       ?_Kfn@?$_Tmap_traits@PADUtextStruct@@U?$less@PAD@std@@V?$allocator@U?$pair@QADUtextStruct@@@std@@@3@$0A@@std@@SAABQADABU?$pair@QADUtextStruct@@@2@@Z 608332a0 f i NMS_TextureManager.obj
 0002:0001e2e0       ??Fconst_iterator@?$_Tree@V?$_Tmap_traits@PADUtextStruct@@U?$less@PAD@std@@V?$allocator@U?$pair@QADUtextStruct@@@std@@@3@$0A@@std@@@std@@QAEAAV012@XZ 608332e0 f i NMS_TextureManager.obj
 0002:0001e340       ?max_size@?$_Tree@V?$_Tmap_traits@PADUtextStruct@@U?$less@PAD@std@@V?$allocator@U?$pair@QADUtextStruct@@@std@@@3@$0A@@std@@@std@@QBEIXZ 60833340 f i NMS_TextureManager.obj
 0002:0001e3a0       ??Fiterator@?$_Tree@V?$_Tmap_traits@PADUtextStruct@@U?$less@PAD@std@@V?$allocator@U?$pair@QADUtextStruct@@@std@@@3@$0A@@std@@@std@@QAEAAV012@XZ 608333a0 f i NMS_TextureManager.obj
 0002:0001e400       ?_Dec@const_iterator@?$_Tree@V?$_Tmap_traits@PADUtextStruct@@U?$less@PAD@std@@V?$allocator@U?$pair@QADUtextStruct@@@std@@@3@$0A@@std@@@std@@QAEXXZ 60833400 f i NMS_TextureManager.obj
 0002:0001e760       ??0?$pair@Viterator@?$_Tree@V?$_Tmap_traits@PADUtextStruct@@U?$less@PAD@std@@V?$allocator@U?$pair@QADUtextStruct@@@std@@@3@$0A@@std@@@std@@_N@std@@QAE@ABViterator@?$_Tree@V?$_Tmap_traits@PADUtextStruct@@U?$less@PAD@std@@V?$allocator@U?$pair@QADUtextStruct@@@std@@@3@$0A@@std@@@1@AB_N@Z 60833760 f i NMS_TextureManager.obj
 0002:0001e7d0       ?max_size@?$allocator@U?$pair@QADUtextStruct@@@std@@@std@@QBEIXZ 608337d0 f i NMS_TextureManager.obj
 0002:0001e840       ??$_Debug_lt_pred@U?$less@PAD@std@@PADPAD@std@@YA_NU?$less@PAD@0@ABQAD1PB_WI@Z 60833840 f i NMS_TextureManager.obj
 0002:0001e8f0       ??0Thread@@QAE@XZ          608338f0 f   NMS_Thread.obj
 0002:0001e940       ?start@Thread@@QAEXXZ      60833940 f   NMS_Thread.obj
 0002:0001eaa0       ?getThread@Thread@@QAEPAUSDL_Thread@@XZ 60833aa0 f   NMS_Thread.obj
 0002:0001eae0       ?run@Thread@@UAEHXZ        60833ae0 f   NMS_Thread.obj
 0002:0001eb20       ?threadProxy@@YAHPAX@Z     60833b20 f   NMS_Thread.obj
 0002:0001eccc       _SDL_GL_SwapBuffers        60833ccc f   sdl:SDL.dll
 0002:0001ecd2       _SDL_CreateMutex           60833cd2 f   sdl:SDL.dll
 0002:0001ecd8       _SDL_mutexV                60833cd8 f   sdl:SDL.dll
 0002:0001ecde       _SDL_PollEvent             60833cde f   sdl:SDL.dll
 0002:0001ece4       _SDL_mutexP                60833ce4 f   sdl:SDL.dll
 0002:0001ecea       _SDL_WM_SetCaption         60833cea f   sdl:SDL.dll
 0002:0001ecf0       _SDL_GetTicks              60833cf0 f   sdl:SDL.dll
 0002:0001ecf6       _SDL_Quit                  60833cf6 f   sdl:SDL.dll
 0002:0001ecfc       _SDL_DestroyMutex          60833cfc f   sdl:SDL.dll
 0002:0001ed02       _SDL_SetVideoMode          60833d02 f   sdl:SDL.dll
 0002:0001ed08       _SDL_WM_GrabInput          60833d08 f   sdl:SDL.dll
 0002:0001ed0e       _SDL_ShowCursor            60833d0e f   sdl:SDL.dll
 0002:0001ed14       _SDL_Init                  60833d14 f   sdl:SDL.dll
 0002:0001ed1a       _SDL_WaitThread            60833d1a f   sdl:SDL.dll
 0002:0001ed20       _SDL_GetError              60833d20 f   sdl:SDL.dll
 0002:0001ed26       _SDL_CreateThread          60833d26 f   sdl:SDL.dll
 0002:0001ed2c       _glPopMatrix@0             60833d2c f   opengl32:OPENGL32.dll
 0002:0001ed32       _glRotatef@16              60833d32 f   opengl32:OPENGL32.dll
 0002:0001ed38       _glPushMatrix@0            60833d38 f   opengl32:OPENGL32.dll
 0002:0001ed3e       _glPopAttrib@0             60833d3e f   opengl32:OPENGL32.dll
 0002:0001ed44       _glDisable@4               60833d44 f   opengl32:OPENGL32.dll
 0002:0001ed4a       _glEnd@0                   60833d4a f   opengl32:OPENGL32.dll
 0002:0001ed50       _glVertex3fv@4             60833d50 f   opengl32:OPENGL32.dll
 0002:0001ed56       _glNormal3fv@4             60833d56 f   opengl32:OPENGL32.dll
 0002:0001ed5c       _glTexCoord2f@8            60833d5c f   opengl32:OPENGL32.dll
 0002:0001ed62       _glBegin@4                 60833d62 f   opengl32:OPENGL32.dll
 0002:0001ed68       _glBindTexture@8           60833d68 f   opengl32:OPENGL32.dll
 0002:0001ed6e       _glCullFace@4              60833d6e f   opengl32:OPENGL32.dll
 0002:0001ed74       _glEnable@4                60833d74 f   opengl32:OPENGL32.dll
 0002:0001ed7a       _glFrontFace@4             60833d7a f   opengl32:OPENGL32.dll
 0002:0001ed80       _glPushAttrib@4            60833d80 f   opengl32:OPENGL32.dll
 0002:0001ed86       _glLoadIdentity@0          60833d86 f   opengl32:OPENGL32.dll
 0002:0001ed8c       _glMatrixMode@4            60833d8c f   opengl32:OPENGL32.dll
 0002:0001ed92       _glClear@4                 60833d92 f   opengl32:OPENGL32.dll
 0002:0001ed98       _glPolygonMode@8           60833d98 f   opengl32:OPENGL32.dll
 0002:0001ed9e       _glShadeModel@4            60833d9e f   opengl32:OPENGL32.dll
 0002:0001eda4       _glLightModelfv@8          60833da4 f   opengl32:OPENGL32.dll
 0002:0001edaa       _glLightfv@12              60833daa f   opengl32:OPENGL32.dll
 0002:0001edb0       _glVertex3f@12             60833db0 f   opengl32:OPENGL32.dll
 0002:0001edb6       _glColor3f@12              60833db6 f   opengl32:OPENGL32.dll
 0002:0001edbc       _glHint@8                  60833dbc f   opengl32:OPENGL32.dll
 0002:0001edc2       _glDepthFunc@4             60833dc2 f   opengl32:OPENGL32.dll
 0002:0001edc8       _glClearDepth@8            60833dc8 f   opengl32:OPENGL32.dll
 0002:0001edce       _glColorMaterial@8         60833dce f   opengl32:OPENGL32.dll
 0002:0001edd4       _glViewport@16             60833dd4 f   opengl32:OPENGL32.dll
 0002:0001edda       _glClearColor@16           60833dda f   opengl32:OPENGL32.dll
 0002:0001ede0       _glMultMatrixf@4           60833de0 f   opengl32:OPENGL32.dll
 0002:0001ede6       _glTexImage2D@36           60833de6 f   opengl32:OPENGL32.dll
 0002:0001edec       _glTexParameteri@12        60833dec f   opengl32:OPENGL32.dll
 0002:0001edf2       _glGenTextures@8           60833df2 f   opengl32:OPENGL32.dll
 0002:0001edf8       _glDeleteTextures@8        60833df8 f   opengl32:OPENGL32.dll
 0002:0001edfe       _gluPerspective@32         60833dfe f   glu32:GLU32.dll
 0002:0001ee04       _ilGetData@0               60833e04 f   Devil:DevIL.dll
 0002:0001ee0a       _ilDeleteImages@8          60833e0a f   Devil:DevIL.dll
 0002:0001ee10       _ilConvertImage@8          60833e10 f   Devil:DevIL.dll
 0002:0001ee16       _ilLoadL@12                60833e16 f   Devil:DevIL.dll
 0002:0001ee1c       _ilBindImage@4             60833e1c f   Devil:DevIL.dll
 0002:0001ee22       _ilGenImages@8             60833e22 f   Devil:DevIL.dll
 0002:0001ee28       _ilInit@0                  60833e28 f   Devil:DevIL.dll
 0002:0001ee2e       _ilGetInteger@4            60833e2e f   Devil:DevIL.dll
 0002:0001ee40       ??0Vector@@QAE@XZ          60833e40 f   nms_math:Vector.obj
 0002:0001eed0       ??0Vector@@QAE@MMM@Z       60833ed0 f   nms_math:Vector.obj
 0002:0001ef20       ??0Vector@@QAE@MMMM@Z      60833f20 f   nms_math:Vector.obj
 0002:0001ef70       ??YVector@@QAEAAV0@ABV0@@Z 60833f70 f   nms_math:Vector.obj
 0002:0001efe0       ??ZVector@@QAEAAV0@ABV0@@Z 60833fe0 f   nms_math:Vector.obj
 0002:0001f050       ??XVector@@QAEAAV0@M@Z     60834050 f   nms_math:Vector.obj
 0002:0001f0a0       ??_0Vector@@QAEAAV0@M@Z    608340a0 f   nms_math:Vector.obj
 0002:0001f0f0       ??D@YA?AVVector@@ABV0@M@Z  608340f0 f   nms_math:Vector.obj
 0002:0001f170       ??D@YA?AVVector@@MABV0@@Z  60834170 f   nms_math:Vector.obj
 0002:0001f1c0       ??XVector@@QAEAAV0@ABVMatrix@@@Z 608341c0 f   nms_math:Vector.obj
 0002:0001f340       ??D@YA?AVVector@@AAV0@ABVMatrix@@@Z 60834340 f   nms_math:Vector.obj
 0002:0001f430       ??H@YA?AVVector@@ABV0@0@Z  60834430 f   nms_math:Vector.obj
 0002:0001f4e0       ??G@YA?AVVector@@ABV0@0@Z  608344e0 f   nms_math:Vector.obj
 0002:0001f590       ??LVector@@QAE?AV0@ABV0@@Z 60834590 f   nms_math:Vector.obj
 0002:0001f680       ??DVector@@QAEMABV0@@Z     60834680 f   nms_math:Vector.obj
 0002:0001f700       ?sqmagnitude@Vector@@QAEMXZ 60834700 f   nms_math:Vector.obj
 0002:0001f730       ?magnitude@Vector@@QAEMXZ  60834730 f   nms_math:Vector.obj
 0002:0001f770       ?normal@Vector@@QAE?AV1@XZ 60834770 f   nms_math:Vector.obj
 0002:0001fa80       ?sqrt@@YAMM@Z              60834a80 f i nms_math:Vector.obj
 0002:0001fab0       _sqrtf                     60834ab0 f i nms_math:Vector.obj
 0002:0001faf0       ??APoint@@QAEAAMH@Z        60834af0 f   nms_math:Point.obj
 0002:0001fb90       ??APoint@@QBEABMH@Z        60834b90 f   nms_math:Point.obj
 0002:0001fc30       ??0Point@@QAE@XZ           60834c30 f   nms_math:Point.obj
 0002:0001fc70       ??0Point@@QAE@MMM@Z        60834c70 f   nms_math:Point.obj
 0002:0001fcb0       ??9@YA_NABVPoint@@0@Z      60834cb0 f   nms_math:Point.obj
 0002:0001fd50       ??8@YA_NABVPoint@@0@Z      60834d50 f   nms_math:Point.obj
 0002:0001fdf0       ??HPoint@@QAE?AV0@ABVVector@@@Z 60834df0 f   nms_math:Point.obj
 0002:0001fe90       ??GPoint@@QAE?AVVector@@ABV0@@Z 60834e90 f   nms_math:Point.obj
 0002:0001ff30       ??GPoint@@QAE?AV0@ABVVector@@@Z 60834f30 f   nms_math:Point.obj
 0002:0001ffd0       ??XPoint@@QAEAAV0@ABVMatrix@@@Z 60834fd0 f   nms_math:Point.obj
 0002:00020150       ??D@YA?AVPoint@@AAV0@ABVMatrix@@@Z 60835150 f   nms_math:Point.obj
 0002:00020240       ??6@YAAAV?$basic_ostream@DU?$char_traits@D@std@@@std@@AAV01@ABVPoint@@@Z 60835240 f   nms_math:Point.obj
 0002:00020530       ??0Quaternion@@QAE@XZ      60835530 f   nms_math:Quaternion.obj
 0002:00020580       ??0Quaternion@@QAE@MMMM@Z  60835580 f   nms_math:Quaternion.obj
 0002:000205d0       ??XQuaternion@@QAEXABV0@@Z 608355d0 f   nms_math:Quaternion.obj
 0002:00020700       ??DQuaternion@@QBE?AV0@ABV0@@Z 60835700 f   nms_math:Quaternion.obj
 0002:000208c0       ?createFromAngles@Quaternion@@QAEXMMM@Z 608358c0 f   nms_math:Quaternion.obj
 0002:00020a30       ?getMatrix@Quaternion@@QAE?AVMatrix@@XZ 60835a30 f   nms_math:Quaternion.obj
 0002:00020e80       _cosf                      60835e80 f i nms_math:Quaternion.obj
 0002:00020ec0       _sinf                      60835ec0 f i nms_math:Quaternion.obj
 0002:00020f00       ??0Matrix@@QAE@XZ          60835f00 f   nms_math:Matrix.obj
 0002:00021000       ??1Matrix@@QAE@XZ          60836000 f   nms_math:Matrix.obj
 0002:00021090       ??0Matrix@@QAE@II@Z        60836090 f   nms_math:Matrix.obj
 0002:00021190       ??0Matrix@@QAE@ABV0@@Z     60836190 f   nms_math:Matrix.obj
 0002:000212c0       ??4Matrix@@QAEABV0@ABV0@@Z 608362c0 f   nms_math:Matrix.obj
 0002:00021420       ??RMatrix@@QAEAAMII@Z      60836420 f   nms_math:Matrix.obj
 0002:000214a0       ??RMatrix@@QBE?BMII@Z      608364a0 f   nms_math:Matrix.obj
 0002:00021520       ?getRowL@Matrix@@QBEIXZ    60836520 f   nms_math:Matrix.obj
 0002:00021540       ?getColL@Matrix@@QBEIXZ    60836540 f   nms_math:Matrix.obj
 0002:00021560       ??6@YAAAV?$basic_ostream@DU?$char_traits@D@std@@@std@@AAV01@ABVMatrix@@@Z 60836560 f   nms_math:Matrix.obj
 0002:00021610       ?getRow@Matrix@@QAE?AVVector@@I@Z 60836610 f   nms_math:Matrix.obj
 0002:00021700       ?getCol@Matrix@@QAE?AVVector@@I@Z 60836700 f   nms_math:Matrix.obj
 0002:000217f0       ?setRow@Matrix@@QAEXIABVVector@@@Z 608367f0 f   nms_math:Matrix.obj
 0002:000218b0       ?setCol@Matrix@@QAEXIABVVector@@@Z 608368b0 f   nms_math:Matrix.obj
 0002:00021970       ??S@YA?AVMatrix@@ABV0@@Z   60836970 f   nms_math:Matrix.obj
 0002:00021ab0       ?swapRows@Matrix@@QAEXII@Z 60836ab0 f   nms_math:Matrix.obj
 0002:00021b60       ??7@YA?AVMatrix@@ABV0@@Z   60836b60 f   nms_math:Matrix.obj
 0002:00021ef0       ?rotX@Matrix@@QAEXABN@Z    60836ef0 f   nms_math:Matrix.obj
 0002:00022050       ?rotY@Matrix@@QAEXABN@Z    60837050 f   nms_math:Matrix.obj
 0002:000221b0       ?rotZ@Matrix@@QAEXABN@Z    608371b0 f   nms_math:Matrix.obj
 0002:00022310       ?rotV@Matrix@@QAEXABNABVVector@@@Z 60837310 f   nms_math:Matrix.obj
 0002:00022860       ?memoryRealloc@Matrix@@AAEXIIII@Z 60837860 f   nms_math:Matrix.obj
 0002:00022a50       ?resize@Matrix@@QAEXIIII@Z 60837a50 f   nms_math:Matrix.obj
 0002:00022b60       ??8@YA_NABVMatrix@@0@Z     60837b60 f   nms_math:Matrix.obj
 0002:00022c30       ??XMatrix@@QAEAAV0@ABV0@@Z 60837c30 f   nms_math:Matrix.obj
 0002:00022e00       ??XMatrix@@QAEAAV0@ABM@Z   60837e00 f   nms_math:Matrix.obj
 0002:00022ea0       ??D@YA?AVMatrix@@ABV0@ABM@Z 60837ea0 f   nms_math:Matrix.obj
 0002:00022f70       ??D@YA?AVMatrix@@ABMABV0@@Z 60837f70 f   nms_math:Matrix.obj
 0002:00022fb0       ??D@YA?AVMatrix@@ABV0@0@Z  60837fb0 f   nms_math:Matrix.obj
 0002:00023080       ?uScale@Matrix@@QAEXABM@Z  60838080 f   nms_math:Matrix.obj
 0002:00023150       ?translate@Matrix@@QAEXABVVector@@@Z 60838150 f   nms_math:Matrix.obj
 0002:00023230       ?shear@Matrix@@QAEXABMABI1@Z 60838230 f   nms_math:Matrix.obj
 0002:00023310       ?returnPointer@Matrix@@QAEPAMXZ 60838310 f   nms_math:Matrix.obj
 0002:00023330       ?debugPrint@Matrix@@QAEXXZ 60838330 f   nms_math:Matrix.obj
 0002:00023ec0       ??0mat_struct@Matrix@@QAE@II@Z 60838ec0 f i nms_math:Matrix.obj
 0002:00023f60       ??_Gmat_struct@Matrix@@QAEPAXI@Z 60838f60 f i nms_math:Matrix.obj
 0002:00023fb0       ??1mat_struct@Matrix@@QAE@XZ 60838fb0 f i nms_math:Matrix.obj
 0002:00024010       ?abs@@YAMM@Z               60839010 f i nms_math:Matrix.obj
 0002:00024040       _fabsf                     60839040 f i nms_math:Matrix.obj
 0002:00024080       ??$min@I@std@@YAABIABI0@Z  60839080 f i nms_math:Matrix.obj
 0002:000240f0       ??$max@I@std@@YAABIABI0@Z  608390f0 f i nms_math:Matrix.obj
 0002:00024160       ??$_Debug_lt@II@std@@YA_NABI0PB_WI@Z 60839160 f i nms_math:Matrix.obj
 0002:000241c0       ?degToRad@nmsTrig@@SANN@Z  608391c0 f   nms_math:Trig.obj
 0002:000241e0       ?radToDeg@nmsTrig@@SANN@Z  608391e0 f   nms_math:Trig.obj
 0002:00024200       ?degToRad@nmsTrig@@SAMM@Z  60839200 f   nms_math:Trig.obj
 0002:00024230       ?radToDeg@nmsTrig@@SAMM@Z  60839230 f   nms_math:Trig.obj
 0002:00024260       ?sin@nmsTrig@@SAMN@Z       60839260 f   nms_math:Trig.obj
 0002:00024300       ?cos@nmsTrig@@SAMN@Z       60839300 f   nms_math:Trig.obj
 0002:0002440c       ?FileSize@nmsFileManagement@@SAJPAU_iobuf@@@Z 6083940c f   nms_utilities:nms_utilities.dll
 0002:00024412       ?write@NMS_LogFunctions@@SAXPADW4logLevel@@@Z 60839412 f   nms_utilities:nms_utilities.dll
 0002:00024418       ?GetSingleton@NMS_LogFunctions@@SAAAV1@XZ 60839418 f   nms_utilities:nms_utilities.dll
 0002:0002441e       ?returnSha1@nmsSha1@@SAPADPBXH@Z 6083941e f   nms_utilities:nms_utilities.dll
 0002:00024430       ??_U@YAPAXI@Z              60839430 f   msvcprtd:newaop_s.obj
 0002:00024448       ??1_Lockit@std@@QAE@XZ     60839448 f   msvcprtd:MSVCP90D.dll
 0002:0002444e       ??0_Lockit@std@@QAE@H@Z    6083944e f   msvcprtd:MSVCP90D.dll
 0002:00024454       ?_Debug_message@std@@YAXPB_W0I@Z 60839454 f   msvcprtd:MSVCP90D.dll
 0002:0002445a       ??1_Container_base_secure@std@@QAE@XZ 6083945a f   msvcprtd:MSVCP90D.dll
 0002:00024460       ??0_Container_base_secure@std@@QAE@XZ 60839460 f   msvcprtd:MSVCP90D.dll
 0002:00024466       ?setstate@?$basic_ios@DU?$char_traits@D@std@@@std@@QAEXH_N@Z 60839466 f   msvcprtd:MSVCP90D.dll
 0002:0002446c       ?width@ios_base@std@@QAEHH@Z 6083946c f   msvcprtd:MSVCP90D.dll
 0002:00024472       ?sputn@?$basic_streambuf@DU?$char_traits@D@std@@@std@@QAEHPBDH@Z 60839472 f   msvcprtd:MSVCP90D.dll
 0002:00024478       ?eq_int_type@?$char_traits@D@std@@SA_NABH0@Z 60839478 f   msvcprtd:MSVCP90D.dll
 0002:0002447e       ?eof@?$char_traits@D@std@@SAHXZ 6083947e f   msvcprtd:MSVCP90D.dll
 0002:00024484       ?sputc@?$basic_streambuf@DU?$char_traits@D@std@@@std@@QAEHD@Z 60839484 f   msvcprtd:MSVCP90D.dll
 0002:0002448a       ?rdbuf@?$basic_ios@DU?$char_traits@D@std@@@std@@QBEPAV?$basic_streambuf@DU?$char_traits@D@std@@@2@XZ 6083948a f   msvcprtd:MSVCP90D.dll
 0002:00024490       ?fill@?$basic_ios@DU?$char_traits@D@std@@@std@@QBEDXZ 60839490 f   msvcprtd:MSVCP90D.dll
 0002:00024496       ?flags@ios_base@std@@QBEHXZ 60839496 f   msvcprtd:MSVCP90D.dll
 0002:0002449c       ?width@ios_base@std@@QBEHXZ 6083949c f   msvcprtd:MSVCP90D.dll
 0002:000244a2       ?length@?$char_traits@D@std@@SAIPBD@Z 608394a2 f   msvcprtd:MSVCP90D.dll
 0002:000244a8       ?flush@?$basic_ostream@DU?$char_traits@D@std@@@std@@QAEAAV12@XZ 608394a8 f   msvcprtd:MSVCP90D.dll
 0002:000244ae       ?tie@?$basic_ios@DU?$char_traits@D@std@@@std@@QBEPAV?$basic_ostream@DU?$char_traits@D@std@@@2@XZ 608394ae f   msvcprtd:MSVCP90D.dll
 0002:000244b4       ?good@ios_base@std@@QBE_NXZ 608394b4 f   msvcprtd:MSVCP90D.dll
 0002:000244ba       ?_Osfx@?$basic_ostream@DU?$char_traits@D@std@@@std@@QAEXXZ 608394ba f   msvcprtd:MSVCP90D.dll
 0002:000244c0       ?uncaught_exception@std@@YA_NXZ 608394c0 f   msvcprtd:MSVCP90D.dll
 0002:000244c6       ?_Lock@?$basic_streambuf@DU?$char_traits@D@std@@@std@@QAEXXZ 608394c6 f   msvcprtd:MSVCP90D.dll
 0002:000244cc       ?_Unlock@?$basic_streambuf@DU?$char_traits@D@std@@@std@@QAEXXZ 608394cc f   msvcprtd:MSVCP90D.dll
 0002:000244d2       ?_Orphan_all@_Container_base_secure@std@@QBEXXZ 608394d2 f   msvcprtd:MSVCP90D.dll
 0002:000244d8       ??1?$basic_string@DU?$char_traits@D@std@@V?$allocator@D@2@@std@@QAE@XZ 608394d8 f   msvcprtd:MSVCP90D.dll
 0002:000244de       ??0?$basic_string@DU?$char_traits@D@std@@V?$allocator@D@2@@std@@QAE@PBD@Z 608394de f   msvcprtd:MSVCP90D.dll
 0002:000244e4       ??0?$basic_string@DU?$char_traits@D@std@@V?$allocator@D@2@@std@@QAE@ABV01@@Z 608394e4 f   msvcprtd:MSVCP90D.dll
 0002:000244ea       ?c_str@?$basic_string@DU?$char_traits@D@std@@V?$allocator@D@2@@std@@QBEPBDXZ 608394ea f   msvcprtd:MSVCP90D.dll
 0002:000244f0       ??6?$basic_ostream@DU?$char_traits@D@std@@@std@@QAEAAV01@P6AAAV01@AAV01@@Z@Z 608394f0 f   msvcprtd:MSVCP90D.dll
 0002:000244f6       ?endl@std@@YAAAV?$basic_ostream@DU?$char_traits@D@std@@@1@AAV21@@Z 608394f6 f   msvcprtd:MSVCP90D.dll
 0002:000244fc       ??6?$basic_ostream@DU?$char_traits@D@std@@@std@@QAEAAV01@M@Z 608394fc f   msvcprtd:MSVCP90D.dll
 0002:00024510       __RTC_CheckEsp             60839510 f   MSVCRTD:_stack_.obj
 0002:00024540       @_RTC_CheckStackVars@8     60839540 f   MSVCRTD:_stack_.obj
 0002:000245c0       @_RTC_AllocaHelper@12      608395c0 f   MSVCRTD:_stack_.obj
 0002:00024600       @_RTC_CheckStackVars2@12   60839600 f   MSVCRTD:_stack_.obj
 0002:00024710       __RTC_InitBase             60839710 f   MSVCRTD:_init_.obj
 0002:00024750       __RTC_Shutdown             60839750 f   MSVCRTD:_init_.obj
 0002:00024768       _memset                    60839768 f   MSVCRTD:MSVCR90D.dll
 0002:0002476e       _malloc                    6083976e f   MSVCRTD:MSVCR90D.dll
 0002:00024774       _free                      60839774 f   MSVCRTD:MSVCR90D.dll
 0002:0002477a       _fclose                    6083977a f   MSVCRTD:MSVCR90D.dll
 0002:00024780       _fread                     60839780 f   MSVCRTD:MSVCR90D.dll
 0002:00024786       _fopen_s                   60839786 f   MSVCRTD:MSVCR90D.dll
 0002:0002478c       _memcpy                    6083978c f   MSVCRTD:MSVCR90D.dll
 0002:000247a0       ___CxxFrameHandler3        608397a0 f   MSVCRTD:MSVCR90D.dll
 0002:000247b0       @__security_check_cookie@4 608397b0 f   MSVCRTD:secchk.obj
 0002:000247c2       __CxxThrowException@8      608397c2 f   MSVCRTD:MSVCR90D.dll
 0002:000247c8       ??3@YAXPAX@Z               608397c8 f   MSVCRTD:MSVCR90D.dll
 0002:000247ce       __invalid_parameter        608397ce f   MSVCRTD:MSVCR90D.dll
 0002:000247d4       __CrtDbgReportW            608397d4 f   MSVCRTD:MSVCR90D.dll
 0002:000247da       ??2@YAPAXI@Z               608397da f   MSVCRTD:MSVCR90D.dll
 0002:000247e0       ??0type_info@@AAE@ABV0@@Z  608397e0 f   MSVCRTD:ti_inst.obj
 0002:00024810       ??_Etype_info@@UAEPAXI@Z   60839810 f i MSVCRTD:ti_inst.obj
 0002:000248a0       ??4type_info@@AAEAAV0@ABV0@@Z 608398a0 f   MSVCRTD:ti_inst.obj
 0002:000248b6       ??0exception@std@@QAE@ABV01@@Z 608398b6 f   MSVCRTD:MSVCR90D.dll
 0002:000248bc       ??0exception@std@@QAE@ABQBD@Z 608398bc f   MSVCRTD:MSVCR90D.dll
 0002:000248c2       ?what@exception@std@@UBEPBDXZ 608398c2 f   MSVCRTD:MSVCR90D.dll
 0002:000248c8       ??1exception@std@@UAE@XZ   608398c8 f   MSVCRTD:MSVCR90D.dll
 0002:000248ce       _sprintf_s                 608398ce f   MSVCRTD:MSVCR90D.dll
 0002:000248d4       __purecall                 608398d4 f   MSVCRTD:MSVCR90D.dll
 0002:000248da       ??0exception@std@@QAE@XZ   608398da f   MSVCRTD:MSVCR90D.dll
 0002:000248e0       _memmove_s                 608398e0 f   MSVCRTD:MSVCR90D.dll
 0002:000248f0       __onexit                   608398f0 f   MSVCRTD:atonexit.obj
 0002:00024a40       _atexit                    60839a40 f   MSVCRTD:atonexit.obj
 0002:00024a64       ??8type_info@@QBE_NABV0@@Z 60839a64 f   MSVCRTD:MSVCR90D.dll
 0002:00024a70       __ftol2_sse                60839a70 f   MSVCRTD:ftol2.obj
 0002:00024a79       __ftol2_pentium4           60839a79 f   MSVCRTD:ftol2.obj
 0002:00024a8c       __ftol2_sse_excpt          60839a8c f   MSVCRTD:ftol2.obj
 0002:00024aa6       __ftol2                    60839aa6 f   MSVCRTD:ftol2.obj
 0002:00024b46       _fseek                     60839b46 f   MSVCRTD:MSVCR90D.dll
 0002:00024b4c       _strcmp                    60839b4c f   MSVCRTD:MSVCR90D.dll
 0002:00024b52       __wassert                  60839b52 f   MSVCRTD:MSVCR90D.dll
 0002:00024c00       __CRT_INIT@12              60839c00 f   MSVCRTD:crtdll.obj
 0002:00024fd0       _NtCurrentTeb              60839fd0 f i MSVCRTD:crtdll.obj
 0002:00024fe0       __DllMainCRTStartup@12     60839fe0 f   MSVCRTD:crtdll.obj
 0002:00025252       _sqrt                      6083a252 f   MSVCRTD:MSVCR90D.dll
 0002:00025258       _cos                       6083a258 f   MSVCRTD:MSVCR90D.dll
 0002:0002525e       _sin                       6083a25e f   MSVCRTD:MSVCR90D.dll
 0002:00025264       ??_V@YAXPAX@Z              6083a264 f   MSVCRTD:MSVCR90D.dll
 0002:0002526a       _fabs                      6083a26a f   MSVCRTD:MSVCR90D.dll
 0002:00025270       _fwrite                    6083a270 f   MSVCRTD:MSVCR90D.dll
 0002:00025276       _strlen                    6083a276 f   MSVCRTD:MSVCR90D.dll
 0002:00025280       _DebuggerKnownHandle       6083a280 f   MSVCRTD:_error_.obj
 0002:00025360       ?_RTC_Failure@@YAXPAXH@Z   6083a360 f   MSVCRTD:_error_.obj
 0002:00025730       ?_RTC_StackFailure@@YAXPAXPBD@Z 6083a730 f   MSVCRTD:_error_.obj
 0002:00025870       ?_RTC_AllocaFailure@@YAXPAXPAU_RTC_ALLOCA_NODE@@H@Z 6083a870 f   MSVCRTD:_error_.obj
 0002:00025a80       __RTC_UninitUse            6083aa80 f   MSVCRTD:_error_.obj
 0002:00025bb0       __RTC_NumErrors            6083abb0 f   MSVCRTD:_userapi_.obj
 0002:00025bc0       __RTC_GetErrDesc           6083abc0 f   MSVCRTD:_userapi_.obj
 0002:00025be0       __RTC_SetErrorType         6083abe0 f   MSVCRTD:_userapi_.obj
 0002:00025c10       __RTC_SetErrorFunc         6083ac10 f   MSVCRTD:_userapi_.obj
 0002:00025c40       __RTC_SetErrorFuncW        6083ac40 f   MSVCRTD:_userapi_.obj
 0002:00025c70       ?_RTC_GetErrorFunc@@YAP6AHHPBDH00ZZPBX@Z 6083ac70 f   MSVCRTD:_userapi_.obj
 0002:00025c80       ?_RTC_GetErrorFuncW@@YAP6AHHPB_WH00ZZPBX@Z 6083ac80 f   MSVCRTD:_userapi_.obj
 0002:00025c86       __CRT_RTC_INITW            6083ac86 f   MSVCRTD:MSVCR90D.dll
 0002:00025c90       ___report_gsfailure        6083ac90 f   MSVCRTD:gs_report.obj
 0002:00025df0       ??_M@YGXPAXIHP6EX0@Z@Z     6083adf0 f   MSVCRTD:ehvecdtr.obj
 0002:00025ed0       ?__ArrayUnwind@@YGXPAXIHP6EX0@Z@Z 6083aed0 f   MSVCRTD:ehvecdtr.obj
 0002:00025fba       __unlock                   6083afba f   MSVCRTD:MSVCR90D.dll
 0002:00025fc0       ___dllonexit               6083afc0 f   MSVCRTD:MSVCR90D.dll
 0002:00025fc6       __encode_pointer           6083afc6 f   MSVCRTD:MSVCR90D.dll
 0002:00025fcc       __lock                     6083afcc f   MSVCRTD:MSVCR90D.dll
 0002:00025fd2       __decode_pointer           6083afd2 f   MSVCRTD:MSVCR90D.dll
 0002:00025fe0       __except_handler4          6083afe0 f   MSVCRTD:chandler4gs.obj
 0002:00026020       __get_sse2_info            6083b020 f   MSVCRTD:cpu_disp.obj
 0002:00026190       ___sse2_available_init     6083b190 f   MSVCRTD:cpu_disp.obj
 0002:000261b0       ___clean_type_info_names   6083b1b0 f   MSVCRTD:tncleanup.obj
 0002:000261d0       __RTC_Initialize           6083b1d0 f   MSVCRTD:_initsect_.obj
 0002:00026200       __RTC_Terminate            6083b200 f   MSVCRTD:_initsect_.obj
 0002:00026230       __malloc_dbg               6083b230 f   MSVCRTD:MSVCR90D.dll
 0002:00026236       __free_dbg                 6083b236 f   MSVCRTD:MSVCR90D.dll
 0002:0002623c       __encoded_null             6083b23c f   MSVCRTD:MSVCR90D.dll
 0002:00026242       __CrtSetCheckCount         6083b242 f   MSVCRTD:MSVCR90D.dll
 0002:00026250       __ValidateImageBase        6083b250 f   MSVCRTD:pesect.obj
 0002:000262d0       __FindPESection            6083b2d0 f   MSVCRTD:pesect.obj
 0002:00026370       __IsNonwritableInCurrentImage 6083b370 f   MSVCRTD:pesect.obj
 0002:000264c6       __initterm                 6083b4c6 f   MSVCRTD:MSVCR90D.dll
 0002:000264cc       __initterm_e               6083b4cc f   MSVCRTD:MSVCR90D.dll
 0002:000264d2       __amsg_exit                6083b4d2 f   MSVCRTD:MSVCR90D.dll
 0002:000264e0       ___security_init_cookie    6083b4e0 f   MSVCRTD:gs_support.obj
 0002:000265f2       ___CppXcptFilter           6083b5f2 f   MSVCRTD:MSVCR90D.dll
 0002:00026600       _DllMain@12                6083b600 f   MSVCRTD:dllmain.obj
 0002:00026630       ?_RTC_GetSrcLine@@YAHPAEPA_WKPAH1K@Z 6083b630 f   MSVCRTD:_pdblkup_.obj
 0002:00026bec       __crt_debugger_hook        6083bbec f   MSVCRTD:MSVCR90D.dll
 0002:00026bf2       ?terminate@@YAXXZ          6083bbf2 f   MSVCRTD:MSVCR90D.dll
 0002:00026bf8       ??1type_info@@UAE@XZ       6083bbf8 f   MSVCRTD:MSVCR90D.dll
 0002:00026bf8       ?_type_info_dtor_internal_method@type_info@@QAEXXZ 6083bbf8 f   MSVCRTD:MSVCR90D.dll
 0002:00026bfe       __except_handler4_common   6083bbfe f   MSVCRTD:MSVCR90D.dll
 0002:00026c04       ___clean_type_info_names_internal 6083bc04 f   MSVCRTD:MSVCR90D.dll
 0002:00026c0a       _InterlockedExchange@8     6083bc0a f   kernel32:KERNEL32.dll
 0002:00026c10       _Sleep@4                   6083bc10 f   kernel32:KERNEL32.dll
 0002:00026c16       _InterlockedCompareExchange@12 6083bc16 f   kernel32:KERNEL32.dll
 0002:00026c1c       _IsDebuggerPresent@0       6083bc1c f   kernel32:KERNEL32.dll
 0002:00026c22       _RaiseException@16         6083bc22 f   kernel32:KERNEL32.dll
 0002:00026c28       _DebugBreak@0              6083bc28 f   kernel32:KERNEL32.dll
 0002:00026c2e       _WideCharToMultiByte@32    6083bc2e f   kernel32:KERNEL32.dll
 0002:00026c34       _MultiByteToWideChar@24    6083bc34 f   kernel32:KERNEL32.dll
 0002:00026c3a       _lstrlenA@4                6083bc3a f   kernel32:KERNEL32.dll
 0002:00026c40       _GetProcAddress@8          6083bc40 f   kernel32:KERNEL32.dll
 0002:00026c46       _LoadLibraryA@4            6083bc46 f   kernel32:KERNEL32.dll
 0002:00026c4c       _TerminateProcess@8        6083bc4c f   kernel32:KERNEL32.dll
 0002:00026c52       _GetCurrentProcess@0       6083bc52 f   kernel32:KERNEL32.dll
 0002:00026c58       _UnhandledExceptionFilter@4 6083bc58 f   kernel32:KERNEL32.dll
 0002:00026c5e       _SetUnhandledExceptionFilter@4 6083bc5e f   kernel32:KERNEL32.dll
 0002:00026c64       _QueryPerformanceCounter@4 6083bc64 f   kernel32:KERNEL32.dll
 0002:00026c6a       _GetTickCount@0            6083bc6a f   kernel32:KERNEL32.dll
 0002:00026c70       _GetCurrentThreadId@0      6083bc70 f   kernel32:KERNEL32.dll
 0002:00026c76       _GetCurrentProcessId@0     6083bc76 f   kernel32:KERNEL32.dll
 0002:00026c7c       _GetSystemTimeAsFileTime@4 6083bc7c f   kernel32:KERNEL32.dll
 0002:00026c82       _DisableThreadLibraryCalls@4 6083bc82 f   kernel32:KERNEL32.dll
 0002:00026c88       _HeapFree@12               6083bc88 f   kernel32:KERNEL32.dll
 0002:00026c8e       _HeapAlloc@12              6083bc8e f   kernel32:KERNEL32.dll
 0002:00026c94       _GetProcessHeap@0          6083bc94 f   kernel32:KERNEL32.dll
 0002:00026c9a       _GetModuleFileNameW@12     6083bc9a f   kernel32:KERNEL32.dll
 0002:00026ca0       _VirtualQuery@12           6083bca0 f   kernel32:KERNEL32.dll
 0002:00026ca6       _FreeLibrary@4             6083bca6 f   kernel32:KERNEL32.dll
 0003:00000000       ___xc_a                    60842000     MSVCRTD:cinitexe.obj
 0003:00000208       ___xc_z                    60842208     MSVCRTD:cinitexe.obj
 0003:0000030c       ___xi_a                    6084230c     MSVCRTD:cinitexe.obj
 0003:00000618       ___xi_z                    60842618     MSVCRTD:cinitexe.obj
 0003:0000073c       ??_C@_0P@GHFPNOJB@bad?5allocation?$AA@ 6084273c     MD2Model.obj
 0003:00000750       ?collate@?$_Locbase@H@std@@2HB 60842750     MD2Model.obj
 0003:00000754       ?ctype@?$_Locbase@H@std@@2HB 60842754     MD2Model.obj
 0003:00000758       ?monetary@?$_Locbase@H@std@@2HB 60842758     MD2Model.obj
 0003:0000075c       ?numeric@?$_Locbase@H@std@@2HB 6084275c     MD2Model.obj
 0003:00000760       ?time@?$_Locbase@H@std@@2HB 60842760     MD2Model.obj
 0003:00000764       ?messages@?$_Locbase@H@std@@2HB 60842764     MD2Model.obj
 0003:00000768       ?all@?$_Locbase@H@std@@2HB 60842768     MD2Model.obj
 0003:0000076c       ?none@?$_Locbase@H@std@@2HB 6084276c     MD2Model.obj
 0003:00000770       ?skipws@?$_Iosb@H@std@@2W4_Fmtflags@12@B 60842770     MD2Model.obj
 0003:00000774       ?unitbuf@?$_Iosb@H@std@@2W4_Fmtflags@12@B 60842774     MD2Model.obj
 0003:00000778       ?uppercase@?$_Iosb@H@std@@2W4_Fmtflags@12@B 60842778     MD2Model.obj
 0003:0000077c       ?showbase@?$_Iosb@H@std@@2W4_Fmtflags@12@B 6084277c     MD2Model.obj
 0003:00000780       ?showpoint@?$_Iosb@H@std@@2W4_Fmtflags@12@B 60842780     MD2Model.obj
 0003:00000784       ?showpos@?$_Iosb@H@std@@2W4_Fmtflags@12@B 60842784     MD2Model.obj
 0003:00000788       ?left@?$_Iosb@H@std@@2W4_Fmtflags@12@B 60842788     MD2Model.obj
 0003:0000078c       ?right@?$_Iosb@H@std@@2W4_Fmtflags@12@B 6084278c     MD2Model.obj
 0003:00000790       ?internal@?$_Iosb@H@std@@2W4_Fmtflags@12@B 60842790     MD2Model.obj
 0003:00000794       ?dec@?$_Iosb@H@std@@2W4_Fmtflags@12@B 60842794     MD2Model.obj
 0003:00000798       ?oct@?$_Iosb@H@std@@2W4_Fmtflags@12@B 60842798     MD2Model.obj
 0003:0000079c       ?hex@?$_Iosb@H@std@@2W4_Fmtflags@12@B 6084279c     MD2Model.obj
 0003:000007a0       ?scientific@?$_Iosb@H@std@@2W4_Fmtflags@12@B 608427a0     MD2Model.obj
 0003:000007a4       ?fixed@?$_Iosb@H@std@@2W4_Fmtflags@12@B 608427a4     MD2Model.obj
 0003:000007a8       ?hexfloat@?$_Iosb@H@std@@2W4_Fmtflags@12@B 608427a8     MD2Model.obj
 0003:000007ac       ?boolalpha@?$_Iosb@H@std@@2W4_Fmtflags@12@B 608427ac     MD2Model.obj
 0003:000007b0       ?_Stdio@?$_Iosb@H@std@@2W4_Fmtflags@12@B 608427b0     MD2Model.obj
 0003:000007b4       ?adjustfield@?$_Iosb@H@std@@2W4_Fmtflags@12@B 608427b4     MD2Model.obj
 0003:000007b8       ?basefield@?$_Iosb@H@std@@2W4_Fmtflags@12@B 608427b8     MD2Model.obj
 0003:000007bc       ?floatfield@?$_Iosb@H@std@@2W4_Fmtflags@12@B 608427bc     MD2Model.obj
 0003:000007c0       ?goodbit@?$_Iosb@H@std@@2W4_Iostate@12@B 608427c0     MD2Model.obj
 0003:000007c4       ?eofbit@?$_Iosb@H@std@@2W4_Iostate@12@B 608427c4     MD2Model.obj
 0003:000007c8       ?failbit@?$_Iosb@H@std@@2W4_Iostate@12@B 608427c8     MD2Model.obj
 0003:000007cc       ?badbit@?$_Iosb@H@std@@2W4_Iostate@12@B 608427cc     MD2Model.obj
 0003:000007d0       ?_Hardfail@?$_Iosb@H@std@@2W4_Iostate@12@B 608427d0     MD2Model.obj
 0003:000007d4       ?in@?$_Iosb@H@std@@2W4_Openmode@12@B 608427d4     MD2Model.obj
 0003:000007d8       ?out@?$_Iosb@H@std@@2W4_Openmode@12@B 608427d8     MD2Model.obj
 0003:000007dc       ?ate@?$_Iosb@H@std@@2W4_Openmode@12@B 608427dc     MD2Model.obj
 0003:000007e0       ?app@?$_Iosb@H@std@@2W4_Openmode@12@B 608427e0     MD2Model.obj
 0003:000007e4       ?trunc@?$_Iosb@H@std@@2W4_Openmode@12@B 608427e4     MD2Model.obj
 0003:000007e8       ?_Nocreate@?$_Iosb@H@std@@2W4_Openmode@12@B 608427e8     MD2Model.obj
 0003:000007ec       ?_Noreplace@?$_Iosb@H@std@@2W4_Openmode@12@B 608427ec     MD2Model.obj
 0003:000007f0       ?binary@?$_Iosb@H@std@@2W4_Openmode@12@B 608427f0     MD2Model.obj
 0003:000007f4       ?beg@?$_Iosb@H@std@@2W4_Seekdir@12@B 608427f4     MD2Model.obj
 0003:000007f8       ?cur@?$_Iosb@H@std@@2W4_Seekdir@12@B 608427f8     MD2Model.obj
 0003:000007fc       ?end@?$_Iosb@H@std@@2W4_Seekdir@12@B 608427fc     MD2Model.obj
 0003:00000800       ?m_iMessageSize@NMS_TextureManager@@0IB 60842800     MD2Model.obj
 0003:00000804       ?szErrorMessageSize@NMS_AssetManager@@0IB 60842804     MD2Model.obj
 0003:00000808       ??_C@_02JDPG@rb?$AA@       60842808     MD2Model.obj
 0003:0000080c       __real@3f800000            6084280c     MD2Model.obj
 0003:00000810       __real@43340000            60842810     MD2Model.obj
 0003:00000814       __real@c2b40000            60842814     MD2Model.obj
 0003:00000818       __real@00000000            60842818     MD2Model.obj
 0003:00000820       __real@0000000000000000    60842820     MD2Model.obj
 0003:00000830       __real@3ff0000000000000    60842830     MD2Model.obj
 0003:0000083c       ??_C@_1DC@POOIKBAO@?$AAI?$AAT?$AAE?$AAR?$AAA?$AAT?$AAO?$AAR?$AA?5?$AAL?$AAI?$AAS?$AAT?$AA?5?$AAC?$AAO?$AAR?$AAR?$AAU?$AAP?$AAT?$AAE?$AAD?$AA?$CB?$AA?$AA@ 6084283c     MD2Model.obj
 0003:00000878       ??_C@_1IO@PFHNEOGE@?$AAc?$AA?3?$AA?2?$AAp?$AAr?$AAo?$AAg?$AAr?$AAa?$AAm?$AA?5?$AAf?$AAi?$AAl?$AAe?$AAs?$AA?5?$AA?$CI?$AAx?$AA8?$AA6?$AA?$CJ?$AA?2?$AAm?$AAi?$AAc?$AAr?$AAo?$AAs?$AAo?$AAf?$AAt@ 60842878     MD2Model.obj
 0003:00000928       ??_C@_1EK@PPDBPCAN@?$AAm?$AAa?$AAp?$AA?1?$AAs?$AAe?$AAt?$AA?5?$AAe?$AAr?$AAa?$AAs?$AAe?$AA?5?$AAi?$AAt?$AAe?$AAr?$AAa?$AAt?$AAo?$AAr?$AA?5?$AAo?$AAu?$AAt?$AAs?$AAi?$AAd?$AAe?$AA?5?$AAr@ 60842928     MD2Model.obj
 0003:00000980       ??_C@_1II@BMPPGBOL@?$AAc?$AA?3?$AA?2?$AAp?$AAr?$AAo?$AAg?$AAr?$AAa?$AAm?$AA?5?$AAf?$AAi?$AAl?$AAe?$AAs?$AA?5?$AA?$CI?$AAx?$AA8?$AA6?$AA?$CJ?$AA?2?$AAm?$AAi?$AAc?$AAr?$AAo?$AAs?$AAo?$AAf?$AAt@ 60842980     MD2Model.obj
 0003:00000a24       ??_C@_1CG@JNLFBNGN@?$AA?$CC?$AAi?$AAn?$AAv?$AAa?$AAl?$AAi?$AAd?$AA?5?$AAa?$AAr?$AAg?$AAu?$AAm?$AAe?$AAn?$AAt?$AA?$CC?$AA?$AA@ 60842a24     MD2Model.obj
 0003:00000a58       ??_C@_1BHO@CICFLHJF@?$AAs?$AAt?$AAd?$AA?3?$AA?3?$AA_?$AAT?$AAr?$AAe?$AAe?$AA?$DM?$AAc?$AAl?$AAa?$AAs?$AAs?$AA?5?$AAs?$AAt?$AAd?$AA?3?$AA?3?$AA_?$AAT?$AAm?$AAa?$AAp?$AA_?$AAt?$AAr?$AAa?$AAi@ 60842a58     MD2Model.obj
 0003:00000c28       ??_C@_1FO@OCPOOAIA@?$AA?$CI?$AA?$CC?$AAS?$AAt?$AAa?$AAn?$AAd?$AAa?$AAr?$AAd?$AA?5?$AAC?$AA?$CL?$AA?$CL?$AA?5?$AAL?$AAi?$AAb?$AAr?$AAa?$AAr?$AAi?$AAe?$AAs?$AA?5?$AAI?$AAn?$AAv?$AAa?$AAl?$AAi?$AAd@ 60842c28     MD2Model.obj
 0003:00000c98       ??_C@_1DO@CFEEPGGJ@?$AAm?$AAa?$AAp?$AA?1?$AAs?$AAe?$AAt?$AA?5?$AAi?$AAt?$AAe?$AAr?$AAa?$AAt?$AAo?$AAr?$AAs?$AA?5?$AAi?$AAn?$AAc?$AAo?$AAm?$AAp?$AAa?$AAt?$AAi?$AAb?$AAl?$AAe?$AA?$AA@ 60842c98     MD2Model.obj
 0003:00000ce4       ??_C@_1BO@MEPPHOO@?$AA?$CC?$AAo?$AAu?$AAt?$AA?5?$AAo?$AAf?$AA?5?$AAr?$AAa?$AAn?$AAg?$AAe?$AA?$CC?$AA?$AA@ 60842ce4     MD2Model.obj
 0003:00000d08       ??_C@_1BHA@PMJLMDKM@?$AAs?$AAt?$AAd?$AA?3?$AA?3?$AA_?$AAT?$AAr?$AAe?$AAe?$AA?$DM?$AAc?$AAl?$AAa?$AAs?$AAs?$AA?5?$AAs?$AAt?$AAd?$AA?3?$AA?3?$AA_?$AAT?$AAm?$AAa?$AAp?$AA_?$AAt?$AAr?$AAa?$AAi@ 60842d08     MD2Model.obj
 0003:00000ec8       ??_C@_1FG@CMLDHNON@?$AA?$CI?$AA?$CC?$AAS?$AAt?$AAa?$AAn?$AAd?$AAa?$AAr?$AAd?$AA?5?$AAC?$AA?$CL?$AA?$CL?$AA?5?$AAL?$AAi?$AAb?$AAr?$AAa?$AAr?$AAi?$AAe?$AAs?$AA?5?$AAO?$AAu?$AAt?$AA?5?$AAo?$AAf?$AA?5@ 60842ec8     MD2Model.obj
 0003:00000f30       ??_C@_1EG@EHJFMBHJ@?$AAm?$AAa?$AAp?$AA?1?$AAs?$AAe?$AAt?$AA?5?$AAi?$AAt?$AAe?$AAr?$AAa?$AAt?$AAo?$AAr?$AA?5?$AAn?$AAo?$AAt?$AA?5?$AAi?$AAn?$AAc?$AAr?$AAe?$AAm?$AAe?$AAn?$AAt?$AAa?$AAb@ 60842f30     MD2Model.obj
 0003:00000f88       ??_7bad_alloc@std@@6B@     60842f88     MD2Model.obj
 0003:00000f94       ??_C@_0L@CDCPJNNN@Direction?3?$AA@ 60842f94     NMS_3DObject.obj
 0003:00000fa4       ??_C@_09BKHOEFBM@Position?3?$AA@ 60842fa4     NMS_3DObject.obj
 0003:00000fb0       ??_C@_0BL@KMPDDKFB@Asset?5Manager?5Initialized?$CB?$AA@ 60842fb0     NMS_AssetManager.obj
 0003:00000fd4       ??_7NMSCameraController@@6B@ 60842fd4     NMS_Camera.obj
 0003:00000fe4       ??_7NMSCameraFPS@@6B@      60842fe4     NMS_Camera.obj
 0003:00000ff0       __real@c056800000000000    60842ff0     NMS_Camera.obj
 0003:00000ffc       __real@42b40000            60842ffc     NMS_Camera.obj
 0003:00001000       __real@4056800000000000    60843000     NMS_Camera.obj
 0003:00001010       __real@c076800000000000    60843010     NMS_Camera.obj
 0003:00001020       __real@4076800000000000    60843020     NMS_Camera.obj
 0003:00001029       ?is_integral@?$integer_traits_base@_N$0A@$00@detail@boost@@2_NB 60843029     NMS_Engine.obj
 0003:0000102a       ?const_min@?$integer_traits_base@_N$0A@$00@detail@boost@@2_NB 6084302a     NMS_Engine.obj
 0003:0000102b       ?const_max@?$integer_traits_base@_N$0A@$00@detail@boost@@2_NB 6084302b     NMS_Engine.obj
 0003:0000102c       ?is_integral@?$integer_traits_base@D$0?IA@$0HP@@detail@boost@@2_NB 6084302c     NMS_Engine.obj
 0003:0000102d       ?const_min@?$integer_traits_base@D$0?IA@$0HP@@detail@boost@@2DB 6084302d     NMS_Engine.obj
 0003:0000102e       ?const_max@?$integer_traits_base@D$0?IA@$0HP@@detail@boost@@2DB 6084302e     NMS_Engine.obj
 0003:0000102f       ?is_integral@?$integer_traits_base@C$0?IA@$0HP@@detail@boost@@2_NB 6084302f     NMS_Engine.obj
 0003:00001030       ?const_min@?$integer_traits_base@C$0?IA@$0HP@@detail@boost@@2CB 60843030     NMS_Engine.obj
 0003:00001031       ?const_max@?$integer_traits_base@C$0?IA@$0HP@@detail@boost@@2CB 60843031     NMS_Engine.obj
 0003:00001032       ?is_integral@?$integer_traits_base@E$0A@$0PP@@detail@boost@@2_NB 60843032     NMS_Engine.obj
 0003:00001033       ?const_min@?$integer_traits_base@E$0A@$0PP@@detail@boost@@2EB 60843033     NMS_Engine.obj
 0003:00001034       ?const_max@?$integer_traits_base@E$0A@$0PP@@detail@boost@@2EB 60843034     NMS_Engine.obj
 0003:00001035       ?is_integral@?$integer_traits_base@_W$0A@$0PPPP@@detail@boost@@2_NB 60843035     NMS_Engine.obj
 0003:00001038       ?const_min@?$integer_traits_base@_W$0A@$0PPPP@@detail@boost@@2_WB 60843038     NMS_Engine.obj
 0003:0000103c       ?const_max@?$integer_traits_base@_W$0A@$0PPPP@@detail@boost@@2_WB 6084303c     NMS_Engine.obj
 0003:0000103e       ?is_integral@?$integer_traits_base@F$0?IAAA@$0HPPP@@detail@boost@@2_NB 6084303e     NMS_Engine.obj
 0003:00001040       ?const_min@?$integer_traits_base@F$0?IAAA@$0HPPP@@detail@boost@@2FB 60843040     NMS_Engine.obj
 0003:00001044       ?const_max@?$integer_traits_base@F$0?IAAA@$0HPPP@@detail@boost@@2FB 60843044     NMS_Engine.obj
 0003:00001046       ?is_integral@?$integer_traits_base@G$0A@$0PPPP@@detail@boost@@2_NB 60843046     NMS_Engine.obj
 0003:00001048       ?const_min@?$integer_traits_base@G$0A@$0PPPP@@detail@boost@@2GB 60843048     NMS_Engine.obj
 0003:0000104c       ?const_max@?$integer_traits_base@G$0A@$0PPPP@@detail@boost@@2GB 6084304c     NMS_Engine.obj
 0003:0000104e       ?is_integral@?$integer_traits_base@H$0?IAAAAAAA@$0HPPPPPPP@@detail@boost@@2_NB 6084304e     NMS_Engine.obj
 0003:00001050       ?const_min@?$integer_traits_base@H$0?IAAAAAAA@$0HPPPPPPP@@detail@boost@@2HB 60843050     NMS_Engine.obj
 0003:00001054       ?const_max@?$integer_traits_base@H$0?IAAAAAAA@$0HPPPPPPP@@detail@boost@@2HB 60843054     NMS_Engine.obj
 0003:00001058       ?is_integral@?$integer_traits_base@I$0A@$0PPPPPPPP@@detail@boost@@2_NB 60843058     NMS_Engine.obj
 0003:0000105c       ?const_min@?$integer_traits_base@I$0A@$0PPPPPPPP@@detail@boost@@2IB 6084305c     NMS_Engine.obj
 0003:00001060       ?const_max@?$integer_traits_base@I$0A@$0PPPPPPPP@@detail@boost@@2IB 60843060     NMS_Engine.obj
 0003:00001064       ?is_integral@?$integer_traits_base@J$0?IAAAAAAA@$0HPPPPPPP@@detail@boost@@2_NB 60843064     NMS_Engine.obj
 0003:00001068       ?const_min@?$integer_traits_base@J$0?IAAAAAAA@$0HPPPPPPP@@detail@boost@@2JB 60843068     NMS_Engine.obj
 0003:0000106c       ?const_max@?$integer_traits_base@J$0?IAAAAAAA@$0HPPPPPPP@@detail@boost@@2JB 6084306c     NMS_Engine.obj
 0003:00001070       ?is_integral@?$integer_traits_base@K$0A@$0PPPPPPPP@@detail@boost@@2_NB 60843070     NMS_Engine.obj
 0003:00001074       ?const_min@?$integer_traits_base@K$0A@$0PPPPPPPP@@detail@boost@@2KB 60843074     NMS_Engine.obj
 0003:00001078       ?const_max@?$integer_traits_base@K$0A@$0PPPPPPPP@@detail@boost@@2KB 60843078     NMS_Engine.obj
 0003:0000107c       ?is_integral@?$integer_traits_base@_J$0?IAAAAAAAAAAAAAAA@$0HPPPPPPPPPPPPPPP@@detail@boost@@2_NB 6084307c     NMS_Engine.obj
 0003:00001080       ?const_min@?$integer_traits_base@_J$0?IAAAAAAAAAAAAAAA@$0HPPPPPPPPPPPPPPP@@detail@boost@@2_JB 60843080     NMS_Engine.obj
 0003:00001090       ?const_max@?$integer_traits_base@_J$0?IAAAAAAAAAAAAAAA@$0HPPPPPPPPPPPPPPP@@detail@boost@@2_JB 60843090     NMS_Engine.obj
 0003:00001099       ?is_integral@?$integer_traits_base@_K$0A@$0?0@detail@boost@@2_NB 60843099     NMS_Engine.obj
 0003:000010a0       ?const_min@?$integer_traits_base@_K$0A@$0?0@detail@boost@@2_KB 608430a0     NMS_Engine.obj
 0003:000010b0       ?const_max@?$integer_traits_base@_K$0A@$0?0@detail@boost@@2_KB 608430b0     NMS_Engine.obj
 0003:000010bc       ?value@integral_c_tag@mpl@boost@@2HB 608430bc     NMS_Engine.obj
 0003:000010c0       ?value@?$bool_@$00@mpl@boost@@2_NB 608430c0     NMS_Engine.obj
 0003:000010c1       ?value@?$bool_@$0A@@mpl@boost@@2_NB 608430c1     NMS_Engine.obj
 0003:000010c2       ?value@?$ice_or@$0A@$0A@$0A@$0A@$0A@$0A@$0A@@type_traits@boost@@2_NB 608430c2     NMS_Engine.obj
 0003:000010c3       ?value@?$ice_and@$00$00$00$00$00$00$00@type_traits@boost@@2_NB 608430c3     NMS_Engine.obj
 0003:000010c4       ?value@?$ice_not@$00@type_traits@boost@@2_NB 608430c4     NMS_Engine.obj
 0003:000010c5       ?value@?$is_member_function_pointer_impl@X@detail@boost@@2_NB 608430c5     NMS_Engine.obj
 0003:000010c6       ?value@?$is_member_function_pointer_impl@$$CBX@detail@boost@@2_NB 608430c6     NMS_Engine.obj
 0003:000010c7       ?value@?$is_member_function_pointer_impl@$$CCX@detail@boost@@2_NB 608430c7     NMS_Engine.obj
 0003:000010c8       ?value@?$is_member_function_pointer_impl@$$CDX@detail@boost@@2_NB 608430c8     NMS_Engine.obj
 0003:000010c9       ?value@?$is_scalar_impl@X@detail@boost@@2_NB 608430c9     NMS_Engine.obj
 0003:000010ca       ?value@?$is_scalar_impl@$$CBX@detail@boost@@2_NB 608430ca     NMS_Engine.obj
 0003:000010cb       ?value@?$is_scalar_impl@$$CCX@detail@boost@@2_NB 608430cb     NMS_Engine.obj
 0003:000010cc       ?value@?$is_scalar_impl@$$CDX@detail@boost@@2_NB 608430cc     NMS_Engine.obj
 0003:000010cd       ?value@?$is_pod_impl@X@detail@boost@@2_NB 608430cd     NMS_Engine.obj
 0003:000010ce       ?value@?$is_pod_impl@$$CBX@detail@boost@@2_NB 608430ce     NMS_Engine.obj
 0003:000010cf       ?value@?$is_pod_impl@$$CCX@detail@boost@@2_NB 608430cf     NMS_Engine.obj
 0003:000010d0       ?value@?$is_pod_impl@$$CDX@detail@boost@@2_NB 608430d0     NMS_Engine.obj
 0003:000010d4       ?value@?$integral_c@I$0A@@mpl@boost@@2IB 608430d4     NMS_Engine.obj
 0003:000010d8       ?args@?$function1@XH@boost@@2HB 608430d8     NMS_Engine.obj
 0003:000010dc       ?arity@?$function1@XH@boost@@2HB 608430dc     NMS_Engine.obj
 0003:000010e0       ?args@?$function1@XW4SDLKey@@@boost@@2HB 608430e0     NMS_Engine.obj
 0003:000010e4       ?arity@?$function1@XW4SDLKey@@@boost@@2HB 608430e4     NMS_Engine.obj
 0003:000010e8       ?value@?$ice_not@$0A@@type_traits@boost@@2_NB 608430e8     NMS_Engine.obj
 0003:000010f0       ??_7Thread@@6B@            608430f0     NMS_Engine.obj
 0003:000010fc       ??_7SceneGraphVisitor@@6B@ 608430fc     NMS_Engine.obj
 0003:0000110c       ??_7SceneGraphNode@@6B@    6084310c     NMS_Engine.obj
 0003:0000111c       ??_7TransformationNode@@6B@ 6084311c     NMS_Engine.obj
 0003:0000112c       ??_7GeometryNode@@6B@      6084312c     NMS_Engine.obj
 0003:0000113c       ??_7NMS_SceneRenderer@@6BThread@@@ 6084313c     NMS_Engine.obj
 0003:00001148       ??_7NMS_SceneRenderer@@6BSceneGraphVisitor@@@ 60843148     NMS_Engine.obj
 0003:00001158       ??_C@_1EI@HGIDLLCM@?$AAv?$AAe?$AAc?$AAt?$AAo?$AAr?$AA?5?$AAe?$AAr?$AAa?$AAs?$AAe?$AA?5?$AAi?$AAt?$AAe?$AAr?$AAa?$AAt?$AAo?$AAr?$AA?5?$AAo?$AAu?$AAt?$AAs?$AAi?$AAd?$AAe?$AA?5?$AAr?$AAa@ 60843158     NMS_Engine.obj
 0003:000011b0       ??_C@_1IK@MDMJADBH@?$AAc?$AA?3?$AA?2?$AAp?$AAr?$AAo?$AAg?$AAr?$AAa?$AAm?$AA?5?$AAf?$AAi?$AAl?$AAe?$AAs?$AA?5?$AA?$CI?$AAx?$AA8?$AA6?$AA?$CJ?$AA?2?$AAm?$AAi?$AAc?$AAr?$AAo?$AAs?$AAo?$AAf?$AAt@ 608431b0     NMS_Engine.obj
 0003:00001258       ??_C@_0BD@OLBABOEK@vector?$DMT?$DO?5too?5long?$AA@ 60843258     NMS_Engine.obj
 0003:00001274       ??_7length_error@std@@6B@  60843274     NMS_Engine.obj
 0003:00001284       ??_7logic_error@std@@6B@   60843284     NMS_Engine.obj
 0003:00001290       ??_C@_1PE@PNPNNFC@?$AAs?$AAt?$AAd?$AA?3?$AA?3?$AA_?$AAV?$AAe?$AAc?$AAt?$AAo?$AAr?$AA_?$AAc?$AAo?$AAn?$AAs?$AAt?$AA_?$AAi?$AAt?$AAe?$AAr?$AAa?$AAt?$AAo?$AAr?$AA?$DM?$AAc?$AAl?$AAa?$AAs@ 60843290     NMS_Engine.obj
 0003:000013b8       ??_C@_1NK@JLHOCNGO@?$AA?$CI?$AA?$CC?$AA_?$AAP?$AAv?$AAe?$AAc?$AAt?$AAo?$AAr?$AA?5?$AA?$DN?$AA?$DN?$AA?5?$AAN?$AAU?$AAL?$AAL?$AA?5?$AA?$HM?$AA?$HM?$AA?5?$AA?$CI?$AA?$CI?$AA?$CI?$AA_?$AAM?$AAy?$AAv?$AAe?$AAc?$AA?5@ 608433b8     NMS_Engine.obj
 0003:000014c0       ??_C@_1NG@IJJIKHMB@?$AAs?$AAt?$AAd?$AA?3?$AA?3?$AA_?$AAV?$AAe?$AAc?$AAt?$AAo?$AAr?$AA_?$AAc?$AAo?$AAn?$AAs?$AAt?$AA_?$AAi?$AAt?$AAe?$AAr?$AAa?$AAt?$AAo?$AAr?$AA?$DM?$AAc?$AAl?$AAa?$AAs@ 608434c0     NMS_Engine.obj
 0003:000015c0       ??_C@_1DM@HINDPMBP@?$AAv?$AAe?$AAc?$AAt?$AAo?$AAr?$AA?5?$AAi?$AAt?$AAe?$AAr?$AAa?$AAt?$AAo?$AAr?$AAs?$AA?5?$AAi?$AAn?$AAc?$AAo?$AAm?$AAp?$AAa?$AAt?$AAi?$AAb?$AAl?$AAe?$AA?$AA@ 608435c0     NMS_Engine.obj
 0003:00001608       ??_C@_1IG@PLPOLFFI@?$AAc?$AA?3?$AA?2?$AAp?$AAr?$AAo?$AAg?$AAr?$AAa?$AAm?$AA?5?$AAf?$AAi?$AAl?$AAe?$AAs?$AA?5?$AA?$CI?$AAx?$AA8?$AA6?$AA?$CJ?$AA?2?$AAm?$AAi?$AAc?$AAr?$AAo?$AAs?$AAo?$AAf?$AAt@ 60843608     NMS_Engine.obj
 0003:000016a8       ??_C@_1EG@BPNHNPIG@?$AAl?$AAi?$AAs?$AAt?$AA?5?$AAi?$AAn?$AAs?$AAe?$AAr?$AAt?$AA?5?$AAi?$AAt?$AAe?$AAr?$AAa?$AAt?$AAo?$AAr?$AA?5?$AAo?$AAu?$AAt?$AAs?$AAi?$AAd?$AAe?$AA?5?$AAr?$AAa?$AAn@ 608436a8     NMS_Engine.obj
 0003:00001700       ??_C@_1EE@BBMFLDOC@?$AAl?$AAi?$AAs?$AAt?$AA?5?$AAe?$AAr?$AAa?$AAs?$AAe?$AA?5?$AAi?$AAt?$AAe?$AAr?$AAa?$AAt?$AAo?$AAr?$AA?5?$AAo?$AAu?$AAt?$AAs?$AAi?$AAd?$AAe?$AA?5?$AAr?$AAa?$AAn?$AAg@ 60843700     NMS_Engine.obj
 0003:00001758       ??_C@_1ME@POMLPPMP@?$AAs?$AAt?$AAd?$AA?3?$AA?3?$AAl?$AAi?$AAs?$AAt?$AA?$DM?$AAu?$AAn?$AAi?$AAo?$AAn?$AA?5?$AAS?$AAD?$AAL?$AA_?$AAE?$AAv?$AAe?$AAn?$AAt?$AA?0?$AAc?$AAl?$AAa?$AAs?$AAs?$AA?5@ 60843758     NMS_Engine.obj
 0003:00001848       ??_C@_1EC@HILJLMMC@?$AAl?$AAi?$AAs?$AAt?$AA?5?$AAi?$AAt?$AAe?$AAr?$AAa?$AAt?$AAo?$AAr?$AA?5?$AAn?$AAo?$AAt?$AA?5?$AAd?$AAe?$AAr?$AAe?$AAf?$AAe?$AAr?$AAe?$AAn?$AAc?$AAa?$AAb?$AAl?$AAe@ 60843848     NMS_Engine.obj
 0003:00001898       ??_C@_1MG@NNAPCBFN@?$AAs?$AAt?$AAd?$AA?3?$AA?3?$AAl?$AAi?$AAs?$AAt?$AA?$DM?$AAu?$AAn?$AAi?$AAo?$AAn?$AA?5?$AAS?$AAD?$AAL?$AA_?$AAE?$AAv?$AAe?$AAn?$AAt?$AA?0?$AAc?$AAl?$AAa?$AAs?$AAs?$AA?5@ 60843898     NMS_Engine.obj
 0003:00001988       ??_C@_1EA@DOGAGKDH@?$AAl?$AAi?$AAs?$AAt?$AA?5?$AAi?$AAt?$AAe?$AAr?$AAa?$AAt?$AAo?$AAr?$AA?5?$AAn?$AAo?$AAt?$AA?5?$AAi?$AAn?$AAc?$AAr?$AAe?$AAm?$AAe?$AAn?$AAt?$AAa?$AAb?$AAl?$AAe?$AA?$AA@ 60843988     NMS_Engine.obj
 0003:000019d8       ??_C@_1MG@CODNJNJM@?$AAs?$AAt?$AAd?$AA?3?$AA?3?$AAl?$AAi?$AAs?$AAt?$AA?$DM?$AAu?$AAn?$AAi?$AAo?$AAn?$AA?5?$AAS?$AAD?$AAL?$AA_?$AAE?$AAv?$AAe?$AAn?$AAt?$AA?0?$AAc?$AAl?$AAa?$AAs?$AAs?$AA?5@ 608439d8     NMS_Engine.obj
 0003:00001ac8       ??_C@_1EA@JDNDELPC@?$AAl?$AAi?$AAs?$AAt?$AA?5?$AAi?$AAt?$AAe?$AAr?$AAa?$AAt?$AAo?$AAr?$AA?5?$AAn?$AAo?$AAt?$AA?5?$AAd?$AAe?$AAc?$AAr?$AAe?$AAm?$AAe?$AAn?$AAt?$AAa?$AAb?$AAl?$AAe?$AA?$AA@ 60843ac8     NMS_Engine.obj
 0003:00001b14       ??_C@_0BB@MOGOBHAF@list?$DMT?$DO?5too?5long?$AA@ 60843b14     NMS_Engine.obj
 0003:00001b28       ??_C@_1LO@CACNFNCB@?$AAs?$AAt?$AAd?$AA?3?$AA?3?$AAl?$AAi?$AAs?$AAt?$AA?$DM?$AAu?$AAn?$AAi?$AAo?$AAn?$AA?5?$AAS?$AAD?$AAL?$AA_?$AAE?$AAv?$AAe?$AAn?$AAt?$AA?0?$AAc?$AAl?$AAa?$AAs?$AAs?$AA?5@ 60843b28     NMS_Engine.obj
 0003:00001c0c       ??_C@_1DI@MDELDGPI@?$AAl?$AAi?$AAs?$AAt?$AA?5?$AAi?$AAt?$AAe?$AAr?$AAa?$AAt?$AAo?$AAr?$AAs?$AA?5?$AAi?$AAn?$AAc?$AAo?$AAm?$AAp?$AAa?$AAt?$AAi?$AAb?$AAl?$AAe?$AA?$AA@ 60843c0c     NMS_Engine.obj
 0003:00001c50       ??_C@_1IK@LNBCIPBM@?$AAc?$AA?3?$AA?2?$AAp?$AAr?$AAo?$AAg?$AAr?$AAa?$AAm?$AA?5?$AAf?$AAi?$AAl?$AAe?$AAs?$AA?5?$AA?$CI?$AAx?$AA8?$AA6?$AA?$CJ?$AA?2?$AAm?$AAi?$AAc?$AAr?$AAo?$AAs?$AAo?$AAf?$AAt@ 60843c50     NMS_Engine.obj
 0003:00001cf8       ??_C@_1CK@EOPGIILJ@?$AAi?$AAn?$AAv?$AAa?$AAl?$AAi?$AAd?$AA?5?$AAn?$AAu?$AAl?$AAl?$AA?5?$AAp?$AAo?$AAi?$AAn?$AAt?$AAe?$AAr?$AA?$AA@ 60843cf8     NMS_Engine.obj
 0003:00001d30       ??_C@_1NM@BGAOHEPG@?$AAs?$AAt?$AAd?$AA?3?$AA?3?$AA_?$AAV?$AAe?$AAc?$AAt?$AAo?$AAr?$AA_?$AAc?$AAo?$AAn?$AAs?$AAt?$AA_?$AAi?$AAt?$AAe?$AAr?$AAa?$AAt?$AAo?$AAr?$AA?$DM?$AAc?$AAl?$AAa?$AAs@ 60843d30     NMS_Engine.obj
 0003:00001e38       ??_C@_1EG@FOHJJHAC@?$AAv?$AAe?$AAc?$AAt?$AAo?$AAr?$AA?5?$AAi?$AAt?$AAe?$AAr?$AAa?$AAt?$AAo?$AAr?$AA?5?$AAn?$AAo?$AAt?$AA?5?$AAd?$AAe?$AAr?$AAe?$AAf?$AAe?$AAr?$AAe?$AAn?$AAc?$AAa?$AAb@ 60843e38     NMS_Engine.obj
 0003:00001e8c       ??_C@_1CO@DGLIKNHI@?$AAi?$AAn?$AAv?$AAa?$AAl?$AAi?$AAd?$AA?5?$AAi?$AAt?$AAe?$AAr?$AAa?$AAt?$AAo?$AAr?$AA?5?$AAr?$AAa?$AAn?$AAg?$AAe?$AA?$AA@ 60843e8c     NMS_Engine.obj
 0003:00001ec3       ?is_const@?$cv_traits_imp@PAP6AXW4SDLKey@@@Z@detail@boost@@2_NB 60843ec3     NMS_Event.obj
 0003:00001ec4       ?is_volatile@?$cv_traits_imp@PAP6AXW4SDLKey@@@Z@detail@boost@@2_NB 60843ec4     NMS_Event.obj
 0003:00001ec5       ?value@?$is_pointer_helper@P6AXW4SDLKey@@@Z@detail@boost@@2_NB 60843ec5     NMS_Event.obj
 0003:00001ec6       ?value@?$is_reference_impl@P6AXW4SDLKey@@@Z@detail@boost@@2_NB 60843ec6     NMS_Event.obj
 0003:00001ec7       ?value@?$result_@P6AXW4SDLKey@@@Z@?$is_mem_fun_pointer_select@$0A@@detail@boost@@2_NB 60843ec7     NMS_Event.obj
 0003:00001ec8       ?value@?$is_pointer_impl@P6AXW4SDLKey@@@Z@detail@boost@@2_NB 60843ec8     NMS_Event.obj
 0003:00001ec9       ?value@?$is_arithmetic_impl@P6AXW4SDLKey@@@Z@detail@boost@@2_NB 60843ec9     NMS_Event.obj
 0003:00001eca       ?value@?$ice_or@$0A@$0A@$00$0A@$0A@$0A@$0A@@type_traits@boost@@2_NB 60843eca     NMS_Event.obj
 0003:00001ecb       ?value@?$is_scalar_impl@P6AXW4SDLKey@@@Z@detail@boost@@2_NB 60843ecb     NMS_Event.obj
 0003:00001ecc       ?value@?$ice_or@$00$0A@$0A@$0A@$0A@$0A@$0A@@type_traits@boost@@2_NB 60843ecc     NMS_Event.obj
 0003:00001ecd       ?value@?$is_pod_impl@P6AXW4SDLKey@@@Z@detail@boost@@2_NB 60843ecd     NMS_Event.obj
 0003:00001ece       ?value@?$is_volatile_rval_filter@P6AXW4SDLKey@@@Z@detail@boost@@2_NB 60843ece     NMS_Event.obj
 0003:00001ecf       ?value@?$has_trivial_copy_impl@P6AXW4SDLKey@@@Z@detail@boost@@2_NB 60843ecf     NMS_Event.obj
 0003:00001ed0       ?value@?$has_trivial_dtor_impl@P6AXW4SDLKey@@@Z@detail@boost@@2_NB 60843ed0     NMS_Event.obj
 0003:00001ed4       ?value@?$alignment_logic@$07$07@detail@boost@@2IB 60843ed4     NMS_Event.obj
 0003:00001ed8       ?value@?$alignment_of_impl@Tfunction_buffer@function@detail@boost@@@detail@boost@@2IB 60843ed8     NMS_Event.obj
 0003:00001edc       ?value@?$integral_c@I$07@mpl@boost@@2IB 60843edc     NMS_Event.obj
 0003:00001ee0       ?value@?$alignment_logic@$03$03@detail@boost@@2IB 60843ee0     NMS_Event.obj
 0003:00001ee4       ?value@?$alignment_of_impl@P6AXW4SDLKey@@@Z@detail@boost@@2IB 60843ee4     NMS_Event.obj
 0003:00001ee8       ?value@?$integral_c@I$03@mpl@boost@@2IB 60843ee8     NMS_Event.obj
 0003:00001eec       ?value@?$function_allows_small_object_optimization@P6AXW4SDLKey@@@Z@function@detail@boost@@2_NB 60843eec     NMS_Event.obj
 0003:00001ef4       ??_7bad_function_call@boost@@6B@ 60843ef4     NMS_Event.obj
 0003:00001f00       ??_C@_0BO@HKHPGMPA@call?5to?5empty?5boost?3?3function?$AA@ 60843f00     NMS_Event.obj
 0003:00001f28       ??_7runtime_error@std@@6B@ 60843f28     NMS_Event.obj
 0003:00001f38       ??_7?$clone_impl@U?$error_info_injector@Vbad_function_call@boost@@@exception_detail@boost@@@exception_detail@boost@@6B@ 60843f38     NMS_Event.obj
 0003:00001f4c       ??_7?$clone_impl@U?$error_info_injector@Vbad_function_call@boost@@@exception_detail@boost@@@exception_detail@boost@@6Bexception@2@@ 60843f4c     NMS_Event.obj
 0003:00001f58       ??_7?$clone_impl@U?$error_info_injector@Vbad_function_call@boost@@@exception_detail@boost@@@exception_detail@boost@@6Bbad_function_call@2@@ 60843f58     NMS_Event.obj
 0003:00001f68       ??_7?$error_info_injector@Vbad_function_call@boost@@@exception_detail@boost@@6Bexception@2@@ 60843f68     NMS_Event.obj
 0003:00001f74       ??_7?$error_info_injector@Vbad_function_call@boost@@@exception_detail@boost@@6Bbad_function_call@2@@ 60843f74     NMS_Event.obj
 0003:00001f84       ??_7exception@boost@@6B@   60843f84     NMS_Event.obj
 0003:00001f90       ??_7clone_base@exception_detail@boost@@6B@ 60843f90     NMS_Event.obj
 0003:00001f9f       ?is_const@?$cv_traits_imp@PAV?$binder1st@V?$mem_fun1_t@XVNMS_Framework@@H@std@@@std@@@detail@boost@@2_NB 60843f9f     NMS_Framework.obj
 0003:00001fa0       ?is_volatile@?$cv_traits_imp@PAV?$binder1st@V?$mem_fun1_t@XVNMS_Framework@@H@std@@@std@@@detail@boost@@2_NB 60843fa0     NMS_Framework.obj
 0003:00001fa1       ?value@?$is_pointer_helper@V?$binder1st@V?$mem_fun1_t@XVNMS_Framework@@H@std@@@std@@@detail@boost@@2_NB 60843fa1     NMS_Framework.obj
 0003:00001fa2       ?value@?$is_reference_impl@V?$binder1st@V?$mem_fun1_t@XVNMS_Framework@@H@std@@@std@@@detail@boost@@2_NB 60843fa2     NMS_Framework.obj
 0003:00001fa3       ?value@?$result_@V?$binder1st@V?$mem_fun1_t@XVNMS_Framework@@H@std@@@std@@@?$is_mem_fun_pointer_select@$0A@@detail@boost@@2_NB 60843fa3     NMS_Framework.obj
 0003:00001fa4       ?value@?$ice_and@$0A@$00$00$00$00$00$00@type_traits@boost@@2_NB 60843fa4     NMS_Framework.obj
 0003:00001fa5       ?value@?$is_pointer_impl@V?$binder1st@V?$mem_fun1_t@XVNMS_Framework@@H@std@@@std@@@detail@boost@@2_NB 60843fa5     NMS_Framework.obj
 0003:00001fa6       ?value@?$is_arithmetic_impl@V?$binder1st@V?$mem_fun1_t@XVNMS_Framework@@H@std@@@std@@@detail@boost@@2_NB 60843fa6     NMS_Framework.obj
 0003:00001fa7       ?value@?$is_scalar_impl@V?$binder1st@V?$mem_fun1_t@XVNMS_Framework@@H@std@@@std@@@detail@boost@@2_NB 60843fa7     NMS_Framework.obj
 0003:00001fa8       ?value@?$is_pod_impl@V?$binder1st@V?$mem_fun1_t@XVNMS_Framework@@H@std@@@std@@@detail@boost@@2_NB 60843fa8     NMS_Framework.obj
 0003:00001fa9       ?value@?$ice_or@$0A@$00$0A@$0A@$0A@$0A@$0A@@type_traits@boost@@2_NB 60843fa9     NMS_Framework.obj
 0003:00001faa       ?value@?$is_volatile_rval_filter@V?$binder1st@V?$mem_fun1_t@XVNMS_Framework@@H@std@@@std@@@detail@boost@@2_NB 60843faa     NMS_Framework.obj
 0003:00001fab       ?value@?$has_trivial_copy_impl@V?$binder1st@V?$mem_fun1_t@XVNMS_Framework@@H@std@@@std@@@detail@boost@@2_NB 60843fab     NMS_Framework.obj
 0003:00001fac       ?value@?$has_trivial_dtor_impl@V?$binder1st@V?$mem_fun1_t@XVNMS_Framework@@H@std@@@std@@@detail@boost@@2_NB 60843fac     NMS_Framework.obj
 0003:00001fb0       ?value@?$alignment_of_impl@V?$binder1st@V?$mem_fun1_t@XVNMS_Framework@@H@std@@@std@@@detail@boost@@2IB 60843fb0     NMS_Framework.obj
 0003:00001fb4       ?value@?$function_allows_small_object_optimization@V?$binder1st@V?$mem_fun1_t@XVNMS_Framework@@H@std@@@std@@@function@detail@boost@@2_NB 60843fb4     NMS_Framework.obj
 0003:00001fb8       __real@c0a00000            60843fb8     NMS_Framework.obj
 0003:00001fbc       ??_C@_0BG@FMNAMHHI@Frames?5per?5Second?3?5?$CFd?$AA@ 60843fbc     NMS_Framework.obj
 0003:00001fd8       __real@3f50624de0000000    60843fd8     NMS_Framework.obj
 0003:00001fe4       __real@3e99999a            60843fe4     NMS_SceneGraph.obj
 0003:00001fe8       __real@bf800000            60843fe8     NMS_SceneGraph.obj
 0003:00001fec       __real@3dcccccd            60843fec     NMS_SceneGraph.obj
 0003:00001ff0       __real@3f19999a            60843ff0     NMS_SceneGraph.obj
 0003:00001ff4       ??_C@_1CK@POGJDOKA@?$AA?$CI?$AA?$CC?$AA_?$AAP?$AAo?$AAs?$AA?5?$AA?$DM?$AA?5?$AAs?$AAi?$AAz?$AAe?$AA?$CI?$AA?$CJ?$AA?$CC?$AA?0?$AA?5?$AA0?$AA?$CJ?$AA?$AA@ 60843ff4     NMS_SceneGraph.obj
 0003:00002028       ??_C@_1LO@PLBPCKMA@?$AAs?$AAt?$AAd?$AA?3?$AA?3?$AAv?$AAe?$AAc?$AAt?$AAo?$AAr?$AA?$DM?$AAc?$AAl?$AAa?$AAs?$AAs?$AA?5?$AAS?$AAc?$AAe?$AAn?$AAe?$AAG?$AAr?$AAa?$AAp?$AAh?$AAN?$AAo?$AAd?$AAe@ 60844028     NMS_SceneGraph.obj
 0003:0000210c       ??_C@_1DM@LHGCHCBA@?$AAv?$AAe?$AAc?$AAt?$AAo?$AAr?$AA?5?$AAs?$AAu?$AAb?$AAs?$AAc?$AAr?$AAi?$AAp?$AAt?$AA?5?$AAo?$AAu?$AAt?$AA?5?$AAo?$AAf?$AA?5?$AAr?$AAa?$AAn?$AAg?$AAe?$AA?$AA@ 6084410c     NMS_SceneGraph.obj
 0003:00002158       ??_C@_1EK@EEHFMKDC@?$AAv?$AAe?$AAc?$AAt?$AAo?$AAr?$AA?5?$AAi?$AAn?$AAs?$AAe?$AAr?$AAt?$AA?5?$AAi?$AAt?$AAe?$AAr?$AAa?$AAt?$AAo?$AAr?$AA?5?$AAo?$AAu?$AAt?$AAs?$AAi?$AAd?$AAe?$AA?5?$AAr@ 60844158     NMS_SceneGraph.obj
 0003:000021b0       ??_C@_1BAC@KBDNDJPK@?$AA?$CI?$AA?$CC?$AA_?$AAM?$AAy?$AAp?$AAt?$AAr?$AA?5?$AA?$CL?$AA?5?$AA_?$AAO?$AAf?$AAf?$AA?5?$AA?$DM?$AA?$DN?$AA?5?$AA?$CI?$AA?$CI?$AA_?$AAM?$AAy?$AAv?$AAe?$AAc?$AA?5?$AA?$CK?$AA?$CJ?$AA?$CI?$AAt@ 608441b0     NMS_SceneGraph.obj
 0003:000022e8       ??_C@_1NO@NMJDBGMJ@?$AAs?$AAt?$AAd?$AA?3?$AA?3?$AA_?$AAV?$AAe?$AAc?$AAt?$AAo?$AAr?$AA_?$AAc?$AAo?$AAn?$AAs?$AAt?$AA_?$AAi?$AAt?$AAe?$AAr?$AAa?$AAt?$AAo?$AAr?$AA?$DM?$AAc?$AAl?$AAa?$AAs@ 608442e8     NMS_SceneGraph.obj
 0003:000023f4       ??_C@_1DM@LBMEEJPP@?$AA?$CI?$AA?$CC?$AAt?$AAh?$AAi?$AAs?$AA?9?$AA?$DO?$AA_?$AAH?$AAa?$AAs?$AA_?$AAc?$AAo?$AAn?$AAt?$AAa?$AAi?$AAn?$AAe?$AAr?$AA?$CI?$AA?$CJ?$AA?$CC?$AA?0?$AA?5?$AA0?$AA?$CJ?$AA?$AA@ 608443f4     NMS_SceneGraph.obj
 0003:00002440       __real@404e000000000000    60844440     NMS_SceneRenderer.obj
 0003:0000244c       ??_C@_06FNDEKJDK@Demo?52?$AA@ 6084444c     NMS_SceneRenderer.obj
 0003:00002454       ??_C@_0DC@OBEJEBLB@NMS_TextureManager?3?3Texture?5Mana@ 60844454     NMS_TextureManager.obj
 0003:00002490       ??_C@_0DA@HBCDNIKB@NMS_TextureManager?3?3Texture?5Mana@ 60844490     NMS_TextureManager.obj
 0003:000024cc       ??_C@_0DB@DMLBJBA@NMS_TextureManager?3?3Loaded?5?$FL?$CFs?$FN?5@ 608444cc     NMS_TextureManager.obj
 0003:00002508       ??_C@_0EB@HNIMEFAO@NMS_TextureManager?3?3Error?5in?5loa@ 60844508     NMS_TextureManager.obj
 0003:00002558       ??_C@_0CP@GPBNKFIH@NMS_TextureManager?3?3Texture?5load@ 60844558     NMS_TextureManager.obj
 0003:00002590       ??_C@_0EL@GAOAJNLB@NMS_TextureManager?3?3Error?5in?5con@ 60844590     NMS_TextureManager.obj
 0003:000025ec       ??_C@_0CN@GONGHAIC@NMS_TextureManager?3?3Lump?5created@ 608445ec     NMS_TextureManager.obj
 0003:00002624       ??_C@_0DJ@PBFOEIMF@NMS_TextureManager?3?3Negative?5fil@ 60844624     NMS_TextureManager.obj
 0003:00002668       ??_C@_0DD@OOBHJDDB@NMS_TextureManager?3?3Cannot?5open?5@ 60844668     NMS_TextureManager.obj
 0003:000026a8       ??_C@_0CK@ILCMOJFP@NMS_TextureManager?3?3Wrong?5DevIL?5@ 608446a8     NMS_TextureManager.obj
 0003:000026dc       ??_C@_0CJ@EIPBBGP@NMS_TextureManager?3?3Trying?5to?5lo@ 608446dc     NMS_TextureManager.obj
 0003:00002710       ??_C@_0DI@EKGOHON@NMS_TextureManager?3?3Deleted?5imag@ 60844710     NMS_TextureManager.obj
 0003:00002754       ??_C@_0CN@JIILIIFB@NMS_TextureManager?3?3Freed?5the?5wh@ 60844754     NMS_TextureManager.obj
 0003:00002790       ??_C@_0FD@KLBINAPJ@NMS_TextureManager?3?3Impossible?5t@ 60844790     NMS_TextureManager.obj
 0003:000027f8       ??_C@_1EM@MHOKKPFH@?$AAm?$AAa?$AAp?$AA?1?$AAs?$AAe?$AAt?$AA?5?$AAi?$AAn?$AAs?$AAe?$AAr?$AAt?$AA?5?$AAi?$AAt?$AAe?$AAr?$AAa?$AAt?$AAo?$AAr?$AA?5?$AAo?$AAu?$AAt?$AAs?$AAi?$AAd?$AAe?$AA?5@ 608447f8     NMS_TextureManager.obj
 0003:00002858       ??_C@_1BHM@KKGMLFOJ@?$AAs?$AAt?$AAd?$AA?3?$AA?3?$AA_?$AAT?$AAr?$AAe?$AAe?$AA?$DM?$AAc?$AAl?$AAa?$AAs?$AAs?$AA?5?$AAs?$AAt?$AAd?$AA?3?$AA?3?$AA_?$AAT?$AAm?$AAa?$AAp?$AA_?$AAt?$AAr?$AAa?$AAi@ 60844858     NMS_TextureManager.obj
 0003:00002a20       ??_C@_1EI@FHEHNNNM@?$AAm?$AAa?$AAp?$AA?1?$AAs?$AAe?$AAt?$AA?5?$AAi?$AAt?$AAe?$AAr?$AAa?$AAt?$AAo?$AAr?$AA?5?$AAn?$AAo?$AAt?$AA?5?$AAd?$AAe?$AAr?$AAe?$AAf?$AAe?$AAr?$AAe?$AAn?$AAc?$AAa@ 60844a20     NMS_TextureManager.obj
 0003:00002a78       ??_C@_0BE@JONHPENG@map?1set?$DMT?$DO?5too?5long?$AA@ 60844a78     NMS_TextureManager.obj
 0003:00002a90       ??_C@_1BHA@NFJCGLO@?$AAs?$AAt?$AAd?$AA?3?$AA?3?$AA_?$AAT?$AAr?$AAe?$AAe?$AA?$DM?$AAc?$AAl?$AAa?$AAs?$AAs?$AA?5?$AAs?$AAt?$AAd?$AA?3?$AA?3?$AA_?$AAT?$AAm?$AAa?$AAp?$AA_?$AAt?$AAr?$AAa?$AAi@ 60844a90     NMS_TextureManager.obj
 0003:00002c50       ??_C@_1EG@OKCGOALM@?$AAm?$AAa?$AAp?$AA?1?$AAs?$AAe?$AAt?$AA?5?$AAi?$AAt?$AAe?$AAr?$AAa?$AAt?$AAo?$AAr?$AA?5?$AAn?$AAo?$AAt?$AA?5?$AAd?$AAe?$AAc?$AAr?$AAe?$AAm?$AAe?$AAn?$AAt?$AAa?$AAb@ 60844c50     NMS_TextureManager.obj
 0003:00002ca4       ??_C@_1CE@IGJMOCCK@?$AAi?$AAn?$AAv?$AAa?$AAl?$AAi?$AAd?$AA?5?$AAo?$AAp?$AAe?$AAr?$AAa?$AAt?$AAo?$AAr?$AA?$DM?$AA?$AA@ 60844ca4     NMS_TextureManager.obj
 0003:00002cd0       ??_C@_1BA@GKNFDPDP@?$AA?$CB?$AAt?$AAh?$AAr?$AAe?$AAa?$AAd?$AA?$AA@ 60844cd0     NMS_Thread.obj
 0003:00002ce8       ??_C@_1HA@HJAJDBDL@?$AAc?$AA?3?$AA?2?$AAu?$AAs?$AAe?$AAr?$AAs?$AA?2?$AAm?$AAa?$AAj?$AAa?$AA?2?$AAk?$AAo?$AAd?$AAe?$AA?2?$AAi?$AAt?$AAu?$AA?9?$AAe?$AAn?$AAg?$AAi?$AAn?$AAe?$AA?2?$AAn?$AAm@ 60844ce8     NMS_Thread.obj
 0003:00002d70       ??_C@_0BH@HNIBKGCA@Unknown?5object?5thrown?6?$AA@ 60844d70     NMS_Thread.obj
 0003:00002ea8       __real@3fe0000000000000    60844ea8     nms_math:Quaternion.obj
 0003:00003050       __real@bff0000000000000    60845050     nms_math:Matrix.obj
 0003:00003060       ??_C@_1IO@ODJJMCKO@?$AAc?$AA?3?$AA?2?$AAP?$AAr?$AAo?$AAg?$AAr?$AAa?$AAm?$AA?5?$AAF?$AAi?$AAl?$AAe?$AAs?$AA?5?$AA?$CI?$AAx?$AA8?$AA6?$AA?$CJ?$AA?2?$AAM?$AAi?$AAc?$AAr?$AAo?$AAs?$AAo?$AAf?$AAt@ 60845060     nms_math:Matrix.obj
 0003:00003110       __real@4066800000000000    60845110     nms_math:Trig.obj
 0003:00003120       __real@400921fb54442d18    60845120     nms_math:Trig.obj
 0003:00003130       __real@4070e00000000000    60845130     nms_math:Trig.obj
 0003:00003140       ??_7type_info@@6B@         60845140     MSVCRTD:ti_inst.obj
 0003:00003148       __pDefaultRawDllMain       60845148     MSVCRTD:crtdll.obj
 0003:00003148       __pRawDllMain              60845148     MSVCRTD:crtdll.obj
 0003:0000314c       ??_C@_0DA@FJPPCPEH@f?3?2dd?2vctools?2crt_bld?2self_x86?2c@ 6084514c     MSVCRTD:crtdll.obj
 0003:00003188       ??_C@_0BO@GNIAFIKK@Unknown?5Runtime?5Check?5Error?6?$AN?$AA@ 60845188     MSVCRTD:_error_.obj
 0003:000031ac       ??_C@_0CM@NGINOKPC@Stack?5memory?5around?5_alloca?5was?5@ 608451ac     MSVCRTD:_error_.obj
 0003:000031e0       ??_C@_0DG@HKJMLLLP@A?5local?5variable?5was?5used?5before@ 608451e0     MSVCRTD:_error_.obj
 0003:00003220       ??_C@_0BN@FFOINMNJ@Stack?5memory?5was?5corrupted?6?$AN?$AA@ 60845220     MSVCRTD:_error_.obj
 0003:00003248       ??_C@_0BBN@GPMLNJCF@A?5cast?5to?5a?5smaller?5data?5type?5ha@ 60845248     MSVCRTD:_error_.obj
 0003:000033a0       ??_C@_0NN@NGPKDKPD@The?5value?5of?5ESP?5was?5not?5properl@ 608453a0     MSVCRTD:_error_.obj
 0003:00003568       ??_C@_0CA@IODNCDPG@Run?9Time?5Check?5Failure?5?$CD?$CFd?5?9?5?$CFs?$AA@ 60845568     MSVCRTD:_error_.obj
 0003:00003590       ??_C@_0BE@GNBOBNCK@Unknown?5Module?5Name?$AA@ 60845590     MSVCRTD:_error_.obj
 0003:000035a8       ??_C@_0BB@PFFGGCJP@Unknown?5Filename?$AA@ 608455a8     MSVCRTD:_error_.obj
 0003:000035c0       ??_C@_1EA@NFKNIFJP@?$AAR?$AAu?$AAn?$AA?9?$AAT?$AAi?$AAm?$AAe?$AA?5?$AAC?$AAh?$AAe?$AAc?$AAk?$AA?5?$AAF?$AAa?$AAi?$AAl?$AAu?$AAr?$AAe?$AA?5?$AA?$CD?$AA?$CF?$AAd?$AA?5?$AA?9?$AA?5?$AA?$CF?$AAs?$AA?$AA@ 608455c0     MSVCRTD:_error_.obj
 0003:00003610       ??_C@_1GM@OLMCBDMB@?$AAR?$AAu?$AAn?$AAt?$AAi?$AAm?$AAe?$AA?5?$AAC?$AAh?$AAe?$AAc?$AAk?$AA?5?$AAE?$AAr?$AAr?$AAo?$AAr?$AA?4?$AA?6?$AA?$AN?$AA?5?$AAU?$AAn?$AAa?$AAb?$AAl?$AAe?$AA?5?$AAt?$AAo@ 60845610     MSVCRTD:_error_.obj
 0003:00003694       ??_C@_0CG@IAFNJNEE@Stack?5corrupted?5near?5unknown?5var@ 60845694     MSVCRTD:_error_.obj
 0003:000036c8       ??_C@_0EJ@LJKNEOLN@Stack?5area?5around?5_alloca?5memory@ 608456c8     MSVCRTD:_error_.obj
 0003:00003720       ??_C@_08KJEDNCKC@?$CFs?$CFs?$CFs?$CFs?$AA@ 60845720     MSVCRTD:_error_.obj
 0003:0000372c       ??_C@_02LLMPMKNF@?$DO?5?$AA@ 6084572c     MSVCRTD:_error_.obj
 0003:00003730       ??_C@_01EEMJAFIK@?6?$AA@   60845730     MSVCRTD:_error_.obj
 0003:00003734       ??_C@_0BC@KIBAILCI@?$CFs?$CFs?$CFp?$CFs?$CFld?$CFs?$CFd?$CFs?$AA@ 60845734     MSVCRTD:_error_.obj
 0003:00003750       ??_C@_0EI@CLEPFNGI@Stack?5area?5around?5_alloca?5memory@ 60845750     MSVCRTD:_error_.obj
 0003:000037a8       ??_C@_0N@MHFFIMFG@?6Address?3?50x?$AA@ 608457a8     MSVCRTD:_error_.obj
 0003:000037b8       ??_C@_07DFDJCKFN@?6Size?3?5?$AA@ 608457b8     MSVCRTD:_error_.obj
 0003:000037c4       ??_C@_0CK@DKGBICFE@?6Allocation?5number?5within?5this?5f@ 608457c4     MSVCRTD:_error_.obj
 0003:000037f8       ??_C@_08OMAHNMHJ@?6Data?3?5?$DM?$AA@ 608457f8     MSVCRTD:_error_.obj
 0003:00003804       ??_C@_09FOPFMPEJ@wsprintfA?$AA@ 60845804     MSVCRTD:_error_.obj
 0003:00003810       ??_C@_0L@GMPLCCII@user32?4dll?$AA@ 60845810     MSVCRTD:_error_.obj
 0003:00003820       ??_C@_05MKKEDADM@?$CF?42X?5?$AA@ 60845820     MSVCRTD:_error_.obj
 0003:00003828       ??_C@_0DE@OHJBPMBP@A?5variable?5is?5being?5used?5without@ 60845828     MSVCRTD:_error_.obj
 0003:00003868       ??_C@_0BP@OGBCLIBO@Stack?5around?5_alloca?5corrupted?$AA@ 60845868     MSVCRTD:_userapi_.obj
 0003:00003890       ??_C@_0CK@CNLNOEPB@Local?5variable?5used?5before?5initi@ 60845890     MSVCRTD:_userapi_.obj
 0003:000038c4       ??_C@_0BI@CIGMDCBH@Stack?5memory?5corruption?$AA@ 608458c4     MSVCRTD:_userapi_.obj
 0003:000038e0       ??_C@_0CK@FEGOIOPB@Cast?5to?5smaller?5type?5causing?5los@ 608458e0     MSVCRTD:_userapi_.obj
 0003:00003914       ??_C@_0BJ@HEGAHDFO@Stack?5pointer?5corruption?$AA@ 60845914     MSVCRTD:_userapi_.obj
 0003:00003958       ?ProcessDetach@NativeDll@<CrtImplementationDetails>@@0IB 60845958     MSVCRTD:tncleanup.obj
 0003:0000395c       ?ProcessAttach@NativeDll@<CrtImplementationDetails>@@0IB 6084595c     MSVCRTD:tncleanup.obj
 0003:00003960       ?ThreadAttach@NativeDll@<CrtImplementationDetails>@@0IB 60845960     MSVCRTD:tncleanup.obj
 0003:00003964       ?ThreadDetach@NativeDll@<CrtImplementationDetails>@@0IB 60845964     MSVCRTD:tncleanup.obj
 0003:00003968       ?ProcessVerifier@NativeDll@<CrtImplementationDetails>@@0IB 60845968     MSVCRTD:tncleanup.obj
 0003:0000396c       ??_C@_0M@EKFFODEC@MSPDB80?4DLL?$AA@ 6084596c     MSVCRTD:_pdblkup_.obj
 0003:0000397c       ??_C@_01KDCPPGHE@r?$AA@    6084597c     MSVCRTD:_pdblkup_.obj
 0003:00003980       ??_C@_0BB@KCIACLNC@PDBOpenValidate5?$AA@ 60845980     MSVCRTD:_pdblkup_.obj
 0003:00003994       ??_C@_0BF@BMIHBHCA@EnvironmentDirectory?$AA@ 60845994     MSVCRTD:_pdblkup_.obj
 0003:000039b0       ??_C@_0CN@JNNIHDGH@SOFTWARE?2Microsoft?2VisualStudio?2@ 608459b0     MSVCRTD:_pdblkup_.obj
 0003:000039e8       ??_C@_0M@HLOHPNFA@RegCloseKey?$AA@ 608459e8     MSVCRTD:_pdblkup_.obj
 0003:000039f8       ??_C@_0BB@HHEIPGME@RegQueryValueExA?$AA@ 608459f8     MSVCRTD:_pdblkup_.obj
 0003:00003a0c       ??_C@_0O@DCOGKJGG@RegOpenKeyExA?$AA@ 60845a0c     MSVCRTD:_pdblkup_.obj
 0003:00003a1c       ??_C@_0N@JJPEKNFO@ADVAPI32?4DLL?$AA@ 60845a1c     MSVCRTD:_pdblkup_.obj
 0003:00003d7c       ??_R4bad_alloc@std@@6B@    60845d7c     MD2Model.obj
 0003:00003d94       ??_R3bad_alloc@std@@8      60845d94     MD2Model.obj
 0003:00003da8       ??_R2bad_alloc@std@@8      60845da8     MD2Model.obj
 0003:00003db4       ??_R1A@?0A@EA@bad_alloc@std@@8 60845db4     MD2Model.obj
 0003:00003dd8       ??_R1A@?0A@EA@exception@std@@8 60845dd8     MD2Model.obj
 0003:00003dfc       ??_R3exception@std@@8      60845dfc     MD2Model.obj
 0003:00003e10       ??_R2exception@std@@8      60845e10     MD2Model.obj
 0003:00003e18       ??_R4NMSCameraController@@6B@ 60845e18     NMS_Camera.obj
 0003:00003e30       ??_R3NMSCameraController@@8 60845e30     NMS_Camera.obj
 0003:00003e44       ??_R2NMSCameraController@@8 60845e44     NMS_Camera.obj
 0003:00003e4c       ??_R1A@?0A@EA@NMSCameraController@@8 60845e4c     NMS_Camera.obj
 0003:00003e70       ??_R4NMSCameraFPS@@6B@     60845e70     NMS_Camera.obj
 0003:00003e88       ??_R3NMSCameraFPS@@8       60845e88     NMS_Camera.obj
 0003:00003e9c       ??_R2NMSCameraFPS@@8       60845e9c     NMS_Camera.obj
 0003:00003ea8       ??_R1A@?0A@EA@NMSCameraFPS@@8 60845ea8     NMS_Camera.obj
 0003:00003ecc       ??_R4Thread@@6B@           60845ecc     NMS_Engine.obj
 0003:00003ee4       ??_R3Thread@@8             60845ee4     NMS_Engine.obj
 0003:00003ef8       ??_R2Thread@@8             60845ef8     NMS_Engine.obj
 0003:00003f00       ??_R1A@?0A@EA@Thread@@8    60845f00     NMS_Engine.obj
 0003:00003f24       ??_R4SceneGraphVisitor@@6B@ 60845f24     NMS_Engine.obj
 0003:00003f3c       ??_R3SceneGraphVisitor@@8  60845f3c     NMS_Engine.obj
 0003:00003f50       ??_R2SceneGraphVisitor@@8  60845f50     NMS_Engine.obj
 0003:00003f58       ??_R1A@?0A@EA@SceneGraphVisitor@@8 60845f58     NMS_Engine.obj
 0003:00003f7c       ??_R4SceneGraphNode@@6B@   60845f7c     NMS_Engine.obj
 0003:00003f94       ??_R3SceneGraphNode@@8     60845f94     NMS_Engine.obj
 0003:00003fa8       ??_R2SceneGraphNode@@8     60845fa8     NMS_Engine.obj
 0003:00003fb0       ??_R1A@?0A@EA@SceneGraphNode@@8 60845fb0     NMS_Engine.obj
 0003:00003fd4       ??_R4TransformationNode@@6B@ 60845fd4     NMS_Engine.obj
 0003:00003fec       ??_R3TransformationNode@@8 60845fec     NMS_Engine.obj
 0003:00004000       ??_R2TransformationNode@@8 60846000     NMS_Engine.obj
 0003:0000400c       ??_R1A@?0A@EA@TransformationNode@@8 6084600c     NMS_Engine.obj
 0003:00004030       ??_R4GeometryNode@@6B@     60846030     NMS_Engine.obj
 0003:00004048       ??_R3GeometryNode@@8       60846048     NMS_Engine.obj
 0003:0000405c       ??_R2GeometryNode@@8       6084605c     NMS_Engine.obj
 0003:00004068       ??_R1A@?0A@EA@GeometryNode@@8 60846068     NMS_Engine.obj
 0003:0000408c       ??_R4NMS_SceneRenderer@@6BSceneGraphVisitor@@@ 6084608c     NMS_Engine.obj
 0003:000040a4       ??_R3NMS_SceneRenderer@@8  608460a4     NMS_Engine.obj
 0003:000040b8       ??_R2NMS_SceneRenderer@@8  608460b8     NMS_Engine.obj
 0003:000040c8       ??_R1A@?0A@EA@NMS_SceneRenderer@@8 608460c8     NMS_Engine.obj
 0003:000040ec       ??_R13?0A@EA@Thread@@8     608460ec     NMS_Engine.obj
 0003:00004110       ??_R4NMS_SceneRenderer@@6BThread@@@ 60846110     NMS_Engine.obj
 0003:00004128       ??_R4length_error@std@@6B@ 60846128     NMS_Engine.obj
 0003:00004140       ??_R3length_error@std@@8   60846140     NMS_Engine.obj
 0003:00004154       ??_R2length_error@std@@8   60846154     NMS_Engine.obj
 0003:00004164       ??_R1A@?0A@EA@length_error@std@@8 60846164     NMS_Engine.obj
 0003:00004188       ??_R1A@?0A@EA@logic_error@std@@8 60846188     NMS_Engine.obj
 0003:000041ac       ??_R3logic_error@std@@8    608461ac     NMS_Engine.obj
 0003:000041c0       ??_R2logic_error@std@@8    608461c0     NMS_Engine.obj
 0003:000041cc       ??_R4logic_error@std@@6B@  608461cc     NMS_Engine.obj
 0003:000041e4       ??_R4bad_function_call@boost@@6B@ 608461e4     NMS_Event.obj
 0003:000041fc       ??_R3bad_function_call@boost@@8 608461fc     NMS_Event.obj
 0003:00004210       ??_R2bad_function_call@boost@@8 60846210     NMS_Event.obj
 0003:00004220       ??_R1A@?0A@EA@bad_function_call@boost@@8 60846220     NMS_Event.obj
 0003:00004244       ??_R1A@?0A@EA@runtime_error@std@@8 60846244     NMS_Event.obj
 0003:00004268       ??_R3runtime_error@std@@8  60846268     NMS_Event.obj
 0003:0000427c       ??_R2runtime_error@std@@8  6084627c     NMS_Event.obj
 0003:00004288       ??_R4runtime_error@std@@6B@ 60846288     NMS_Event.obj
 0003:000042a0       ??_R4?$clone_impl@U?$error_info_injector@Vbad_function_call@boost@@@exception_detail@boost@@@exception_detail@boost@@6Bbad_function_call@2@@ 608462a0     NMS_Event.obj
 0003:000042b8       ??_R3?$clone_impl@U?$error_info_injector@Vbad_function_call@boost@@@exception_detail@boost@@@exception_detail@boost@@8 608462b8     NMS_Event.obj
 0003:000042cc       ??_R2?$clone_impl@U?$error_info_injector@Vbad_function_call@boost@@@exception_detail@boost@@@exception_detail@boost@@8 608462cc     NMS_Event.obj
 0003:000042f0       ??_R1A@?0A@EA@?$clone_impl@U?$error_info_injector@Vbad_function_call@boost@@@exception_detail@boost@@@exception_detail@boost@@8 608462f0     NMS_Event.obj
 0003:00004314       ??_R1A@?0A@EA@?$error_info_injector@Vbad_function_call@boost@@@exception_detail@boost@@8 60846314     NMS_Event.obj
 0003:00004338       ??_R3?$error_info_injector@Vbad_function_call@boost@@@exception_detail@boost@@8 60846338     NMS_Event.obj
 0003:0000434c       ??_R2?$error_info_injector@Vbad_function_call@boost@@@exception_detail@boost@@8 6084634c     NMS_Event.obj
 0003:00004368       ??_R1CM@?0A@EA@exception@boost@@8 60846368     NMS_Event.obj
 0003:0000438c       ??_R3exception@boost@@8    6084638c     NMS_Event.obj
 0003:000043a0       ??_R2exception@boost@@8    608463a0     NMS_Event.obj
 0003:000043a8       ??_R1A@?0A@EA@exception@boost@@8 608463a8     NMS_Event.obj
 0003:000043cc       ??_R1EA@?0A@EA@clone_base@exception_detail@boost@@8 608463cc     NMS_Event.obj
 0003:000043f0       ??_R3clone_base@exception_detail@boost@@8 608463f0     NMS_Event.obj
 0003:00004404       ??_R2clone_base@exception_detail@boost@@8 60846404     NMS_Event.obj
 0003:0000440c       ??_R1A@?0A@EA@clone_base@exception_detail@boost@@8 6084640c     NMS_Event.obj
 0003:00004430       ??_R4?$clone_impl@U?$error_info_injector@Vbad_function_call@boost@@@exception_detail@boost@@@exception_detail@boost@@6Bexception@2@@ 60846430     NMS_Event.obj
 0003:00004448       ??_R4?$clone_impl@U?$error_info_injector@Vbad_function_call@boost@@@exception_detail@boost@@@exception_detail@boost@@6B@ 60846448     NMS_Event.obj
 0003:00004460       ??_R4?$error_info_injector@Vbad_function_call@boost@@@exception_detail@boost@@6Bbad_function_call@2@@ 60846460     NMS_Event.obj
 0003:00004478       ??_R4?$error_info_injector@Vbad_function_call@boost@@@exception_detail@boost@@6Bexception@2@@ 60846478     NMS_Event.obj
 0003:00004490       ??_R4exception@boost@@6B@  60846490     NMS_Event.obj
 0003:000044a8       ??_R4clone_base@exception_detail@boost@@6B@ 608464a8     NMS_Event.obj
 0003:000044c0       ??_R4type_info@@6B@        608464c0     MSVCRTD:ti_inst.obj
 0003:000044d8       ??_R3type_info@@8          608464d8     MSVCRTD:ti_inst.obj
 0003:000044ec       ??_R2type_info@@8          608464ec     MSVCRTD:ti_inst.obj
 0003:000044f4       ??_R1A@?0A@EA@type_info@@8 608464f4     MSVCRTD:ti_inst.obj
 0003:00004648       ___rtc_iaa                 60846648     MSVCRTD:_initsect_.obj
 0003:0000485c       ___rtc_izz                 6084685c     MSVCRTD:_initsect_.obj
 0003:00004960       ___rtc_taa                 60846960     MSVCRTD:_initsect_.obj
 0003:00004b74       ___rtc_tzz                 60846b74     MSVCRTD:_initsect_.obj
 0003:00005078       __TI2?AVbad_alloc@std@@    60847078     MD2Model.obj
 0003:0000508c       __CTA2?AVbad_alloc@std@@   6084708c     MD2Model.obj
 0003:0000509c       __CT??_R0?AVbad_alloc@std@@@8??0bad_alloc@std@@QAE@ABV01@@Z12 6084709c     MD2Model.obj
 0003:000050bc       __CT??_R0?AVexception@std@@@8??0exception@std@@QAE@ABV01@@Z12 608470bc     MD2Model.obj
 0003:000058d0       __TI3?AVlength_error@std@@ 608478d0     NMS_Engine.obj
 0003:00005914       __CTA3?AVlength_error@std@@ 60847914     NMS_Engine.obj
 0003:00005928       __CT??_R0?AVlength_error@std@@@8??0length_error@std@@QAE@ABV01@@Z44 60847928     NMS_Engine.obj
 0003:00005948       __CT??_R0?AVlogic_error@std@@@8??0logic_error@std@@QAE@ABV01@@Z44 60847948     NMS_Engine.obj
 0003:0000618c       __TI7?AV?$clone_impl@U?$error_info_injector@Vbad_function_call@boost@@@exception_detail@boost@@@exception_detail@boost@@ 6084818c     NMS_Event.obj
 0003:000061d0       __CTA7?AV?$clone_impl@U?$error_info_injector@Vbad_function_call@boost@@@exception_detail@boost@@@exception_detail@boost@@ 608481d0     NMS_Event.obj
 0003:000061f4       __CT??_R0?AV?$clone_impl@U?$error_info_injector@Vbad_function_call@boost@@@exception_detail@boost@@@exception_detail@boost@@@8??0?$clone_impl@U?$error_info_injector@Vbad_function_call@boost@@@exception_detail@boost@@@exception_detail@boost@@QAE@ABV012@@Z68 608481f4     NMS_Event.obj
 0003:00006214       __CT??_R0?AU?$error_info_injector@Vbad_function_call@boost@@@exception_detail@boost@@@8??0?$error_info_injector@Vbad_function_call@boost@@@exception_detail@boost@@QAE@ABU012@@Z64 60848214     NMS_Event.obj
 0003:00006234       __CT??_R0?AVbad_function_call@boost@@@8??0bad_function_call@boost@@QAE@ABV01@@Z44 60848234     NMS_Event.obj
 0003:00006254       __CT??_R0?AVruntime_error@std@@@8??0runtime_error@std@@QAE@ABV01@@Z44 60848254     NMS_Event.obj
 0003:00006274       __CT??_R0?AVexception@boost@@@8??0exception@boost@@QAE@ABV01@@Z2044 60848274     NMS_Event.obj
 0003:00006294       __CT??_R0?AVclone_base@exception_detail@boost@@@8??0clone_base@exception_detail@boost@@QAE@ABV012@@Z464 60848294     NMS_Event.obj
 0003:000064f4       __TI1H                     608484f4     NMS_LightSystem.obj
 0003:0000659c       __CTA1H                    6084859c     NMS_LightSystem.obj
 0003:000065a4       __CT??_R0H@84              608485a4     NMS_LightSystem.obj
 0003:00006c04       __TI2?AVruntime_error@std@@ 60848c04     NMS_Thread.obj
 0003:00006c48       __CTA2?AVruntime_error@std@@ 60848c48     NMS_Thread.obj
 0004:00000008       ?animlist@MD2Model@@2PAUanim_t@@A 6084d008     MD2Model.obj
 0004:00000108       ?anorms@MD2Model@@0PAY02MA 6084d108     MD2Model.obj
 0004:00000a5c       ??_R0?AVbad_alloc@std@@@8  6084da5c     MD2Model.obj
 0004:00000a80       ??_R0?AVexception@std@@@8  6084da80     MD2Model.obj
 0004:00000ab0       ??_R0?AVNMSCameraController@@@8 6084dab0     NMS_Camera.obj
 0004:00000ad8       ??_R0?AVNMSCameraFPS@@@8   6084dad8     NMS_Camera.obj
 0004:00000afc       ??_R0?AVThread@@@8         6084dafc     NMS_Engine.obj
 0004:00000b18       ??_R0?AVSceneGraphVisitor@@@8 6084db18     NMS_Engine.obj
 0004:00000b40       ??_R0?AVSceneGraphNode@@@8 6084db40     NMS_Engine.obj
 0004:00000b64       ??_R0?AVTransformationNode@@@8 6084db64     NMS_Engine.obj
 0004:00000b8c       ??_R0?AVGeometryNode@@@8   6084db8c     NMS_Engine.obj
 0004:00000bac       ??_R0?AVNMS_SceneRenderer@@@8 6084dbac     NMS_Engine.obj
 0004:00000bd4       ??_R0?AVlength_error@std@@@8 6084dbd4     NMS_Engine.obj
 0004:00000bfc       ??_R0?AVlogic_error@std@@@8 6084dbfc     NMS_Engine.obj
 0004:00000c24       ??_R0?AVbad_function_call@boost@@@8 6084dc24     NMS_Event.obj
 0004:00000c54       ??_R0?AVruntime_error@std@@@8 6084dc54     NMS_Event.obj
 0004:00000c80       ??_R0?AV?$clone_impl@U?$error_info_injector@Vbad_function_call@boost@@@exception_detail@boost@@@exception_detail@boost@@@8 6084dc80     NMS_Event.obj
 0004:00000d18       ??_R0?AU?$error_info_injector@Vbad_function_call@boost@@@exception_detail@boost@@@8 6084dd18     NMS_Event.obj
 0004:00000d80       ??_R0?AVexception@boost@@@8 6084dd80     NMS_Event.obj
 0004:00000da4       ??_R0?AVclone_base@exception_detail@boost@@@8 6084dda4     NMS_Event.obj
 0004:00000de0       ?stored_vtable@?1???$assign_to@P6AXW4SDLKey@@@Z@?$function1@XW4SDLKey@@@boost@@AAEXP6AXW4SDLKey@@@Z@Z@4U?$basic_vtable1@XW4SDLKey@@@function@detail@2@A 6084dde0     NMS_Event.obj
 0004:00000dec       ??_R0P6AXW4SDLKey@@@Z@8    6084ddec     NMS_Event.obj
 0004:00000e18       ?stored_vtable@?1???$assign_to@V?$binder1st@V?$mem_fun1_t@XVNMS_Framework@@H@std@@@std@@@?$function1@XH@boost@@AAEXV?$binder1st@V?$mem_fun1_t@XVNMS_Framework@@H@std@@@std@@@Z@4U?$basic_vtable1@XH@function@detail@2@A 6084de18     NMS_Framework.obj
 0004:00000e28       ??_R0?AV?$binder1st@V?$mem_fun1_t@XVNMS_Framework@@H@std@@@std@@@8 6084de28     NMS_Framework.obj
 0004:00000e80       ??_R0H@8                   6084de80     NMS_LightSystem.obj
 0004:00000ea0       ?__LINE__Var@?1??start@Thread@@QAEXXZ@4JA 6084dea0     NMS_Thread.obj
 0004:00000ec0       ___security_cookie         6084dec0     MSVCRTD:gs_cookie.obj
 0004:00000ec4       ___security_cookie_complement 6084dec4     MSVCRTD:gs_cookie.obj
 0004:00000ec8       ??_R0?AVtype_info@@@8      6084dec8     MSVCRTD:ti_inst.obj
 0004:00000ef0       ?_RTC_ErrorLevels@@3PAHA   6084def0     MSVCRTD:_error_.obj
 0004:00000f08       ___native_dllmain_reason   6084df08     MSVCRTD:natstart.obj
 0004:00000f0c       ___native_vcclrit_reason   6084df0c     MSVCRTD:natstart.obj
 0004:00001048       ?m_Singleton@NMS_AssetManager@@0PAV1@A 6084e048     NMS_AssetManager.obj
 0004:00001050       ?engine@@3VNMS_Framework@@A 6084e050     NMS_Engine.obj
 0004:00001124       ?singleton@NMS_Event@@0PAV1@A 6084e124     NMS_Event.obj
 0004:00001194       ?m_Singleton@NMS_TextureManager@@0PAV1@A 6084e194     NMS_TextureManager.obj
 0004:000011a0       ?wsprintffp@@3P6AHPADPBDZZA 6084e1a0     MSVCRTD:_error_.obj
 0004:00001574       ?__type_info_root_node@@3U__type_info_node@@A 6084e574     MSVCRTD:tncleanup.obj
 0004:0000158c       __adjust_fdiv              6084e58c     <common>
 0004:00001598       ___native_startup_state    6084e598     <common>
 0004:000015a8       ___native_startup_lock     6084e5a8     <common>
 0004:000015ac       ___sse2_available          6084e5ac     <common>
 0004:000015b8       ___dyn_tls_init_callback   6084e5b8     <common>
 0004:000015c4       ___onexitend               6084e5c4     <common>
 0004:000015d4       ___onexitbegin             6084e5d4     <common>
 0005:00000000       __IMPORT_DESCRIPTOR_SDL    6084f000     sdl:SDL.dll
 0005:00000014       __IMPORT_DESCRIPTOR_OPENGL32 6084f014     opengl32:OPENGL32.dll
 0005:00000028       __IMPORT_DESCRIPTOR_GLU32  6084f028     glu32:GLU32.dll
 0005:0000003c       __IMPORT_DESCRIPTOR_DevIL  6084f03c     Devil:DevIL.dll
 0005:00000050       __IMPORT_DESCRIPTOR_nms_utilities 6084f050     nms_utilities:nms_utilities.dll
 0005:00000064       __IMPORT_DESCRIPTOR_MSVCP90D 6084f064     msvcprtd:MSVCP90D.dll
 0005:00000078       __IMPORT_DESCRIPTOR_MSVCR90D 6084f078     MSVCRTD:MSVCR90D.dll
 0005:0000008c       __IMPORT_DESCRIPTOR_KERNEL32 6084f08c     kernel32:KERNEL32.dll
 0005:000000a0       __NULL_IMPORT_DESCRIPTOR   6084f0a0     sdl:SDL.dll
 0005:00000558       __imp__ilInit@0            6084f558     Devil:DevIL.dll
 0005:0000055c       __imp__ilGetData@0         6084f55c     Devil:DevIL.dll
 0005:00000560       __imp__ilDeleteImages@8    6084f560     Devil:DevIL.dll
 0005:00000564       __imp__ilConvertImage@8    6084f564     Devil:DevIL.dll
 0005:00000568       __imp__ilLoadL@12          6084f568     Devil:DevIL.dll
 0005:0000056c       __imp__ilBindImage@4       6084f56c     Devil:DevIL.dll
 0005:00000570       __imp__ilGenImages@8       6084f570     Devil:DevIL.dll
 0005:00000574       __imp__ilGetInteger@4      6084f574     Devil:DevIL.dll
 0005:00000578       \177DevIL_NULL_THUNK_DATA  6084f578     Devil:DevIL.dll
 0005:000005a8       __imp__gluPerspective@32   6084f5a8     glu32:GLU32.dll
 0005:000005ac       \177GLU32_NULL_THUNK_DATA  6084f5ac     glu32:GLU32.dll
 0005:000005d8       __imp__GetTickCount@0      6084f5d8     kernel32:KERNEL32.dll
 0005:000005dc       __imp__QueryPerformanceCounter@4 6084f5dc     kernel32:KERNEL32.dll
 0005:000005e0       __imp__SetUnhandledExceptionFilter@4 6084f5e0     kernel32:KERNEL32.dll
 0005:000005e4       __imp__UnhandledExceptionFilter@4 6084f5e4     kernel32:KERNEL32.dll
 0005:000005e8       __imp__GetCurrentProcess@0 6084f5e8     kernel32:KERNEL32.dll
 0005:000005ec       __imp__TerminateProcess@8  6084f5ec     kernel32:KERNEL32.dll
 0005:000005f0       __imp__LoadLibraryA@4      6084f5f0     kernel32:KERNEL32.dll
 0005:000005f4       __imp__GetProcAddress@8    6084f5f4     kernel32:KERNEL32.dll
 0005:000005f8       __imp__GetCurrentThreadId@0 6084f5f8     kernel32:KERNEL32.dll
 0005:000005fc       __imp__MultiByteToWideChar@24 6084f5fc     kernel32:KERNEL32.dll
 0005:00000600       __imp__WideCharToMultiByte@32 6084f600     kernel32:KERNEL32.dll
 0005:00000604       __imp__DebugBreak@0        6084f604     kernel32:KERNEL32.dll
 0005:00000608       __imp__RaiseException@16   6084f608     kernel32:KERNEL32.dll
 0005:0000060c       __imp__IsDebuggerPresent@0 6084f60c     kernel32:KERNEL32.dll
 0005:00000610       __imp__InterlockedCompareExchange@12 6084f610     kernel32:KERNEL32.dll
 0005:00000614       __imp__Sleep@4             6084f614     kernel32:KERNEL32.dll
 0005:00000618       __imp__InterlockedExchange@8 6084f618     kernel32:KERNEL32.dll
 0005:0000061c       __imp__GetCurrentProcessId@0 6084f61c     kernel32:KERNEL32.dll
 0005:00000620       __imp__GetSystemTimeAsFileTime@4 6084f620     kernel32:KERNEL32.dll
 0005:00000624       __imp__DisableThreadLibraryCalls@4 6084f624     kernel32:KERNEL32.dll
 0005:00000628       __imp__HeapFree@12         6084f628     kernel32:KERNEL32.dll
 0005:0000062c       __imp__HeapAlloc@12        6084f62c     kernel32:KERNEL32.dll
 0005:00000630       __imp__GetProcessHeap@0    6084f630     kernel32:KERNEL32.dll
 0005:00000634       __imp__GetModuleFileNameW@12 6084f634     kernel32:KERNEL32.dll
 0005:00000638       __imp__VirtualQuery@12     6084f638     kernel32:KERNEL32.dll
 0005:0000063c       __imp__FreeLibrary@4       6084f63c     kernel32:KERNEL32.dll
 0005:00000640       __imp__lstrlenA@4          6084f640     kernel32:KERNEL32.dll
 0005:00000644       \177KERNEL32_NULL_THUNK_DATA 6084f644     kernel32:KERNEL32.dll
 0005:00000684       __imp_?_Unlock@?$basic_streambuf@DU?$char_traits@D@std@@@std@@QAEXXZ 6084f684     msvcprtd:MSVCP90D.dll
 0005:00000688       __imp_?_Lock@?$basic_streambuf@DU?$char_traits@D@std@@@std@@QAEXXZ 6084f688     msvcprtd:MSVCP90D.dll
 0005:0000068c       __imp_?uncaught_exception@std@@YA_NXZ 6084f68c     msvcprtd:MSVCP90D.dll
 0005:00000690       __imp_?_Osfx@?$basic_ostream@DU?$char_traits@D@std@@@std@@QAEXXZ 6084f690     msvcprtd:MSVCP90D.dll
 0005:00000694       __imp_?good@ios_base@std@@QBE_NXZ 6084f694     msvcprtd:MSVCP90D.dll
 0005:00000698       __imp_?tie@?$basic_ios@DU?$char_traits@D@std@@@std@@QBEPAV?$basic_ostream@DU?$char_traits@D@std@@@2@XZ 6084f698     msvcprtd:MSVCP90D.dll
 0005:0000069c       __imp_?flush@?$basic_ostream@DU?$char_traits@D@std@@@std@@QAEAAV12@XZ 6084f69c     msvcprtd:MSVCP90D.dll
 0005:000006a0       __imp_?length@?$char_traits@D@std@@SAIPBD@Z 6084f6a0     msvcprtd:MSVCP90D.dll
 0005:000006a4       __imp_?width@ios_base@std@@QBEHXZ 6084f6a4     msvcprtd:MSVCP90D.dll
 0005:000006a8       __imp_?flags@ios_base@std@@QBEHXZ 6084f6a8     msvcprtd:MSVCP90D.dll
 0005:000006ac       __imp_?fill@?$basic_ios@DU?$char_traits@D@std@@@std@@QBEDXZ 6084f6ac     msvcprtd:MSVCP90D.dll
 0005:000006b0       __imp_?rdbuf@?$basic_ios@DU?$char_traits@D@std@@@std@@QBEPAV?$basic_streambuf@DU?$char_traits@D@std@@@2@XZ 6084f6b0     msvcprtd:MSVCP90D.dll
 0005:000006b4       __imp_?sputc@?$basic_streambuf@DU?$char_traits@D@std@@@std@@QAEHD@Z 6084f6b4     msvcprtd:MSVCP90D.dll
 0005:000006b8       __imp_?eof@?$char_traits@D@std@@SAHXZ 6084f6b8     msvcprtd:MSVCP90D.dll
 0005:000006bc       __imp_?_Orphan_all@_Container_base_secure@std@@QBEXXZ 6084f6bc     msvcprtd:MSVCP90D.dll
 0005:000006c0       __imp_??1?$basic_string@DU?$char_traits@D@std@@V?$allocator@D@2@@std@@QAE@XZ 6084f6c0     msvcprtd:MSVCP90D.dll
 0005:000006c4       __imp_??0?$basic_string@DU?$char_traits@D@std@@V?$allocator@D@2@@std@@QAE@PBD@Z 6084f6c4     msvcprtd:MSVCP90D.dll
 0005:000006c8       __imp_??0?$basic_string@DU?$char_traits@D@std@@V?$allocator@D@2@@std@@QAE@ABV01@@Z 6084f6c8     msvcprtd:MSVCP90D.dll
 0005:000006cc       __imp_?c_str@?$basic_string@DU?$char_traits@D@std@@V?$allocator@D@2@@std@@QBEPBDXZ 6084f6cc     msvcprtd:MSVCP90D.dll
 0005:000006d0       __imp_??6?$basic_ostream@DU?$char_traits@D@std@@@std@@QAEAAV01@P6AAAV01@AAV01@@Z@Z 6084f6d0     msvcprtd:MSVCP90D.dll
 0005:000006d4       __imp_?endl@std@@YAAAV?$basic_ostream@DU?$char_traits@D@std@@@1@AAV21@@Z 6084f6d4     msvcprtd:MSVCP90D.dll
 0005:000006d8       __imp_??6?$basic_ostream@DU?$char_traits@D@std@@@std@@QAEAAV01@M@Z 6084f6d8     msvcprtd:MSVCP90D.dll
 0005:000006dc       __imp_?cout@std@@3V?$basic_ostream@DU?$char_traits@D@std@@@1@A 6084f6dc     msvcprtd:MSVCP90D.dll
 0005:000006e0       __imp_?cerr@std@@3V?$basic_ostream@DU?$char_traits@D@std@@@1@A 6084f6e0     msvcprtd:MSVCP90D.dll
 0005:000006e4       __imp_?eq_int_type@?$char_traits@D@std@@SA_NABH0@Z 6084f6e4     msvcprtd:MSVCP90D.dll
 0005:000006e8       __imp_?sputn@?$basic_streambuf@DU?$char_traits@D@std@@@std@@QAEHPBDH@Z 6084f6e8     msvcprtd:MSVCP90D.dll
 0005:000006ec       __imp_?width@ios_base@std@@QAEHH@Z 6084f6ec     msvcprtd:MSVCP90D.dll
 0005:000006f0       __imp_?setstate@?$basic_ios@DU?$char_traits@D@std@@@std@@QAEXH_N@Z 6084f6f0     msvcprtd:MSVCP90D.dll
 0005:000006f4       __imp_??0_Container_base_secure@std@@QAE@XZ 6084f6f4     msvcprtd:MSVCP90D.dll
 0005:000006f8       __imp_??1_Lockit@std@@QAE@XZ 6084f6f8     msvcprtd:MSVCP90D.dll
 0005:000006fc       __imp_??0_Lockit@std@@QAE@H@Z 6084f6fc     msvcprtd:MSVCP90D.dll
 0005:00000700       __imp_?_Debug_message@std@@YAXPB_W0I@Z 6084f700     msvcprtd:MSVCP90D.dll
 0005:00000704       __imp_??1_Container_base_secure@std@@QAE@XZ 6084f704     msvcprtd:MSVCP90D.dll
 0005:00000708       \177MSVCP90D_NULL_THUNK_DATA 6084f708     msvcprtd:MSVCP90D.dll
 0005:0000074c       __imp__cos                 6084f74c     MSVCRTD:MSVCR90D.dll
 0005:00000750       __imp____clean_type_info_names_internal 6084f750     MSVCRTD:MSVCR90D.dll
 0005:00000754       __imp___except_handler4_common 6084f754     MSVCRTD:MSVCR90D.dll
 0005:00000758       __imp_?_type_info_dtor_internal_method@type_info@@QAEXXZ 6084f758     MSVCRTD:MSVCR90D.dll
 0005:0000075c       __imp_?terminate@@YAXXZ    6084f75c     MSVCRTD:MSVCR90D.dll
 0005:00000760       __imp___crt_debugger_hook  6084f760     MSVCRTD:MSVCR90D.dll
 0005:00000764       __imp____CppXcptFilter     6084f764     MSVCRTD:MSVCR90D.dll
 0005:00000768       __imp___adjust_fdiv        6084f768     MSVCRTD:MSVCR90D.dll
 0005:0000076c       __imp___amsg_exit          6084f76c     MSVCRTD:MSVCR90D.dll
 0005:00000770       __imp___initterm_e         6084f770     MSVCRTD:MSVCR90D.dll
 0005:00000774       __imp___initterm           6084f774     MSVCRTD:MSVCR90D.dll
 0005:00000778       __imp___CrtSetCheckCount   6084f778     MSVCRTD:MSVCR90D.dll
 0005:0000077c       __imp___encoded_null       6084f77c     MSVCRTD:MSVCR90D.dll
 0005:00000780       __imp___free_dbg           6084f780     MSVCRTD:MSVCR90D.dll
 0005:00000784       __imp___malloc_dbg         6084f784     MSVCRTD:MSVCR90D.dll
 0005:00000788       __imp___decode_pointer     6084f788     MSVCRTD:MSVCR90D.dll
 0005:0000078c       __imp___onexit             6084f78c     MSVCRTD:MSVCR90D.dll
 0005:00000790       __imp___lock               6084f790     MSVCRTD:MSVCR90D.dll
 0005:00000794       __imp___encode_pointer     6084f794     MSVCRTD:MSVCR90D.dll
 0005:00000798       __imp____dllonexit         6084f798     MSVCRTD:MSVCR90D.dll
 0005:0000079c       __imp___unlock             6084f79c     MSVCRTD:MSVCR90D.dll
 0005:000007a0       __imp___CRT_RTC_INITW      6084f7a0     MSVCRTD:MSVCR90D.dll
 0005:000007a4       __imp__strlen              6084f7a4     MSVCRTD:MSVCR90D.dll
 0005:000007a8       __imp__fwrite              6084f7a8     MSVCRTD:MSVCR90D.dll
 0005:000007ac       __imp__fabs                6084f7ac     MSVCRTD:MSVCR90D.dll
 0005:000007b0       __imp_??_V@YAXPAX@Z        6084f7b0     MSVCRTD:MSVCR90D.dll
 0005:000007b4       __imp__sin                 6084f7b4     MSVCRTD:MSVCR90D.dll
 0005:000007b8       __imp__sqrt                6084f7b8     MSVCRTD:MSVCR90D.dll
 0005:000007bc       __imp___wassert            6084f7bc     MSVCRTD:MSVCR90D.dll
 0005:000007c0       __imp__memset              6084f7c0     MSVCRTD:MSVCR90D.dll
 0005:000007c4       __imp__malloc              6084f7c4     MSVCRTD:MSVCR90D.dll
 0005:000007c8       __imp__free                6084f7c8     MSVCRTD:MSVCR90D.dll
 0005:000007cc       __imp__fclose              6084f7cc     MSVCRTD:MSVCR90D.dll
 0005:000007d0       __imp__fread               6084f7d0     MSVCRTD:MSVCR90D.dll
 0005:000007d4       __imp__fopen_s             6084f7d4     MSVCRTD:MSVCR90D.dll
 0005:000007d8       __imp__memcpy              6084f7d8     MSVCRTD:MSVCR90D.dll
 0005:000007dc       __imp____CxxFrameHandler3  6084f7dc     MSVCRTD:MSVCR90D.dll
 0005:000007e0       __imp___CxxThrowException@8 6084f7e0     MSVCRTD:MSVCR90D.dll
 0005:000007e4       __imp_??3@YAXPAX@Z         6084f7e4     MSVCRTD:MSVCR90D.dll
 0005:000007e8       __imp___invalid_parameter  6084f7e8     MSVCRTD:MSVCR90D.dll
 0005:000007ec       __imp___CrtDbgReportW      6084f7ec     MSVCRTD:MSVCR90D.dll
 0005:000007f0       __imp_??2@YAPAXI@Z         6084f7f0     MSVCRTD:MSVCR90D.dll
 0005:000007f4       __imp_??0exception@std@@QAE@ABV01@@Z 6084f7f4     MSVCRTD:MSVCR90D.dll
 0005:000007f8       __imp_??0exception@std@@QAE@ABQBD@Z 6084f7f8     MSVCRTD:MSVCR90D.dll
 0005:000007fc       __imp_?what@exception@std@@UBEPBDXZ 6084f7fc     MSVCRTD:MSVCR90D.dll
 0005:00000800       __imp_??1exception@std@@UAE@XZ 6084f800     MSVCRTD:MSVCR90D.dll
 0005:00000804       __imp__sprintf_s           6084f804     MSVCRTD:MSVCR90D.dll
 0005:00000808       __imp___purecall           6084f808     MSVCRTD:MSVCR90D.dll
 0005:0000080c       __imp_??0exception@std@@QAE@XZ 6084f80c     MSVCRTD:MSVCR90D.dll
 0005:00000810       __imp__memmove_s           6084f810     MSVCRTD:MSVCR90D.dll
 0005:00000814       __imp_??8type_info@@QBE_NABV0@@Z 6084f814     MSVCRTD:MSVCR90D.dll
 0005:00000818       __imp__fseek               6084f818     MSVCRTD:MSVCR90D.dll
 0005:0000081c       __imp__strcmp              6084f81c     MSVCRTD:MSVCR90D.dll
 0005:00000820       \177MSVCR90D_NULL_THUNK_DATA 6084f820     MSVCRTD:MSVCR90D.dll
 0005:00000874       __imp__glCullFace@4        6084f874     opengl32:OPENGL32.dll
 0005:00000878       __imp__glEnable@4          6084f878     opengl32:OPENGL32.dll
 0005:0000087c       __imp__glRotatef@16        6084f87c     opengl32:OPENGL32.dll
 0005:00000880       __imp__glFrontFace@4       6084f880     opengl32:OPENGL32.dll
 0005:00000884       __imp__glPushAttrib@4      6084f884     opengl32:OPENGL32.dll
 0005:00000888       __imp__glLoadIdentity@0    6084f888     opengl32:OPENGL32.dll
 0005:0000088c       __imp__glMatrixMode@4      6084f88c     opengl32:OPENGL32.dll
 0005:00000890       __imp__glClear@4           6084f890     opengl32:OPENGL32.dll
 0005:00000894       __imp__glPolygonMode@8     6084f894     opengl32:OPENGL32.dll
 0005:00000898       __imp__glShadeModel@4      6084f898     opengl32:OPENGL32.dll
 0005:0000089c       __imp__glLightModelfv@8    6084f89c     opengl32:OPENGL32.dll
 0005:000008a0       __imp__glLightfv@12        6084f8a0     opengl32:OPENGL32.dll
 0005:000008a4       __imp__glVertex3f@12       6084f8a4     opengl32:OPENGL32.dll
 0005:000008a8       __imp__glColor3f@12        6084f8a8     opengl32:OPENGL32.dll
 0005:000008ac       __imp__glHint@8            6084f8ac     opengl32:OPENGL32.dll
 0005:000008b0       __imp__glDepthFunc@4       6084f8b0     opengl32:OPENGL32.dll
 0005:000008b4       __imp__glClearDepth@8      6084f8b4     opengl32:OPENGL32.dll
 0005:000008b8       __imp__glColorMaterial@8   6084f8b8     opengl32:OPENGL32.dll
 0005:000008bc       __imp__glViewport@16       6084f8bc     opengl32:OPENGL32.dll
 0005:000008c0       __imp__glClearColor@16     6084f8c0     opengl32:OPENGL32.dll
 0005:000008c4       __imp__glMultMatrixf@4     6084f8c4     opengl32:OPENGL32.dll
 0005:000008c8       __imp__glTexImage2D@36     6084f8c8     opengl32:OPENGL32.dll
 0005:000008cc       __imp__glTexParameteri@12  6084f8cc     opengl32:OPENGL32.dll
 0005:000008d0       __imp__glGenTextures@8     6084f8d0     opengl32:OPENGL32.dll
 0005:000008d4       __imp__glDeleteTextures@8  6084f8d4     opengl32:OPENGL32.dll
 0005:000008d8       __imp__glPushMatrix@0      6084f8d8     opengl32:OPENGL32.dll
 0005:000008dc       __imp__glPopAttrib@0       6084f8dc     opengl32:OPENGL32.dll
 0005:000008e0       __imp__glDisable@4         6084f8e0     opengl32:OPENGL32.dll
 0005:000008e4       __imp__glEnd@0             6084f8e4     opengl32:OPENGL32.dll
 0005:000008e8       __imp__glBindTexture@8     6084f8e8     opengl32:OPENGL32.dll
 0005:000008ec       __imp__glBegin@4           6084f8ec     opengl32:OPENGL32.dll
 0005:000008f0       __imp__glTexCoord2f@8      6084f8f0     opengl32:OPENGL32.dll
 0005:000008f4       __imp__glNormal3fv@4       6084f8f4     opengl32:OPENGL32.dll
 0005:000008f8       __imp__glVertex3fv@4       6084f8f8     opengl32:OPENGL32.dll
 0005:000008fc       __imp__glPopMatrix@0       6084f8fc     opengl32:OPENGL32.dll
 0005:00000900       \177OPENGL32_NULL_THUNK_DATA 6084f900     opengl32:OPENGL32.dll
 0005:00000948       __imp__SDL_PollEvent       6084f948     sdl:SDL.dll
 0005:0000094c       __imp__SDL_mutexP          6084f94c     sdl:SDL.dll
 0005:00000950       __imp__SDL_GL_SwapBuffers  6084f950     sdl:SDL.dll
 0005:00000954       __imp__SDL_mutexV          6084f954     sdl:SDL.dll
 0005:00000958       __imp__SDL_CreateMutex     6084f958     sdl:SDL.dll
 0005:0000095c       __imp__SDL_CreateThread    6084f95c     sdl:SDL.dll
 0005:00000960       __imp__SDL_GetError        6084f960     sdl:SDL.dll
 0005:00000964       __imp__SDL_WaitThread      6084f964     sdl:SDL.dll
 0005:00000968       __imp__SDL_Init            6084f968     sdl:SDL.dll
 0005:0000096c       __imp__SDL_ShowCursor      6084f96c     sdl:SDL.dll
 0005:00000970       __imp__SDL_WM_GrabInput    6084f970     sdl:SDL.dll
 0005:00000974       __imp__SDL_SetVideoMode    6084f974     sdl:SDL.dll
 0005:00000978       __imp__SDL_DestroyMutex    6084f978     sdl:SDL.dll
 0005:0000097c       __imp__SDL_Quit            6084f97c     sdl:SDL.dll
 0005:00000980       __imp__SDL_GetTicks        6084f980     sdl:SDL.dll
 0005:00000984       __imp__SDL_WM_SetCaption   6084f984     sdl:SDL.dll
 0005:00000988       \177SDL_NULL_THUNK_DATA    6084f988     sdl:SDL.dll
 0005:000009c0       __imp_?write@NMS_LogFunctions@@SAXPADW4logLevel@@@Z 6084f9c0     nms_utilities:nms_utilities.dll
 0005:000009c4       __imp_?GetSingleton@NMS_LogFunctions@@SAAAV1@XZ 6084f9c4     nms_utilities:nms_utilities.dll
 0005:000009c8       __imp_?returnSha1@nmsSha1@@SAPADPBXH@Z 6084f9c8     nms_utilities:nms_utilities.dll
 0005:000009cc       __imp_?FileSize@nmsFileManagement@@SAJPAU_iobuf@@@Z 6084f9cc     nms_utilities:nms_utilities.dll
 0005:000009d0       \177nms_utilities_NULL_THUNK_DATA 6084f9d0     nms_utilities:nms_utilities.dll

 entry point at        0002:00000a05


 Exports

  ordinal    name

        1    ??0GeometryNode@@QAE@ABV0@@Z (public: __thiscall GeometryNode::GeometryNode(class GeometryNode const &))
        2    ??0GeometryNode@@QAE@PAVMesh@@@Z (public: __thiscall GeometryNode::GeometryNode(class Mesh *))
        3    ??0LightSource@@QAE@XZ (public: __thiscall LightSource::LightSource(void))
        4    ??0MD2Model@@QAE@XZ (public: __thiscall MD2Model::MD2Model(void))
        5    ??0Matrix@@QAE@ABV0@@Z (public: __thiscall Matrix::Matrix(class Matrix const &))
        6    ??0Matrix@@QAE@II@Z (public: __thiscall Matrix::Matrix(unsigned int,unsigned int))
        7    ??0Matrix@@QAE@XZ (public: __thiscall Matrix::Matrix(void))
        8    ??0NMSCameraController@@QAE@ABV0@@Z (public: __thiscall NMSCameraController::NMSCameraController(class NMSCameraController const &))
        9    ??0NMSCameraController@@QAE@XZ (public: __thiscall NMSCameraController::NMSCameraController(void))
       10    ??0NMSCameraFPS@@QAE@ABV0@@Z (public: __thiscall NMSCameraFPS::NMSCameraFPS(class NMSCameraFPS const &))
       11    ??0NMSCameraFPS@@QAE@XZ (public: __thiscall NMSCameraFPS::NMSCameraFPS(void))
       12    ??0NMS_3DObject@@QAE@PBVVector@@0@Z (public: __thiscall NMS_3DObject::NMS_3DObject(class Vector const *,class Vector const *))
       13    ??0NMS_3DObject@@QAE@XZ (public: __thiscall NMS_3DObject::NMS_3DObject(void))
       14    ??0NMS_AssetManager@@QAE@XZ (public: __thiscall NMS_AssetManager::NMS_AssetManager(void))
       15    ??0NMS_Event@@AAE@XZ (private: __thiscall NMS_Event::NMS_Event(void))
       16    ??0NMS_Event@@QAE@ABV0@@Z (public: __thiscall NMS_Event::NMS_Event(class NMS_Event const &))
       17    ??0NMS_Framework@@QAE@ABV0@@Z (public: __thiscall NMS_Framework::NMS_Framework(class NMS_Framework const &))
       18    ??0NMS_Framework@@QAE@XZ (public: __thiscall NMS_Framework::NMS_Framework(void))
       19    ??0NMS_LightSystem@@QAE@XZ (public: __thiscall NMS_LightSystem::NMS_LightSystem(void))
       20    ??0NMS_SceneRenderer@@QAE@ABV0@@Z (public: __thiscall NMS_SceneRenderer::NMS_SceneRenderer(class NMS_SceneRenderer const &))
       21    ??0NMS_SceneRenderer@@QAE@XZ (public: __thiscall NMS_SceneRenderer::NMS_SceneRenderer(void))
       22    ??0NMS_TextureManager@@QAE@ABV0@@Z (public: __thiscall NMS_TextureManager::NMS_TextureManager(class NMS_TextureManager const &))
       23    ??0NMS_TextureManager@@QAE@XZ (public: __thiscall NMS_TextureManager::NMS_TextureManager(void))
       24    ??0Point@@QAE@MMM@Z (public: __thiscall Point::Point(float,float,float))
       25    ??0Point@@QAE@XZ (public: __thiscall Point::Point(void))
       26    ??0Quaternion@@QAE@MMMM@Z (public: __thiscall Quaternion::Quaternion(float,float,float,float))
       27    ??0Quaternion@@QAE@XZ (public: __thiscall Quaternion::Quaternion(void))
       28    ??0SceneGraphNode@@QAE@ABV0@@Z (public: __thiscall SceneGraphNode::SceneGraphNode(class SceneGraphNode const &))
       29    ??0SceneGraphNode@@QAE@XZ (public: __thiscall SceneGraphNode::SceneGraphNode(void))
       30    ??0SceneGraphVisitor@@QAE@ABV0@@Z (public: __thiscall SceneGraphVisitor::SceneGraphVisitor(class SceneGraphVisitor const &))
       31    ??0SceneGraphVisitor@@QAE@XZ (public: __thiscall SceneGraphVisitor::SceneGraphVisitor(void))
       32    ??0Thread@@QAE@ABV0@@Z (public: __thiscall Thread::Thread(class Thread const &))
       33    ??0Thread@@QAE@XZ (public: __thiscall Thread::Thread(void))
       34    ??0TransformationNode@@QAE@ABV0@@Z (public: __thiscall TransformationNode::TransformationNode(class TransformationNode const &))
       35    ??0TransformationNode@@QAE@VMatrix@@@Z (public: __thiscall TransformationNode::TransformationNode(class Matrix))
       36    ??0TransformationNode@@QAE@XZ (public: __thiscall TransformationNode::TransformationNode(void))
       37    ??0Vector@@QAE@MMM@Z (public: __thiscall Vector::Vector(float,float,float))
       38    ??0Vector@@QAE@MMMM@Z (public: __thiscall Vector::Vector(float,float,float,float))
       39    ??0Vector@@QAE@XZ (public: __thiscall Vector::Vector(void))
       40    ??1GeometryNode@@QAE@XZ (public: __thiscall GeometryNode::~GeometryNode(void))
       41    ??1LightSource@@QAE@XZ (public: __thiscall LightSource::~LightSource(void))
       42    ??1MD2Model@@QAE@XZ (public: __thiscall MD2Model::~MD2Model(void))
       43    ??1Matrix@@QAE@XZ (public: __thiscall Matrix::~Matrix(void))
       44    ??1NMSCameraController@@QAE@XZ (public: __thiscall NMSCameraController::~NMSCameraController(void))
       45    ??1NMSCameraFPS@@QAE@XZ (public: __thiscall NMSCameraFPS::~NMSCameraFPS(void))
       46    ??1NMS_3DObject@@QAE@XZ (public: __thiscall NMS_3DObject::~NMS_3DObject(void))
       47    ??1NMS_AssetManager@@QAE@XZ (public: __thiscall NMS_AssetManager::~NMS_AssetManager(void))
       48    ??1NMS_Event@@QAE@XZ (public: __thiscall NMS_Event::~NMS_Event(void))
       49    ??1NMS_Framework@@QAE@XZ (public: __thiscall NMS_Framework::~NMS_Framework(void))
       50    ??1NMS_TextureManager@@QAE@XZ (public: __thiscall NMS_TextureManager::~NMS_TextureManager(void))
       51    ??1Point@@QAE@XZ (public: __thiscall Point::~Point(void))
       52    ??1Quaternion@@QAE@XZ (public: __thiscall Quaternion::~Quaternion(void))
       53    ??1SceneGraphNode@@QAE@XZ (public: __thiscall SceneGraphNode::~SceneGraphNode(void))
       54    ??1TransformationNode@@QAE@XZ (public: __thiscall TransformationNode::~TransformationNode(void))
       55    ??1Vector@@QAE@XZ (public: __thiscall Vector::~Vector(void))
       56    ??4GeometryNode@@QAEAAV0@ABV0@@Z (public: class GeometryNode & __thiscall GeometryNode::operator=(class GeometryNode const &))
       57    ??4LightSource@@QAEAAV0@ABV0@@Z (public: class LightSource & __thiscall LightSource::operator=(class LightSource const &))
       58    ??4MD2Model@@QAEAAV0@ABV0@@Z (public: class MD2Model & __thiscall MD2Model::operator=(class MD2Model const &))
       59    ??4Matrix@@QAEABV0@ABV0@@Z (public: class Matrix const & __thiscall Matrix::operator=(class Matrix const &))
       60    ??4Mesh@@QAEAAV0@ABV0@@Z (public: class Mesh & __thiscall Mesh::operator=(class Mesh const &))
       61    ??4NMSCameraController@@QAEAAV0@ABV0@@Z (public: class NMSCameraController & __thiscall NMSCameraController::operator=(class NMSCameraController const &))
       62    ??4NMSCameraFPS@@QAEAAV0@ABV0@@Z (public: class NMSCameraFPS & __thiscall NMSCameraFPS::operator=(class NMSCameraFPS const &))
       63    ??4NMS_3DObject@@QAEAAV0@ABV0@@Z (public: class NMS_3DObject & __thiscall NMS_3DObject::operator=(class NMS_3DObject const &))
       64    ??4NMS_AssetManager@@QAEAAV0@ABV0@@Z (public: class NMS_AssetManager & __thiscall NMS_AssetManager::operator=(class NMS_AssetManager const &))
       65    ??4NMS_Event@@QAEAAV0@ABV0@@Z (public: class NMS_Event & __thiscall NMS_Event::operator=(class NMS_Event const &))
       66    ??4NMS_Framework@@QAEAAV0@ABV0@@Z (public: class NMS_Framework & __thiscall NMS_Framework::operator=(class NMS_Framework const &))
       67    ??4NMS_LightSystem@@QAEAAV0@ABV0@@Z (public: class NMS_LightSystem & __thiscall NMS_LightSystem::operator=(class NMS_LightSystem const &))
       68    ??4NMS_SceneRenderer@@QAEAAV0@ABV0@@Z (public: class NMS_SceneRenderer & __thiscall NMS_SceneRenderer::operator=(class NMS_SceneRenderer const &))
       69    ??4NMS_TextureManager@@QAEAAV0@ABV0@@Z (public: class NMS_TextureManager & __thiscall NMS_TextureManager::operator=(class NMS_TextureManager const &))
       70    ??4Point@@QAEAAV0@ABV0@@Z (public: class Point & __thiscall Point::operator=(class Point const &))
       71    ??4Quaternion@@QAEAAV0@ABV0@@Z (public: class Quaternion & __thiscall Quaternion::operator=(class Quaternion const &))
       72    ??4SceneGraphNode@@QAEAAV0@ABV0@@Z (public: class SceneGraphNode & __thiscall SceneGraphNode::operator=(class SceneGraphNode const &))
       73    ??4SceneGraphVisitor@@QAEAAV0@ABV0@@Z (public: class SceneGraphVisitor & __thiscall SceneGraphVisitor::operator=(class SceneGraphVisitor const &))
       74    ??4Thread@@QAEAAV0@ABV0@@Z (public: class Thread & __thiscall Thread::operator=(class Thread const &))
       75    ??4TransformationNode@@QAEAAV0@ABV0@@Z (public: class TransformationNode & __thiscall TransformationNode::operator=(class TransformationNode const &))
       76    ??4Vector@@QAEAAV0@ABV0@@Z (public: class Vector & __thiscall Vector::operator=(class Vector const &))
       77    ??4nmsTrig@@QAEAAV0@ABV0@@Z (public: class nmsTrig & __thiscall nmsTrig::operator=(class nmsTrig const &))
       78    ??APoint@@QAEAAMH@Z (public: float & __thiscall Point::operator[](int))
       79    ??APoint@@QBEABMH@Z (public: float const & __thiscall Point::operator[](int)const )
       80    ??DQuaternion@@QBE?AV0@ABV0@@Z (public: class Quaternion __thiscall Quaternion::operator*(class Quaternion const &)const )
       81    ??DVector@@QAEMABV0@@Z (public: float __thiscall Vector::operator*(class Vector const &))
       82    ??GPoint@@QAE?AV0@ABVVector@@@Z (public: class Point __thiscall Point::operator-(class Vector const &))
       83    ??GPoint@@QAE?AVVector@@ABV0@@Z (public: class Vector __thiscall Point::operator-(class Point const &))
       84    ??HPoint@@QAE?AV0@ABVVector@@@Z (public: class Point __thiscall Point::operator+(class Vector const &))
       85    ??LVector@@QAE?AV0@ABV0@@Z (public: class Vector __thiscall Vector::operator%(class Vector const &))
       86    ??RMatrix@@QAEAAMII@Z (public: float & __thiscall Matrix::operator()(unsigned int,unsigned int))
       87    ??RMatrix@@QBE?BMII@Z (public: float const __thiscall Matrix::operator()(unsigned int,unsigned int)const )
       88    ??XMatrix@@QAEAAV0@ABM@Z (public: class Matrix & __thiscall Matrix::operator*=(float const &))
       89    ??XMatrix@@QAEAAV0@ABV0@@Z (public: class Matrix & __thiscall Matrix::operator*=(class Matrix const &))
       90    ??XPoint@@QAEAAV0@ABVMatrix@@@Z (public: class Point & __thiscall Point::operator*=(class Matrix const &))
       91    ??XQuaternion@@QAEXABV0@@Z (public: void __thiscall Quaternion::operator*=(class Quaternion const &))
       92    ??XVector@@QAEAAV0@ABVMatrix@@@Z (public: class Vector & __thiscall Vector::operator*=(class Matrix const &))
       93    ??XVector@@QAEAAV0@M@Z (public: class Vector & __thiscall Vector::operator*=(float))
       94    ??YVector@@QAEAAV0@ABV0@@Z (public: class Vector & __thiscall Vector::operator+=(class Vector const &))
       95    ??ZVector@@QAEAAV0@ABV0@@Z (public: class Vector & __thiscall Vector::operator-=(class Vector const &))
       96    ??_0Vector@@QAEAAV0@M@Z (public: class Vector & __thiscall Vector::operator/=(float))
       97    ??_7GeometryNode@@6B@ (const GeometryNode::`vftable')
       98    ??_7NMSCameraController@@6B@ (const NMSCameraController::`vftable')
       99    ??_7NMSCameraFPS@@6B@ (const NMSCameraFPS::`vftable')
      100    ??_7NMS_SceneRenderer@@6BSceneGraphVisitor@@@ (const NMS_SceneRenderer::`vftable'{for `SceneGraphVisitor'})
      101    ??_7NMS_SceneRenderer@@6BThread@@@ (const NMS_SceneRenderer::`vftable'{for `Thread'})
      102    ??_7SceneGraphNode@@6B@ (const SceneGraphNode::`vftable')
      103    ??_7SceneGraphVisitor@@6B@ (const SceneGraphVisitor::`vftable')
      104    ??_7Thread@@6B@ (const Thread::`vftable')
      105    ??_7TransformationNode@@6B@ (const TransformationNode::`vftable')
      106    ?Animate@MD2Model@@AAEXM@Z (private: void __thiscall MD2Model::Animate(float))
      107    ?CalculateFrameRate@NMS_Framework@@QAEXXZ (public: void __thiscall NMS_Framework::CalculateFrameRate(void))
      108    ?Destroy@NMS_AssetManager@@SAXXZ (public: static void __cdecl NMS_AssetManager::Destroy(void))
      109    ?Destroy@NMS_TextureManager@@SAXXZ (public: static void __cdecl NMS_TextureManager::Destroy(void))
      110    ?Disable@NMS_LightSystem@@QAEXXZ (public: void __thiscall NMS_LightSystem::Disable(void))
      111    ?DrawFrame@MD2Model@@QAEXHH@Z (public: void __thiscall MD2Model::DrawFrame(int,int))
      112    ?DrawModel@MD2Model@@QAEXM@Z (public: void __thiscall MD2Model::DrawModel(float))
      113    ?Enable@NMS_LightSystem@@QAEXH@Z (public: void __thiscall NMS_LightSystem::Enable(int))
      114    ?Free@MD2Model@@AAEXPAPAX@Z (private: void __thiscall MD2Model::Free(void * *))
      115    ?FreeAll@NMS_AssetManager@@QAEXXZ (public: void __thiscall NMS_AssetManager::FreeAll(void))
      116    ?FreeAll@NMS_TextureManager@@QAEXXZ (public: void __thiscall NMS_TextureManager::FreeAll(void))
      117    ?FreeTexture@NMS_AssetManager@@QAEXPAD@Z (public: void __thiscall NMS_AssetManager::FreeTexture(char *))
      118    ?FreeTexture@NMS_TextureManager@@QAEXPAD@Z (public: void __thiscall NMS_TextureManager::FreeTexture(char *))
      119    ?GetErrorMessage@NMS_AssetManager@@QAEPADXZ (public: char * __thiscall NMS_AssetManager::GetErrorMessage(void))
      120    ?GetSingleton@NMS_AssetManager@@SAAAV1@XZ (public: static class NMS_AssetManager & __cdecl NMS_AssetManager::GetSingleton(void))
      121    ?GetSingleton@NMS_TextureManager@@SAAAV1@XZ (public: static class NMS_TextureManager & __cdecl NMS_TextureManager::GetSingleton(void))
      122    ?InitData@MD2Model@@AAEXXZ (private: void __thiscall MD2Model::InitData(void))
      123    ?InitEngine@@YA_NHHHPAD_N@Z (bool __cdecl InitEngine(int,int,int,char *,bool))
      124    ?Initialize@NMS_AssetManager@@CAXXZ (private: static void __cdecl NMS_AssetManager::Initialize(void))
      125    ?Initialize@NMS_TextureManager@@CAXXZ (private: static void __cdecl NMS_TextureManager::Initialize(void))
      126    ?Interpolate@MD2Model@@AAEXPAY02M@Z (private: void __thiscall MD2Model::Interpolate(float (*)[3]))
      127    ?LoadData@MD2Model@@AAEXXZ (private: void __thiscall MD2Model::LoadData(void))
      128    ?LoadFrames@MD2Model@@AAEXXZ (private: void __thiscall MD2Model::LoadFrames(void))
      129    ?LoadGLCommands@MD2Model@@AAEXXZ (private: void __thiscall MD2Model::LoadGLCommands(void))
      130    ?LoadModel@MD2Model@@QAEHPBD@Z (public: int __thiscall MD2Model::LoadModel(char const *))
      131    ?LoadSkin@MD2Model@@QAEHPAD@Z (public: int __thiscall MD2Model::LoadSkin(char *))
      132    ?LoadTexture@NMS_AssetManager@@QAEHPBDPAD@Z (public: int __thiscall NMS_AssetManager::LoadTexture(char const *,char *))
      133    ?LoadTexture@NMS_TextureManager@@QAEHPBDPAD@Z (public: int __thiscall NMS_TextureManager::LoadTexture(char const *,char *))
      134    ?Malloc@MD2Model@@AAEPAXI@Z (private: void * __thiscall MD2Model::Malloc(unsigned int))
      135    ?NMSInit@NMS_Framework@@QAE_NHHHPAD_N@Z (public: bool __thiscall NMS_Framework::NMSInit(int,int,int,char *,bool))
      136    ?NMSQuit@NMS_Framework@@QAEXH@Z (public: void __thiscall NMS_Framework::NMSQuit(int))
      137    ?QuitEngine@@YAXXZ (void __cdecl QuitEngine(void))
      138    ?ReadFile@MD2Model@@AAEHPBD@Z (private: int __thiscall MD2Model::ReadFile(char const *))
      139    ?ReadHeader@MD2Model@@AAEHPAEPAUHeader@@@Z (private: int __thiscall MD2Model::ReadHeader(unsigned char *,struct Header *))
      140    ?RenderFrame@MD2Model@@AAEXXZ (private: void __thiscall MD2Model::RenderFrame(void))
      141    ?SetAnim@MD2Model@@QAEXH@Z (public: void __thiscall MD2Model::SetAnim(int))
      142    ?StartEngine@@YAXXZ (void __cdecl StartEngine(void))
      143    ?UpdateCamera@NMSCameraFPS@@QAEXM@Z (public: void __thiscall NMSCameraFPS::UpdateCamera(float))
      144    ?addChild@SceneGraphNode@@QAEXPAV1@@Z (public: void __thiscall SceneGraphNode::addChild(class SceneGraphNode *))
      145    ?after@GeometryNode@@UAEXPAVSceneGraphVisitor@@PAVMatrix@@@Z (public: virtual void __thiscall GeometryNode::after(class SceneGraphVisitor *,class Matrix *))
      146    ?after@TransformationNode@@UAEXPAVSceneGraphVisitor@@PAVMatrix@@@Z (public: virtual void __thiscall TransformationNode::after(class SceneGraphVisitor *,class Matrix *))
      147    ?animlist@MD2Model@@2PAUanim_t@@A (public: static struct anim_t * MD2Model::animlist)
      148    ?anorms@MD2Model@@0PAY02MA (private: static float (* MD2Model::anorms)[3])
      149    ?before@GeometryNode@@UAEXPAVSceneGraphVisitor@@PAVMatrix@@@Z (public: virtual void __thiscall GeometryNode::before(class SceneGraphVisitor *,class Matrix *))
      150    ?before@TransformationNode@@UAEXPAVSceneGraphVisitor@@PAVMatrix@@@Z (public: virtual void __thiscall TransformationNode::before(class SceneGraphVisitor *,class Matrix *))
      151    ?checkForHash@NMS_TextureManager@@AAE?AUtextStruct@@PAD0@Z (private: struct textStruct __thiscall NMS_TextureManager::checkForHash(char *,char *))
      152    ?cleanup@NMS_Framework@@QAEXXZ (public: void __thiscall NMS_Framework::cleanup(void))
      153    ?cos@nmsTrig@@SAMN@Z (public: static float __cdecl nmsTrig::cos(double))
      154    ?createFromAngles@Quaternion@@QAEXMMM@Z (public: void __thiscall Quaternion::createFromAngles(float,float,float))
      155    ?debugPrint@Matrix@@QAEXXZ (public: void __thiscall Matrix::debugPrint(void))
      156    ?defineLight@NMS_LightSystem@@QAEXVLightSource@@@Z (public: void __thiscall NMS_LightSystem::defineLight(class LightSource))
      157    ?degToRad@nmsTrig@@SAMM@Z (public: static float __cdecl nmsTrig::degToRad(float))
      158    ?degToRad@nmsTrig@@SANN@Z (public: static double __cdecl nmsTrig::degToRad(double))
      159    ?destroy@NMS_Event@@SAXXZ (public: static void __cdecl NMS_Event::destroy(void))
      160    ?down@NMS_SceneRenderer@@QAEXXZ (public: void __thiscall NMS_SceneRenderer::down(void))
      161    ?enableWireframe@NMS_Framework@@QAEX_N@Z (public: void __thiscall NMS_Framework::enableWireframe(bool))
      162    ?engine@@3VNMS_Framework@@A (class NMS_Framework engine)
      163    ?getAttFact@LightSource@@QAEMXZ (public: float __thiscall LightSource::getAttFact(void))
      164    ?getAttType@LightSource@@QAEIXZ (public: unsigned int __thiscall LightSource::getAttType(void))
      165    ?getCol@Matrix@@QAE?AVVector@@I@Z (public: class Vector __thiscall Matrix::getCol(unsigned int))
      166    ?getColL@Matrix@@QBEIXZ (public: unsigned int __thiscall Matrix::getColL(void)const )
      167    ?getDir@NMSCameraController@@QAE?AVVector@@XZ (public: class Vector __thiscall NMSCameraController::getDir(void))
      168    ?getDirVector@NMS_3DObject@@QAE?AVVector@@XZ (public: class Vector __thiscall NMS_3DObject::getDirVector(void))
      169    ?getInstance@NMS_Event@@SAAAV1@XZ (public: static class NMS_Event & __cdecl NMS_Event::getInstance(void))
      170    ?getIntDis@LightSource@@QAEMXZ (public: float __thiscall LightSource::getIntDis(void))
      171    ?getLightNumber@LightSource@@QAEIXZ (public: unsigned int __thiscall LightSource::getLightNumber(void))
      172    ?getLightValue@LightSource@@QAE?AVVector@@XZ (public: class Vector __thiscall LightSource::getLightValue(void))
      173    ?getMatrix@Quaternion@@QAE?AVMatrix@@XZ (public: class Matrix __thiscall Quaternion::getMatrix(void))
      174    ?getPos@NMSCameraController@@QAE?AVVector@@XZ (public: class Vector __thiscall NMSCameraController::getPos(void))
      175    ?getPosVector@NMS_3DObject@@QAE?AVVector@@XZ (public: class Vector __thiscall NMS_3DObject::getPosVector(void))
      176    ?getRSpeedX@NMSCameraFPS@@QAEMXZ (public: float __thiscall NMSCameraFPS::getRSpeedX(void))
      177    ?getRSpeedY@NMSCameraFPS@@QAEMXZ (public: float __thiscall NMSCameraFPS::getRSpeedY(void))
      178    ?getRight@NMSCameraController@@QAE?AVVector@@XZ (public: class Vector __thiscall NMSCameraController::getRight(void))
      179    ?getRotation@NMSCameraFPS@@QAE?AVVector@@XZ (public: class Vector __thiscall NMSCameraFPS::getRotation(void))
      180    ?getRow@Matrix@@QAE?AVVector@@I@Z (public: class Vector __thiscall Matrix::getRow(unsigned int))
      181    ?getRowL@Matrix@@QBEIXZ (public: unsigned int __thiscall Matrix::getRowL(void)const )
      182    ?getScene@NMS_Framework@@QAEPAVSceneGraphNode@@XZ (public: class SceneGraphNode * __thiscall NMS_Framework::getScene(void))
      183    ?getSlideSpeed@NMSCameraFPS@@QAEMXZ (public: float __thiscall NMSCameraFPS::getSlideSpeed(void))
      184    ?getSpeed@NMSCameraFPS@@QAEMXZ (public: float __thiscall NMSCameraFPS::getSpeed(void))
      185    ?getThread@Thread@@QAEPAUSDL_Thread@@XZ (public: struct SDL_Thread * __thiscall Thread::getThread(void))
      186    ?getUp@NMSCameraController@@QAE?AVVector@@XZ (public: class Vector __thiscall NMSCameraController::getUp(void))
      187    ?getVelocity@NMSCameraController@@QAE?AVVector@@XZ (public: class Vector __thiscall NMSCameraController::getVelocity(void))
      188    ?handleEvent@NMS_Event@@QAEXTSDL_Event@@@Z (public: void __thiscall NMS_Event::handleEvent(union SDL_Event))
      189    ?init@NMSCameraFPS@@MAEXXZ (protected: virtual void __thiscall NMSCameraFPS::init(void))
      190    ?initRendering@NMS_SceneRenderer@@QAE_NXZ (public: bool __thiscall NMS_SceneRenderer::initRendering(void))
      191    ?m_Singleton@NMS_AssetManager@@0PAV1@A (private: static class NMS_AssetManager * NMS_AssetManager::m_Singleton)
      192    ?m_Singleton@NMS_TextureManager@@0PAV1@A (private: static class NMS_TextureManager * NMS_TextureManager::m_Singleton)
      193    ?m_iMessageSize@NMS_TextureManager@@0IB (private: static unsigned int const NMS_TextureManager::m_iMessageSize)
      194    ?magnitude@Vector@@QAEMXZ (public: float __thiscall Vector::magnitude(void))
      195    ?memoryRealloc@Matrix@@AAEXIIII@Z (private: void __thiscall Matrix::memoryRealloc(unsigned int,unsigned int,unsigned int,unsigned int))
      196    ?multiply@TransformationNode@@QAEXVMatrix@@@Z (public: void __thiscall TransformationNode::multiply(class Matrix))
      197    ?normal@Vector@@QAE?AV1@XZ (public: class Vector __thiscall Vector::normal(void))
      198    ?onKeyPressed@NMS_Event@@QAEXP6AXW4SDLKey@@@Z@Z (public: void __thiscall NMS_Event::onKeyPressed(void (__cdecl*)(enum SDLKey)))
      199    ?pollEvents@NMS_Event@@QAEXXZ (public: void __thiscall NMS_Event::pollEvents(void))
      200    ?processEvents@NMS_Event@@QAEXXZ (public: void __thiscall NMS_Event::processEvents(void))
      201    ?radToDeg@nmsTrig@@SAMM@Z (public: static float __cdecl nmsTrig::radToDeg(float))
      202    ?radToDeg@nmsTrig@@SANN@Z (public: static double __cdecl nmsTrig::radToDeg(double))
      203    ?recalcAxes@NMSCameraFPS@@MAEXXZ (protected: virtual void __thiscall NMSCameraFPS::recalcAxes(void))
      204    ?render@Mesh@@QAEXXZ (public: void __thiscall Mesh::render(void))
      205    ?render@NMS_Framework@@QAEXXZ (public: void __thiscall NMS_Framework::render(void))
      206    ?render@NMS_SceneRenderer@@QAEXXZ (public: void __thiscall NMS_SceneRenderer::render(void))
      207    ?renderingLoop@NMS_SceneRenderer@@QAEHXZ (public: int __thiscall NMS_SceneRenderer::renderingLoop(void))
      208    ?resize@Matrix@@QAEXIIII@Z (public: void __thiscall Matrix::resize(unsigned int,unsigned int,unsigned int,unsigned int))
      209    ?returnPointer@Matrix@@QAEPAMXZ (public: float * __thiscall Matrix::returnPointer(void))
      210    ?returnViewMatrix@NMSCameraController@@QAE?AVMatrix@@XZ (public: class Matrix __thiscall NMSCameraController::returnViewMatrix(void))
      211    ?rotV@Matrix@@QAEXABNABVVector@@@Z (public: void __thiscall Matrix::rotV(double const &,class Vector const &))
      212    ?rotX@Matrix@@QAEXABN@Z (public: void __thiscall Matrix::rotX(double const &))
      213    ?rotY@Matrix@@QAEXABN@Z (public: void __thiscall Matrix::rotY(double const &))
      214    ?rotZ@Matrix@@QAEXABN@Z (public: void __thiscall Matrix::rotZ(double const &))
      215    ?run@NMS_Framework@@QAEXXZ (public: void __thiscall NMS_Framework::run(void))
      216    ?run@NMS_SceneRenderer@@UAEHXZ (public: virtual int __thiscall NMS_SceneRenderer::run(void))
      217    ?run@Thread@@UAEHXZ (public: virtual int __thiscall Thread::run(void))
      218    ?setAttFact@LightSource@@QAEXM@Z (public: void __thiscall LightSource::setAttFact(float))
      219    ?setAttType@LightSource@@QAEXI@Z (public: void __thiscall LightSource::setAttType(unsigned int))
      220    ?setCol@Matrix@@QAEXIABVVector@@@Z (public: void __thiscall Matrix::setCol(unsigned int,class Vector const &))
      221    ?setDir@NMSCameraFPS@@QAEXAAVVector@@@Z (public: void __thiscall NMSCameraFPS::setDir(class Vector &))
      222    ?setDirVector@NMS_3DObject@@QAEXPBVVector@@@Z (public: void __thiscall NMS_3DObject::setDirVector(class Vector const *))
      223    ?setGlobalAmbient@NMS_LightSystem@@QAEXPBVVector@@@Z (public: void __thiscall NMS_LightSystem::setGlobalAmbient(class Vector const *))
      224    ?setIntDis@LightSource@@QAEXM@Z (public: void __thiscall LightSource::setIntDis(float))
      225    ?setLightNumber@LightSource@@QAEXI@Z (public: void __thiscall LightSource::setLightNumber(unsigned int))
      226    ?setLightValue@LightSource@@QAEXPBVVector@@@Z (public: void __thiscall LightSource::setLightValue(class Vector const *))
      227    ?setPos@NMSCameraFPS@@QAEXAAVVector@@@Z (public: void __thiscall NMSCameraFPS::setPos(class Vector &))
      228    ?setPosVector@NMS_3DObject@@QAEXPBVVector@@@Z (public: void __thiscall NMS_3DObject::setPosVector(class Vector const *))
      229    ?setRSpeedX@NMSCameraFPS@@QAEXM@Z (public: void __thiscall NMSCameraFPS::setRSpeedX(float))
      230    ?setRSpeedY@NMSCameraFPS@@QAEXM@Z (public: void __thiscall NMSCameraFPS::setRSpeedY(float))
      231    ?setRight@NMSCameraFPS@@QAEXAAVVector@@@Z (public: void __thiscall NMSCameraFPS::setRight(class Vector &))
      232    ?setRotation@NMSCameraFPS@@QAEXMMM@Z (public: void __thiscall NMSCameraFPS::setRotation(float,float,float))
      233    ?setRow@Matrix@@QAEXIABVVector@@@Z (public: void __thiscall Matrix::setRow(unsigned int,class Vector const &))
      234    ?setScene@NMS_SceneRenderer@@QAEXPAVSceneGraphNode@@PAUSDL_mutex@@@Z (public: void __thiscall NMS_SceneRenderer::setScene(class SceneGraphNode *,struct SDL_mutex *))
      235    ?setSlideSpeed@NMSCameraFPS@@QAEXM@Z (public: void __thiscall NMSCameraFPS::setSlideSpeed(float))
      236    ?setSpeed@NMSCameraFPS@@QAEXM@Z (public: void __thiscall NMSCameraFPS::setSpeed(float))
      237    ?setUp@NMSCameraFPS@@QAEXAAVVector@@@Z (public: void __thiscall NMSCameraFPS::setUp(class Vector &))
      238    ?sg_after@NMS_SceneRenderer@@UAEXVMatrix@@VMesh@@@Z (public: virtual void __thiscall NMS_SceneRenderer::sg_after(class Matrix,class Mesh))
      239    ?sg_before@NMS_SceneRenderer@@UAEXVMatrix@@VMesh@@@Z (public: virtual void __thiscall NMS_SceneRenderer::sg_before(class Matrix,class Mesh))
      240    ?shear@Matrix@@QAEXABMABI1@Z (public: void __thiscall Matrix::shear(float const &,unsigned int const &,unsigned int const &))
      241    ?sin@nmsTrig@@SAMN@Z (public: static float __cdecl nmsTrig::sin(double))
      242    ?singleton@NMS_Event@@0PAV1@A (private: static class NMS_Event * NMS_Event::singleton)
      243    ?sqmagnitude@Vector@@QAEMXZ (public: float __thiscall Vector::sqmagnitude(void))
      244    ?start@Thread@@QAEXXZ (public: void __thiscall Thread::start(void))
      245    ?swapRows@Matrix@@QAEXII@Z (public: void __thiscall Matrix::swapRows(unsigned int,unsigned int))
      246    ?szErrorMessageSize@NMS_AssetManager@@0IB (private: static unsigned int const NMS_AssetManager::szErrorMessageSize)
      247    ?threadProxy@@YAHPAX@Z (int __cdecl threadProxy(void *))
      248    ?translate@Matrix@@QAEXABVVector@@@Z (public: void __thiscall Matrix::translate(class Vector const &))
      249    ?traverse_df@SceneGraphNode@@QAEXPAVSceneGraphVisitor@@@Z (public: void __thiscall SceneGraphNode::traverse_df(class SceneGraphVisitor *))
      250    ?traverse_df@SceneGraphNode@@QAEXPAVSceneGraphVisitor@@PAVMatrix@@@Z (public: void __thiscall SceneGraphNode::traverse_df(class SceneGraphVisitor *,class Matrix *))
      251    ?uScale@Matrix@@QAEXABM@Z (public: void __thiscall Matrix::uScale(float const &))
      252    ?up@NMS_SceneRenderer@@QAEXXZ (public: void __thiscall NMS_SceneRenderer::up(void))
