 nms_GL

 Timestamp is 4ca79fb0 (Sat Oct 02 23:10:08 2010)

 Preferred load address is 60800000

 Start         Length     Name                   Class
 0001:00000000 00013ba5H .textbss                DATA
 0002:00000000 00027d1dH .text                   CODE
 0002:00027d20 00003781H .text$x                 CODE
 0002:0002b4b0 0000105bH .text$yc                CODE
 0002:0002c510 0000104bH .text$yd                CODE
 0003:00000000 00000104H .CRT$XCA                DATA
 0003:00000104 00000104H .CRT$XCU                DATA
 0003:00000208 00000104H .CRT$XCZ                DATA
 0003:0000030c 00000104H .CRT$XIA                DATA
 0003:00000410 00000104H .CRT$XIAA               DATA
 0003:00000514 00000104H .CRT$XIC                DATA
 0003:00000618 00000104H .CRT$XIZ                DATA
 0003:00000720 00003510H .rdata                  DATA
 0003:00003c30 0000015aH .rdata$debug            DATA
 0003:00003d8c 000008ccH .rdata$r                DATA
 0003:00004658 00000104H .rtc$IAA                DATA
 0003:0000475c 0000010eH .rtc$IMZ                DATA
 0003:0000486c 00000104H .rtc$IZZ                DATA
 0003:00004970 00000104H .rtc$TAA                DATA
 0003:00004a74 0000010eH .rtc$TMZ                DATA
 0003:00004b84 00000104H .rtc$TZZ                DATA
 0003:00004c88 00002b87H .xdata$x                DATA
 0003:00007810 0000348dH .edata                  DATA
 0004:00000000 00001051H .data                   DATA
 0004:00001058 00000590H .bss                    DATA
 0005:00000000 000000a0H .idata$2                DATA
 0005:000000a0 00000014H .idata$3                DATA
 0005:000000b4 000004a8H .idata$4                DATA
 0005:0000055c 000004a8H .idata$5                DATA
 0005:00000a04 0000143dH .idata$6                DATA

  Address         Publics by Value              Rva+Base       Lib:Object

 0000:00000000       ___safe_se_handler_table   00000000     <absolute>
 0000:00000000       __except_list              00000000     <absolute>
 0000:00000000       ___safe_se_handler_count   00000000     <absolute>
 0000:00009876       __fltused                  00009876     <absolute>
 0000:00009876       __ldused                   00009876     <absolute>
 0000:00000000       ___ImageBase               60800000     <linker-defined>
 0001:00000000       __enc$textbss$begin        60801000     <linker-defined>
 0001:00013ba5       __enc$textbss$end          60814ba5     <linker-defined>
 0002:000023d0       ??0NMS_TextureManager@@QAE@ABV0@@Z 608173d0 f i MD2Model.obj
 0002:00002450       ??4NMS_TextureManager@@QAEAAV0@ABV0@@Z 60817450 f i MD2Model.obj
 0002:000024f0       ??0?$map@PADUtextStruct@@U?$less@PAD@std@@V?$allocator@U?$pair@QADUtextStruct@@@std@@@3@@std@@QAE@ABV01@@Z 608174f0 f i MD2Model.obj
 0002:00002550       ??4?$map@PADUtextStruct@@U?$less@PAD@std@@V?$allocator@U?$pair@QADUtextStruct@@@std@@@3@@std@@QAEAAV01@ABV01@@Z 60817550 f i MD2Model.obj
 0002:000025b0       ??4NMS_AssetManager@@QAEAAV0@ABV0@@Z 608175b0 f i MD2Model.obj
 0002:00002600       ??4MD2Model@@QAEAAV0@ABV0@@Z 60817600 f i MD2Model.obj
 0002:00002650       ??0MD2Model@@QAE@XZ        60817650 f   MD2Model.obj
 0002:000026e0       ??1MD2Model@@QAE@XZ        608176e0 f   MD2Model.obj
 0002:000027e0       ?LoadModel@MD2Model@@QAEHPBD@Z 608177e0 f   MD2Model.obj
 0002:000028f0       ?Malloc@MD2Model@@AAEPAXI@Z 608178f0 f   MD2Model.obj
 0002:00002980       ?Free@MD2Model@@AAEXPAPAX@Z 60817980 f   MD2Model.obj
 0002:00002a00       ?ReadFile@MD2Model@@AAEHPBD@Z 60817a00 f   MD2Model.obj
 0002:00002b80       ?ReadHeader@MD2Model@@AAEHPAEPAUHeader@@@Z 60817b80 f   MD2Model.obj
 0002:00002c30       ?InitData@MD2Model@@AAEXXZ 60817c30 f   MD2Model.obj
 0002:00002e00       ?LoadData@MD2Model@@AAEXXZ 60817e00 f   MD2Model.obj
 0002:00002e60       ?LoadFrames@MD2Model@@AAEXXZ 60817e60 f   MD2Model.obj
 0002:00003010       ?LoadGLCommands@MD2Model@@AAEXXZ 60818010 f   MD2Model.obj
 0002:000030a0       ?DrawFrame@MD2Model@@QAEXHH@Z 608180a0 f   MD2Model.obj
 0002:00003480       ?DrawModel@MD2Model@@QAEXM@Z 60818480 f   MD2Model.obj
 0002:00003590       ?RenderFrame@MD2Model@@AAEXXZ 60818590 f   MD2Model.obj
 0002:000037d0       ?Interpolate@MD2Model@@AAEXPAY02M@Z 608187d0 f   MD2Model.obj
 0002:00003950       ?LoadSkin@MD2Model@@QAEHPAD@Z 60818950 f   MD2Model.obj
 0002:000039c0       ?SetAnim@MD2Model@@QAEXH@Z 608189c0 f   MD2Model.obj
 0002:00003a80       ?Animate@MD2Model@@AAEXM@Z 60818a80 f   MD2Model.obj
 0002:00003c00       ??0?$_Tree@V?$_Tmap_traits@PADUtextStruct@@U?$less@PAD@std@@V?$allocator@U?$pair@QADUtextStruct@@@std@@@3@$0A@@std@@@std@@QAE@ABV01@@Z 60818c00 f i MD2Model.obj
 0002:00003d20       ??4?$_Tree@V?$_Tmap_traits@PADUtextStruct@@U?$less@PAD@std@@V?$allocator@U?$pair@QADUtextStruct@@@std@@@3@$0A@@std@@@std@@QAEAAV01@ABV01@@Z 60818d20 f i MD2Model.obj
 0002:00003ed0       ??1?$_Tree_val@V?$_Tmap_traits@PADUtextStruct@@U?$less@PAD@std@@V?$allocator@U?$pair@QADUtextStruct@@@std@@@3@$0A@@std@@@std@@QAE@XZ 60818ed0 f i MD2Model.obj
 0002:00003f20       ??1iterator@?$_Tree@V?$_Tmap_traits@PADUtextStruct@@U?$less@PAD@std@@V?$allocator@U?$pair@QADUtextStruct@@@std@@@3@$0A@@std@@@std@@QAE@XZ 60818f20 f i MD2Model.obj
 0002:00003f70       ??0const_iterator@?$_Tree@V?$_Tmap_traits@PADUtextStruct@@U?$less@PAD@std@@V?$allocator@U?$pair@QADUtextStruct@@@std@@@3@$0A@@std@@@std@@QAE@ABV012@@Z 60818f70 f i MD2Model.obj
 0002:00003fe0       ??1const_iterator@?$_Tree@V?$_Tmap_traits@PADUtextStruct@@U?$less@PAD@std@@V?$allocator@U?$pair@QADUtextStruct@@@std@@@3@$0A@@std@@@std@@QAE@XZ 60818fe0 f i MD2Model.obj
 0002:00004030       ??1?$_Tree_ptr@V?$_Tmap_traits@PADUtextStruct@@U?$less@PAD@std@@V?$allocator@U?$pair@QADUtextStruct@@@std@@@3@$0A@@std@@@std@@QAE@XZ 60819030 f i MD2Model.obj
 0002:00004080       ??0?$_Bidit@U?$pair@QADUtextStruct@@@std@@HPBU12@ABU12@@std@@QAE@ABU01@@Z 60819080 f i MD2Model.obj
 0002:000040e0       ??1?$_Bidit@U?$pair@QADUtextStruct@@@std@@HPBU12@ABU12@@std@@QAE@XZ 608190e0 f i MD2Model.obj
 0002:00004130       ??1?$_Tree_nod@V?$_Tmap_traits@PADUtextStruct@@U?$less@PAD@std@@V?$allocator@U?$pair@QADUtextStruct@@@std@@@3@$0A@@std@@@std@@QAE@XZ 60819130 f i MD2Model.obj
 0002:00004180       ??0?$_Iterator_with_base@Ubidirectional_iterator_tag@std@@U?$pair@QADUtextStruct@@@2@HPBU32@ABU32@V_Iterator_base@2@@std@@QAE@ABU01@@Z 60819180 f i MD2Model.obj
 0002:000041e0       ??0_Iterator_base@std@@QAE@ABV01@@Z 608191e0 f i MD2Model.obj
 0002:00004260       ??4_Iterator_base@std@@QAEAAV01@ABV01@@Z 60819260 f i MD2Model.obj
 0002:00004390       ?_Adopt@_Iterator_base@std@@QAEXPBV_Container_base_secure@2@@Z 60819390 f i MD2Model.obj
 0002:000044d0       ?_Orphan_me@_Iterator_base@std@@QAEXXZ 608194d0 f i MD2Model.obj
 0002:000045b0       ??1?$_Iterator_with_base@Ubidirectional_iterator_tag@std@@U?$pair@QADUtextStruct@@@2@HPBU32@ABU32@V_Iterator_base@2@@std@@QAE@XZ 608195b0 f i MD2Model.obj
 0002:00004600       ??1_Iterator_base@std@@QAE@XZ 60819600 f i MD2Model.obj
 0002:00004700       ??1?$_Tmap_traits@PADUtextStruct@@U?$less@PAD@std@@V?$allocator@U?$pair@QADUtextStruct@@@std@@@3@$0A@@std@@QAE@XZ 60819700 f i MD2Model.obj
 0002:00004750       ?begin@?$_Tree@V?$_Tmap_traits@PADUtextStruct@@U?$less@PAD@std@@V?$allocator@U?$pair@QADUtextStruct@@@std@@@3@$0A@@std@@@std@@QAE?AViterator@12@XZ 60819750 f i MD2Model.obj
 0002:000047e0       ?end@?$_Tree@V?$_Tmap_traits@PADUtextStruct@@U?$less@PAD@std@@V?$allocator@U?$pair@QADUtextStruct@@@std@@@3@$0A@@std@@@std@@QAE?AViterator@12@XZ 608197e0 f i MD2Model.obj
 0002:00004870       ?get_allocator@?$_Tree@V?$_Tmap_traits@PADUtextStruct@@U?$less@PAD@std@@V?$allocator@U?$pair@QADUtextStruct@@@std@@@3@$0A@@std@@@std@@QBE?AV?$allocator@U?$pair@QADUtextStruct@@@std@@@2@XZ 60819870 f i MD2Model.obj
 0002:000048d0       ?key_comp@?$_Tree@V?$_Tmap_traits@PADUtextStruct@@U?$less@PAD@std@@V?$allocator@U?$pair@QADUtextStruct@@@std@@@3@$0A@@std@@@std@@QBE?AU?$less@PAD@2@XZ 608198d0 f i MD2Model.obj
 0002:00004910       ?erase@?$_Tree@V?$_Tmap_traits@PADUtextStruct@@U?$less@PAD@std@@V?$allocator@U?$pair@QADUtextStruct@@@std@@@3@$0A@@std@@@std@@QAE?AViterator@12@Vconst_iterator@12@0@Z 60819910 f i MD2Model.obj
 0002:00004c40       ?_Copy@?$_Tree@V?$_Tmap_traits@PADUtextStruct@@U?$less@PAD@std@@V?$allocator@U?$pair@QADUtextStruct@@@std@@@3@$0A@@std@@@std@@IAEXABV12@@Z 60819c40 f i MD2Model.obj
 0002:00004d60       ?_Init@?$_Tree@V?$_Tmap_traits@PADUtextStruct@@U?$less@PAD@std@@V?$allocator@U?$pair@QADUtextStruct@@@std@@@3@$0A@@std@@@std@@IAEXXZ 60819d60 f i MD2Model.obj
 0002:00004e20       ?_Tidy@?$_Tree@V?$_Tmap_traits@PADUtextStruct@@U?$less@PAD@std@@V?$allocator@U?$pair@QADUtextStruct@@@std@@@3@$0A@@std@@@std@@IAEXXZ 60819e20 f i MD2Model.obj
 0002:00005050       ??0?$_Tree_val@V?$_Tmap_traits@PADUtextStruct@@U?$less@PAD@std@@V?$allocator@U?$pair@QADUtextStruct@@@std@@@3@$0A@@std@@@std@@IAE@ABU?$less@PAD@1@V?$allocator@U?$pair@QADUtextStruct@@@std@@@1@@Z 6081a050 f i MD2Model.obj
 0002:000050e0       ??1?$_Container_base_aux_alloc_empty@V?$allocator@U?$pair@QADUtextStruct@@@std@@@std@@@std@@IAE@XZ 6081a0e0 f i MD2Model.obj
 0002:00005140       ?_Isnil@?$_Tree@V?$_Tmap_traits@PADUtextStruct@@U?$less@PAD@std@@V?$allocator@U?$pair@QADUtextStruct@@@std@@@3@$0A@@std@@@std@@KAAADPAU_Node@?$_Tree_nod@V?$_Tmap_traits@PADUtextStruct@@U?$less@PAD@std@@V?$allocator@U?$pair@QADUtextStruct@@@std@@@3@$0A@@std@@@2@@Z 6081a140 f i MD2Model.obj
 0002:00005180       ?_Left@?$_Tree@V?$_Tmap_traits@PADUtextStruct@@U?$less@PAD@std@@V?$allocator@U?$pair@QADUtextStruct@@@std@@@3@$0A@@std@@@std@@KAAAPAU_Node@?$_Tree_nod@V?$_Tmap_traits@PADUtextStruct@@U?$less@PAD@std@@V?$allocator@U?$pair@QADUtextStruct@@@std@@@3@$0A@@std@@@2@PAU342@@Z 6081a180 f i MD2Model.obj
 0002:000051c0       ?_Parent@?$_Tree@V?$_Tmap_traits@PADUtextStruct@@U?$less@PAD@std@@V?$allocator@U?$pair@QADUtextStruct@@@std@@@3@$0A@@std@@@std@@KAAAPAU_Node@?$_Tree_nod@V?$_Tmap_traits@PADUtextStruct@@U?$less@PAD@std@@V?$allocator@U?$pair@QADUtextStruct@@@std@@@3@$0A@@std@@@2@PAU342@@Z 6081a1c0 f i MD2Model.obj
 0002:00005200       ?_Right@?$_Tree@V?$_Tmap_traits@PADUtextStruct@@U?$less@PAD@std@@V?$allocator@U?$pair@QADUtextStruct@@@std@@@3@$0A@@std@@@std@@KAAAPAU_Node@?$_Tree_nod@V?$_Tmap_traits@PADUtextStruct@@U?$less@PAD@std@@V?$allocator@U?$pair@QADUtextStruct@@@std@@@3@$0A@@std@@@2@PAU342@@Z 6081a200 f i MD2Model.obj
 0002:00005240       ?_Make_iter@?$_Tree@V?$_Tmap_traits@PADUtextStruct@@U?$less@PAD@std@@V?$allocator@U?$pair@QADUtextStruct@@@std@@@3@$0A@@std@@@std@@QBE?AViterator@12@Vconst_iterator@12@@Z 6081a240 f i MD2Model.obj
 0002:00005350       ?size@?$_Tree@V?$_Tmap_traits@PADUtextStruct@@U?$less@PAD@std@@V?$allocator@U?$pair@QADUtextStruct@@@std@@@3@$0A@@std@@@std@@QBEIXZ 6081a350 f i MD2Model.obj
 0002:00005390       ?erase@?$_Tree@V?$_Tmap_traits@PADUtextStruct@@U?$less@PAD@std@@V?$allocator@U?$pair@QADUtextStruct@@@std@@@3@$0A@@std@@@std@@QAE?AViterator@12@Vconst_iterator@12@@Z 6081a390 f i MD2Model.obj
 0002:00005df0       ?clear@?$_Tree@V?$_Tmap_traits@PADUtextStruct@@U?$less@PAD@std@@V?$allocator@U?$pair@QADUtextStruct@@@std@@@3@$0A@@std@@@std@@QAEXXZ 6081adf0 f i MD2Model.obj
 0002:00005eb0       ?_Copy@?$_Tree@V?$_Tmap_traits@PADUtextStruct@@U?$less@PAD@std@@V?$allocator@U?$pair@QADUtextStruct@@@std@@@3@$0A@@std@@@std@@IAEPAU_Node@?$_Tree_nod@V?$_Tmap_traits@PADUtextStruct@@U?$less@PAD@std@@V?$allocator@U?$pair@QADUtextStruct@@@std@@@3@$0A@@std@@@2@PAU342@0@Z 6081aeb0 f i MD2Model.obj
 0002:000060d0       ?_Lmost@?$_Tree@V?$_Tmap_traits@PADUtextStruct@@U?$less@PAD@std@@V?$allocator@U?$pair@QADUtextStruct@@@std@@@3@$0A@@std@@@std@@IBEAAPAU_Node@?$_Tree_nod@V?$_Tmap_traits@PADUtextStruct@@U?$less@PAD@std@@V?$allocator@U?$pair@QADUtextStruct@@@std@@@3@$0A@@std@@@2@XZ 6081b0d0 f i MD2Model.obj
 0002:00006130       ?_Max@?$_Tree@V?$_Tmap_traits@PADUtextStruct@@U?$less@PAD@std@@V?$allocator@U?$pair@QADUtextStruct@@@std@@@3@$0A@@std@@@std@@KAPAU_Node@?$_Tree_nod@V?$_Tmap_traits@PADUtextStruct@@U?$less@PAD@std@@V?$allocator@U?$pair@QADUtextStruct@@@std@@@3@$0A@@std@@@2@PAU342@@Z 6081b130 f i MD2Model.obj
 0002:000061b0       ?_Min@?$_Tree@V?$_Tmap_traits@PADUtextStruct@@U?$less@PAD@std@@V?$allocator@U?$pair@QADUtextStruct@@@std@@@3@$0A@@std@@@std@@KAPAU_Node@?$_Tree_nod@V?$_Tmap_traits@PADUtextStruct@@U?$less@PAD@std@@V?$allocator@U?$pair@QADUtextStruct@@@std@@@3@$0A@@std@@@2@PAU342@@Z 6081b1b0 f i MD2Model.obj
 0002:00006230       ?_Rmost@?$_Tree@V?$_Tmap_traits@PADUtextStruct@@U?$less@PAD@std@@V?$allocator@U?$pair@QADUtextStruct@@@std@@@3@$0A@@std@@@std@@IBEAAPAU_Node@?$_Tree_nod@V?$_Tmap_traits@PADUtextStruct@@U?$less@PAD@std@@V?$allocator@U?$pair@QADUtextStruct@@@std@@@3@$0A@@std@@@2@XZ 6081b230 f i MD2Model.obj
 0002:00006290       ?_Root@?$_Tree@V?$_Tmap_traits@PADUtextStruct@@U?$less@PAD@std@@V?$allocator@U?$pair@QADUtextStruct@@@std@@@3@$0A@@std@@@std@@IBEAAPAU_Node@?$_Tree_nod@V?$_Tmap_traits@PADUtextStruct@@U?$less@PAD@std@@V?$allocator@U?$pair@QADUtextStruct@@@std@@@3@$0A@@std@@@2@XZ 6081b290 f i MD2Model.obj
 0002:000062f0       ?_Buynode@?$_Tree@V?$_Tmap_traits@PADUtextStruct@@U?$less@PAD@std@@V?$allocator@U?$pair@QADUtextStruct@@@std@@@3@$0A@@std@@@std@@IAEPAU_Node@?$_Tree_nod@V?$_Tmap_traits@PADUtextStruct@@U?$less@PAD@std@@V?$allocator@U?$pair@QADUtextStruct@@@std@@@3@$0A@@std@@@2@XZ 6081b2f0 f i MD2Model.obj
 0002:00006530       ??0?$_Tree_ptr@V?$_Tmap_traits@PADUtextStruct@@U?$less@PAD@std@@V?$allocator@U?$pair@QADUtextStruct@@@std@@@3@$0A@@std@@@std@@QAE@ABU?$less@PAD@1@V?$allocator@U?$pair@QADUtextStruct@@@std@@@1@@Z 6081b530 f i MD2Model.obj
 0002:000065c0       ??0?$allocator@U?$pair@QADUtextStruct@@@std@@@std@@QAE@ABV01@@Z 6081b5c0 f i MD2Model.obj
 0002:00006600       ?deallocate@?$allocator@U_Node@?$_Tree_nod@V?$_Tmap_traits@PADUtextStruct@@U?$less@PAD@std@@V?$allocator@U?$pair@QADUtextStruct@@@std@@@3@$0A@@std@@@std@@@std@@QAEXPAU_Node@?$_Tree_nod@V?$_Tmap_traits@PADUtextStruct@@U?$less@PAD@std@@V?$allocator@U?$pair@QADUtextStruct@@@std@@@3@$0A@@std@@@2@I@Z 6081b600 f i MD2Model.obj
 0002:00006660       ?destroy@?$allocator@PAU_Node@?$_Tree_nod@V?$_Tmap_traits@PADUtextStruct@@U?$less@PAD@std@@V?$allocator@U?$pair@QADUtextStruct@@@std@@@3@$0A@@std@@@std@@@std@@QAEXPAPAU_Node@?$_Tree_nod@V?$_Tmap_traits@PADUtextStruct@@U?$less@PAD@std@@V?$allocator@U?$pair@QADUtextStruct@@@std@@@3@$0A@@std@@@2@@Z 6081b660 f i MD2Model.obj
 0002:000066c0       ??0iterator@?$_Tree@V?$_Tmap_traits@PADUtextStruct@@U?$less@PAD@std@@V?$allocator@U?$pair@QADUtextStruct@@@std@@@3@$0A@@std@@@std@@QAE@PAU_Node@?$_Tree_nod@V?$_Tmap_traits@PADUtextStruct@@U?$less@PAD@std@@V?$allocator@U?$pair@QADUtextStruct@@@std@@@3@$0A@@std@@@2@PBV12@@Z 6081b6c0 f i MD2Model.obj
 0002:00006720       ??Econst_iterator@?$_Tree@V?$_Tmap_traits@PADUtextStruct@@U?$less@PAD@std@@V?$allocator@U?$pair@QADUtextStruct@@@std@@@3@$0A@@std@@@std@@QAE?AV012@H@Z 6081b720 f i MD2Model.obj
 0002:00006840       ??8const_iterator@?$_Tree@V?$_Tmap_traits@PADUtextStruct@@U?$less@PAD@std@@V?$allocator@U?$pair@QADUtextStruct@@@std@@@3@$0A@@std@@@std@@QBE_NABV012@@Z 6081b840 f i MD2Model.obj
 0002:00006950       ??9const_iterator@?$_Tree@V?$_Tmap_traits@PADUtextStruct@@U?$less@PAD@std@@V?$allocator@U?$pair@QADUtextStruct@@@std@@@3@$0A@@std@@@std@@QBE_NABV012@@Z 6081b950 f i MD2Model.obj
 0002:000069c0       ??0iterator@?$_Tree@V?$_Tmap_traits@PADUtextStruct@@U?$less@PAD@std@@V?$allocator@U?$pair@QADUtextStruct@@@std@@@3@$0A@@std@@@std@@QAE@ABV012@@Z 6081b9c0 f i MD2Model.obj
 0002:00006a20       ?_Color@?$_Tree@V?$_Tmap_traits@PADUtextStruct@@U?$less@PAD@std@@V?$allocator@U?$pair@QADUtextStruct@@@std@@@3@$0A@@std@@@std@@KAAADPAU_Node@?$_Tree_nod@V?$_Tmap_traits@PADUtextStruct@@U?$less@PAD@std@@V?$allocator@U?$pair@QADUtextStruct@@@std@@@3@$0A@@std@@@2@@Z 6081ba20 f i MD2Model.obj
 0002:00006a60       ?_Myval@?$_Tree@V?$_Tmap_traits@PADUtextStruct@@U?$less@PAD@std@@V?$allocator@U?$pair@QADUtextStruct@@@std@@@3@$0A@@std@@@std@@KAAAU?$pair@QADUtextStruct@@@2@PAU_Node@?$_Tree_nod@V?$_Tmap_traits@PADUtextStruct@@U?$less@PAD@std@@V?$allocator@U?$pair@QADUtextStruct@@@std@@@3@$0A@@std@@@2@@Z 6081ba60 f i MD2Model.obj
 0002:00006aa0       ?_Erase@?$_Tree@V?$_Tmap_traits@PADUtextStruct@@U?$less@PAD@std@@V?$allocator@U?$pair@QADUtextStruct@@@std@@@3@$0A@@std@@@std@@IAEXPAU_Node@?$_Tree_nod@V?$_Tmap_traits@PADUtextStruct@@U?$less@PAD@std@@V?$allocator@U?$pair@QADUtextStruct@@@std@@@3@$0A@@std@@@2@@Z 6081baa0 f i MD2Model.obj
 0002:00006b70       ?_Lrotate@?$_Tree@V?$_Tmap_traits@PADUtextStruct@@U?$less@PAD@std@@V?$allocator@U?$pair@QADUtextStruct@@@std@@@3@$0A@@std@@@std@@IAEXPAU_Node@?$_Tree_nod@V?$_Tmap_traits@PADUtextStruct@@U?$less@PAD@std@@V?$allocator@U?$pair@QADUtextStruct@@@std@@@3@$0A@@std@@@2@@Z 6081bb70 f i MD2Model.obj
 0002:00006d20       ?_Rrotate@?$_Tree@V?$_Tmap_traits@PADUtextStruct@@U?$less@PAD@std@@V?$allocator@U?$pair@QADUtextStruct@@@std@@@3@$0A@@std@@@std@@IAEXPAU_Node@?$_Tree_nod@V?$_Tmap_traits@PADUtextStruct@@U?$less@PAD@std@@V?$allocator@U?$pair@QADUtextStruct@@@std@@@3@$0A@@std@@@2@@Z 6081bd20 f i MD2Model.obj
 0002:00006ed0       ?_Orphan_ptr@?$_Tree@V?$_Tmap_traits@PADUtextStruct@@U?$less@PAD@std@@V?$allocator@U?$pair@QADUtextStruct@@@std@@@3@$0A@@std@@@std@@IBEXAAV12@PAU_Node@?$_Tree_nod@V?$_Tmap_traits@PADUtextStruct@@U?$less@PAD@std@@V?$allocator@U?$pair@QADUtextStruct@@@std@@@3@$0A@@std@@@2@@Z 6081bed0 f i MD2Model.obj
 0002:00006ff0       ?_Buynode@?$_Tree@V?$_Tmap_traits@PADUtextStruct@@U?$less@PAD@std@@V?$allocator@U?$pair@QADUtextStruct@@@std@@@3@$0A@@std@@@std@@IAEPAU_Node@?$_Tree_nod@V?$_Tmap_traits@PADUtextStruct@@U?$less@PAD@std@@V?$allocator@U?$pair@QADUtextStruct@@@std@@@3@$0A@@std@@@2@PAU342@00ABU?$pair@QADUtextStruct@@@2@D@Z 6081bff0 f i MD2Model.obj
 0002:00007160       ??2@YAPAXIPAX@Z            6081c160 f i MD2Model.obj
 0002:000071a0       ??3@YAXPAX0@Z              6081c1a0 f i MD2Model.obj
 0002:000071d0       ??0?$_Tree_nod@V?$_Tmap_traits@PADUtextStruct@@U?$less@PAD@std@@V?$allocator@U?$pair@QADUtextStruct@@@std@@@3@$0A@@std@@@std@@IAE@ABU?$less@PAD@1@V?$allocator@U?$pair@QADUtextStruct@@@std@@@1@@Z 6081c1d0 f i MD2Model.obj
 0002:00007260       ?allocate@?$allocator@U_Node@?$_Tree_nod@V?$_Tmap_traits@PADUtextStruct@@U?$less@PAD@std@@V?$allocator@U?$pair@QADUtextStruct@@@std@@@3@$0A@@std@@@std@@@std@@QAEPAU_Node@?$_Tree_nod@V?$_Tmap_traits@PADUtextStruct@@U?$less@PAD@std@@V?$allocator@U?$pair@QADUtextStruct@@@std@@@3@$0A@@std@@@2@I@Z 6081c260 f i MD2Model.obj
 0002:000072c0       ?destroy@?$allocator@U_Node@?$_Tree_nod@V?$_Tmap_traits@PADUtextStruct@@U?$less@PAD@std@@V?$allocator@U?$pair@QADUtextStruct@@@std@@@3@$0A@@std@@@std@@@std@@QAEXPAU_Node@?$_Tree_nod@V?$_Tmap_traits@PADUtextStruct@@U?$less@PAD@std@@V?$allocator@U?$pair@QADUtextStruct@@@std@@@3@$0A@@std@@@2@@Z 6081c2c0 f i MD2Model.obj
 0002:00007320       ?construct@?$allocator@PAU_Node@?$_Tree_nod@V?$_Tmap_traits@PADUtextStruct@@U?$less@PAD@std@@V?$allocator@U?$pair@QADUtextStruct@@@std@@@3@$0A@@std@@@std@@@std@@QAEXPAPAU_Node@?$_Tree_nod@V?$_Tmap_traits@PADUtextStruct@@U?$less@PAD@std@@V?$allocator@U?$pair@QADUtextStruct@@@std@@@3@$0A@@std@@@2@ABQAU342@@Z 6081c320 f i MD2Model.obj
 0002:00007380       ??0const_iterator@?$_Tree@V?$_Tmap_traits@PADUtextStruct@@U?$less@PAD@std@@V?$allocator@U?$pair@QADUtextStruct@@@std@@@3@$0A@@std@@@std@@QAE@PAU_Node@?$_Tree_nod@V?$_Tmap_traits@PADUtextStruct@@U?$less@PAD@std@@V?$allocator@U?$pair@QADUtextStruct@@@std@@@3@$0A@@std@@@2@PBV12@@Z 6081c380 f i MD2Model.obj
 0002:00007440       ??Econst_iterator@?$_Tree@V?$_Tmap_traits@PADUtextStruct@@U?$less@PAD@std@@V?$allocator@U?$pair@QADUtextStruct@@@std@@@3@$0A@@std@@@std@@QAEAAV012@XZ 6081c440 f i MD2Model.obj
 0002:000074a0       ?_Mynode@const_iterator@?$_Tree@V?$_Tmap_traits@PADUtextStruct@@U?$less@PAD@std@@V?$allocator@U?$pair@QADUtextStruct@@@std@@@3@$0A@@std@@@std@@QBEPAU_Node@?$_Tree_nod@V?$_Tmap_traits@PADUtextStruct@@U?$less@PAD@std@@V?$allocator@U?$pair@QADUtextStruct@@@std@@@3@$0A@@std@@@3@XZ 6081c4a0 f i MD2Model.obj
 0002:000074e0       ??0?$_Bidit@U?$pair@QADUtextStruct@@@std@@HPBU12@ABU12@@std@@QAE@XZ 6081c4e0 f i MD2Model.obj
 0002:00007540       ??0?$_Iterator_with_base@Ubidirectional_iterator_tag@std@@U?$pair@QADUtextStruct@@@2@HPBU32@ABU32@V_Iterator_base@2@@std@@QAE@XZ 6081c540 f i MD2Model.obj
 0002:000075a0       ??0_Iterator_base@std@@QAE@XZ 6081c5a0 f i MD2Model.obj
 0002:000075f0       ??0?$_Tmap_traits@PADUtextStruct@@U?$less@PAD@std@@V?$allocator@U?$pair@QADUtextStruct@@@std@@@3@$0A@@std@@QAE@U?$less@PAD@1@V?$allocator@U?$pair@QADUtextStruct@@@std@@@1@@Z 6081c5f0 f i MD2Model.obj
 0002:00007660       ?_Inc@const_iterator@?$_Tree@V?$_Tmap_traits@PADUtextStruct@@U?$less@PAD@std@@V?$allocator@U?$pair@QADUtextStruct@@@std@@@3@$0A@@std@@@std@@QAEXXZ 6081c660 f i MD2Model.obj
 0002:00007830       ??0_Node@?$_Tree_nod@V?$_Tmap_traits@PADUtextStruct@@U?$less@PAD@std@@V?$allocator@U?$pair@QADUtextStruct@@@std@@@3@$0A@@std@@@std@@QAE@PAU012@00ABU?$pair@QADUtextStruct@@@2@D@Z 6081c830 f i MD2Model.obj
 0002:000078c0       ??0?$_Container_base_aux_alloc_empty@V?$allocator@U?$pair@QADUtextStruct@@@std@@@std@@@std@@IAE@V?$allocator@U?$pair@QADUtextStruct@@@std@@@1@@Z 6081c8c0 f i MD2Model.obj
 0002:00007930       ??$swap@D@std@@YAXAAD0@Z   6081c930 f i MD2Model.obj
 0002:00007990       ??$?0U?$pair@QADUtextStruct@@@std@@@?$allocator@PAU_Node@?$_Tree_nod@V?$_Tmap_traits@PADUtextStruct@@U?$less@PAD@std@@V?$allocator@U?$pair@QADUtextStruct@@@std@@@3@$0A@@std@@@std@@@std@@QAE@ABV?$allocator@U?$pair@QADUtextStruct@@@std@@@1@@Z 6081c990 f i MD2Model.obj
 0002:000079d0       ??$_Destroy@PAU_Node@?$_Tree_nod@V?$_Tmap_traits@PADUtextStruct@@U?$less@PAD@std@@V?$allocator@U?$pair@QADUtextStruct@@@std@@@3@$0A@@std@@@std@@@std@@YAXPAPAU_Node@?$_Tree_nod@V?$_Tmap_traits@PADUtextStruct@@U?$less@PAD@std@@V?$allocator@U?$pair@QADUtextStruct@@@std@@@3@$0A@@std@@@0@@Z 6081c9d0 f i MD2Model.obj
 0002:00007a00       ??$?0U?$pair@QADUtextStruct@@@std@@@?$allocator@U_Node@?$_Tree_nod@V?$_Tmap_traits@PADUtextStruct@@U?$less@PAD@std@@V?$allocator@U?$pair@QADUtextStruct@@@std@@@3@$0A@@std@@@std@@@std@@QAE@ABV?$allocator@U?$pair@QADUtextStruct@@@std@@@1@@Z 6081ca00 f i MD2Model.obj
 0002:00007a40       ??$_Allocate@U_Node@?$_Tree_nod@V?$_Tmap_traits@PADUtextStruct@@U?$less@PAD@std@@V?$allocator@U?$pair@QADUtextStruct@@@std@@@3@$0A@@std@@@std@@@std@@YAPAU_Node@?$_Tree_nod@V?$_Tmap_traits@PADUtextStruct@@U?$less@PAD@std@@V?$allocator@U?$pair@QADUtextStruct@@@std@@@3@$0A@@std@@@0@IPAU120@@Z 6081ca40 f i MD2Model.obj
 0002:00007ae0       ??0bad_alloc@std@@QAE@PBD@Z 6081cae0 f i MD2Model.obj
 0002:00007b60       ??1bad_alloc@std@@UAE@XZ   6081cb60 f i MD2Model.obj
 0002:00007bd0       ??_Ebad_alloc@std@@UAEPAXI@Z 6081cbd0 f i MD2Model.obj
 0002:00007bd0       ??_Gbad_alloc@std@@UAEPAXI@Z 6081cbd0 f i MD2Model.obj
 0002:00007c40       ??0bad_alloc@std@@QAE@ABV01@@Z 6081cc40 f i MD2Model.obj
 0002:00007cc0       ??$_Destroy@U_Node@?$_Tree_nod@V?$_Tmap_traits@PADUtextStruct@@U?$less@PAD@std@@V?$allocator@U?$pair@QADUtextStruct@@@std@@@3@$0A@@std@@@std@@@std@@YAXPAU_Node@?$_Tree_nod@V?$_Tmap_traits@PADUtextStruct@@U?$less@PAD@std@@V?$allocator@U?$pair@QADUtextStruct@@@std@@@3@$0A@@std@@@0@@Z 6081ccc0 f i MD2Model.obj
 0002:00007cf0       ??$_Construct@PAU_Node@?$_Tree_nod@V?$_Tmap_traits@PADUtextStruct@@U?$less@PAD@std@@V?$allocator@U?$pair@QADUtextStruct@@@std@@@3@$0A@@std@@@std@@PAU123@@std@@YAXPAPAU_Node@?$_Tree_nod@V?$_Tmap_traits@PADUtextStruct@@U?$less@PAD@std@@V?$allocator@U?$pair@QADUtextStruct@@@std@@@3@$0A@@std@@@0@ABQAU120@@Z 6081ccf0 f i MD2Model.obj
 0002:00007d90       ??1Point@@QAE@XZ           6081cd90 f i NMS_3DObject.obj
 0002:00007dd0       ??4Point@@QAEAAV0@ABV0@@Z  6081cdd0 f i NMS_3DObject.obj
 0002:00007e30       ??1Vector@@QAE@XZ          6081ce30 f i NMS_3DObject.obj
 0002:00007e80       ??4Vector@@QAEAAV0@ABV0@@Z 6081ce80 f i NMS_3DObject.obj
 0002:00007ee0       ??4nmsTrig@@QAEAAV0@ABV0@@Z 6081cee0 f i NMS_3DObject.obj
 0002:00007f20       ??4NMS_3DObject@@QAEAAV0@ABV0@@Z 6081cf20 f i NMS_3DObject.obj
 0002:00007f70       ??0NMS_3DObject@@QAE@XZ    6081cf70 f   NMS_3DObject.obj
 0002:000080c0       ??1NMS_3DObject@@QAE@XZ    6081d0c0 f   NMS_3DObject.obj
 0002:00008170       ??0NMS_3DObject@@QAE@PBVVector@@0@Z 6081d170 f   NMS_3DObject.obj
 0002:00008270       ?getPosVector@NMS_3DObject@@QAE?AVVector@@XZ 6081d270 f   NMS_3DObject.obj
 0002:000082f0       ?setPosVector@NMS_3DObject@@QAEXPBVVector@@@Z 6081d2f0 f   NMS_3DObject.obj
 0002:00008350       ?getDirVector@NMS_3DObject@@QAE?AVVector@@XZ 6081d350 f   NMS_3DObject.obj
 0002:000083d0       ?setDirVector@NMS_3DObject@@QAEXPBVVector@@@Z 6081d3d0 f   NMS_3DObject.obj
 0002:00008430       ??6@YAAAV?$basic_ostream@DU?$char_traits@D@std@@@std@@AAV01@ABVNMS_3DObject@@@Z 6081d430 f   NMS_3DObject.obj
 0002:000084f0       ??8@YA_NABVNMS_3DObject@@0@Z 6081d4f0 f   NMS_3DObject.obj
 0002:00008580       ??$?6U?$char_traits@D@std@@@std@@YAAAV?$basic_ostream@DU?$char_traits@D@std@@@0@AAV10@PBD@Z 6081d580 f i NMS_3DObject.obj
 0002:00008b00       ??0sentry@?$basic_ostream@DU?$char_traits@D@std@@@std@@QAE@AAV12@@Z 6081db00 f i NMS_3DObject.obj
 0002:00008c60       ??1sentry@?$basic_ostream@DU?$char_traits@D@std@@@std@@QAE@XZ 6081dc60 f i NMS_3DObject.obj
 0002:00008d30       ??Bsentry@?$basic_ostream@DU?$char_traits@D@std@@@std@@QBE_NXZ 6081dd30 f i NMS_3DObject.obj
 0002:00008d70       ??0_Sentry_base@?$basic_ostream@DU?$char_traits@D@std@@@std@@QAE@AAV12@@Z 6081dd70 f i NMS_3DObject.obj
 0002:00008e30       ??1_Sentry_base@?$basic_ostream@DU?$char_traits@D@std@@@std@@QAE@XZ 6081de30 f i NMS_3DObject.obj
 0002:00008ee0       ??$?6U?$char_traits@D@std@@@std@@YAAAV?$basic_ostream@DU?$char_traits@D@std@@@0@AAV10@D@Z 6081dee0 f i NMS_3DObject.obj
 0002:00009480       ??0NMS_AssetManager@@QAE@XZ 6081e480 f   NMS_AssetManager.obj
 0002:000094c0       ??1NMS_AssetManager@@QAE@XZ 6081e4c0 f   NMS_AssetManager.obj
 0002:00009500       ?GetSingleton@NMS_AssetManager@@SAAAV1@XZ 6081e500 f   NMS_AssetManager.obj
 0002:00009600       ?Initialize@NMS_AssetManager@@CAXXZ 6081e600 f   NMS_AssetManager.obj
 0002:00009670       ?Destroy@NMS_AssetManager@@SAXXZ 6081e670 f   NMS_AssetManager.obj
 0002:00009720       ??_GNMS_AssetManager@@QAEPAXI@Z 6081e720 f i NMS_AssetManager.obj
 0002:00009790       ?GetErrorMessage@NMS_AssetManager@@QAEPADXZ 6081e790 f   NMS_AssetManager.obj
 0002:000097d0       ?LoadTexture@NMS_AssetManager@@QAEHPBDPAD@Z 6081e7d0 f   NMS_AssetManager.obj
 0002:00009830       ?FreeTexture@NMS_AssetManager@@QAEXPAD@Z 6081e830 f   NMS_AssetManager.obj
 0002:00009890       ?FreeAll@NMS_AssetManager@@QAEXXZ 6081e890 f   NMS_AssetManager.obj
 0002:000098f0       ??1Quaternion@@QAE@XZ      6081e8f0 f i NMS_Camera.obj
 0002:00009940       ??4Quaternion@@QAEAAV0@ABV0@@Z 6081e940 f i NMS_Camera.obj
 0002:000099a0       ?getPos@NMSCameraController@@QAE?AVVector@@XZ 6081e9a0 f i NMS_Camera.obj
 0002:00009a20       ?getRight@NMSCameraController@@QAE?AVVector@@XZ 6081ea20 f i NMS_Camera.obj
 0002:00009aa0       ?getUp@NMSCameraController@@QAE?AVVector@@XZ 6081eaa0 f i NMS_Camera.obj
 0002:00009b20       ?getDir@NMSCameraController@@QAE?AVVector@@XZ 6081eb20 f i NMS_Camera.obj
 0002:00009ba0       ?getVelocity@NMSCameraController@@QAE?AVVector@@XZ 6081eba0 f i NMS_Camera.obj
 0002:00009c20       ??0NMSCameraController@@QAE@ABV0@@Z 6081ec20 f i NMS_Camera.obj
 0002:00009dc0       ??4NMSCameraController@@QAEAAV0@ABV0@@Z 6081edc0 f i NMS_Camera.obj
 0002:00009f60       ?setRSpeedX@NMSCameraFPS@@QAEXM@Z 6081ef60 f i NMS_Camera.obj
 0002:00009fb0       ?setRSpeedY@NMSCameraFPS@@QAEXM@Z 6081efb0 f i NMS_Camera.obj
 0002:0000a000       ?getRSpeedX@NMSCameraFPS@@QAEMXZ 6081f000 f i NMS_Camera.obj
 0002:0000a040       ?getRSpeedY@NMSCameraFPS@@QAEMXZ 6081f040 f i NMS_Camera.obj
 0002:0000a080       ?setSpeed@NMSCameraFPS@@QAEXM@Z 6081f080 f i NMS_Camera.obj
 0002:0000a0d0       ?setSlideSpeed@NMSCameraFPS@@QAEXM@Z 6081f0d0 f i NMS_Camera.obj
 0002:0000a120       ?getSpeed@NMSCameraFPS@@QAEMXZ 6081f120 f i NMS_Camera.obj
 0002:0000a160       ?getSlideSpeed@NMSCameraFPS@@QAEMXZ 6081f160 f i NMS_Camera.obj
 0002:0000a1a0       ?setPos@NMSCameraFPS@@QAEXAAVVector@@@Z 6081f1a0 f i NMS_Camera.obj
 0002:0000a200       ?setRight@NMSCameraFPS@@QAEXAAVVector@@@Z 6081f200 f i NMS_Camera.obj
 0002:0000a260       ?setUp@NMSCameraFPS@@QAEXAAVVector@@@Z 6081f260 f i NMS_Camera.obj
 0002:0000a2c0       ?setDir@NMSCameraFPS@@QAEXAAVVector@@@Z 6081f2c0 f i NMS_Camera.obj
 0002:0000a320       ??0NMSCameraFPS@@QAE@ABV0@@Z 6081f320 f i NMS_Camera.obj
 0002:0000a3b0       ??4NMSCameraFPS@@QAEAAV0@ABV0@@Z 6081f3b0 f i NMS_Camera.obj
 0002:0000a430       ?init@NMSCameraFPS@@MAEXXZ 6081f430 f   NMS_Camera.obj
 0002:0000a710       ??0NMSCameraController@@QAE@XZ 6081f710 f   NMS_Camera.obj
 0002:0000a810       ??1NMSCameraController@@QAE@XZ 6081f810 f   NMS_Camera.obj
 0002:0000a910       ?returnViewMatrix@NMSCameraController@@QAE?AVMatrix@@XZ 6081f910 f   NMS_Camera.obj
 0002:0000aad0       ??0NMSCameraFPS@@QAE@XZ    6081fad0 f   NMS_Camera.obj
 0002:0000ab80       ??1NMSCameraFPS@@QAE@XZ    6081fb80 f   NMS_Camera.obj
 0002:0000abe0       ?setRotation@NMSCameraFPS@@QAEXMMM@Z 6081fbe0 f   NMS_Camera.obj
 0002:0000ac70       ?getRotation@NMSCameraFPS@@QAE?AVVector@@XZ 6081fc70 f   NMS_Camera.obj
 0002:0000ad10       ?recalcAxes@NMSCameraFPS@@MAEXXZ 6081fd10 f   NMS_Camera.obj
 0002:0000b220       ?UpdateCamera@NMSCameraFPS@@QAEXM@Z 60820220 f   NMS_Camera.obj
 0002:0000b540       ?onIdle@NMS_Event@@QAEXP6AXH@Z@Z 60820540 f i NMS_Engine.obj
 0002:0000b5a0       ?onKeyPressed@NMS_Event@@QAEXP6AXW4SDLKey@@@Z@Z 608205a0 f i NMS_Engine.obj
 0002:0000b600       ??1NMS_Event@@QAE@XZ       60820600 f i NMS_Engine.obj
 0002:0000b6d0       ??0NMS_Event@@QAE@ABV0@@Z  608206d0 f i NMS_Engine.obj
 0002:0000b7e0       ??4NMS_Event@@QAEAAV0@ABV0@@Z 608207e0 f i NMS_Engine.obj
 0002:0000b8a0       ??0Thread@@QAE@ABV0@@Z     608208a0 f i NMS_Engine.obj
 0002:0000b900       ??4Thread@@QAEAAV0@ABV0@@Z 60820900 f i NMS_Engine.obj
 0002:0000b950       ??4Mesh@@QAEAAV0@ABV0@@Z   60820950 f i NMS_Engine.obj
 0002:0000b990       ??0SceneGraphVisitor@@QAE@XZ 60820990 f i NMS_Engine.obj
 0002:0000b9e0       ??0SceneGraphVisitor@@QAE@ABV0@@Z 608209e0 f i NMS_Engine.obj
 0002:0000ba30       ??4SceneGraphVisitor@@QAEAAV0@ABV0@@Z 60820a30 f i NMS_Engine.obj
 0002:0000ba70       ??1SceneGraphNode@@QAE@XZ  60820a70 f i NMS_Engine.obj
 0002:0000bad0       ??0SceneGraphNode@@QAE@ABV0@@Z 60820ad0 f i NMS_Engine.obj
 0002:0000bb40       ??4SceneGraphNode@@QAEAAV0@ABV0@@Z 60820b40 f i NMS_Engine.obj
 0002:0000bbb0       ??1TransformationNode@@QAE@XZ 60820bb0 f i NMS_Engine.obj
 0002:0000bc60       ??0TransformationNode@@QAE@ABV0@@Z 60820c60 f i NMS_Engine.obj
 0002:0000bd30       ??4TransformationNode@@QAEAAV0@ABV0@@Z 60820d30 f i NMS_Engine.obj
 0002:0000bda0       ??1GeometryNode@@QAE@XZ    60820da0 f i NMS_Engine.obj
 0002:0000bdf0       ??0GeometryNode@@QAE@ABV0@@Z 60820df0 f i NMS_Engine.obj
 0002:0000be70       ??4GeometryNode@@QAEAAV0@ABV0@@Z 60820e70 f i NMS_Engine.obj
 0002:0000bee0       ??0NMS_SceneRenderer@@QAE@ABV0@@Z 60820ee0 f i NMS_Engine.obj
 0002:0000bfb0       ??4NMS_SceneRenderer@@QAEAAV0@ABV0@@Z 60820fb0 f i NMS_Engine.obj
 0002:0000c070       ??1LightSource@@QAE@XZ     60821070 f i NMS_Engine.obj
 0002:0000c120       ??4LightSource@@QAEAAV0@ABV0@@Z 60821120 f i NMS_Engine.obj
 0002:0000c170       ??4NMS_LightSystem@@QAEAAV0@ABV0@@Z 60821170 f i NMS_Engine.obj
 0002:0000c1b0       ??1NMS_Framework@@QAE@XZ   608211b0 f i NMS_Engine.obj
 0002:0000c210       ??0NMS_Framework@@QAE@ABV0@@Z 60821210 f i NMS_Engine.obj
 0002:0000c2d0       ??4NMS_Framework@@QAEAAV0@ABV0@@Z 608212d0 f i NMS_Engine.obj
 0002:0000c390       ?InitEngine@@YA_NHHHPAD_N@Z 60821390 f   NMS_Engine.obj
 0002:0000c430       ?Render@@YAXXZ             60821430 f   NMS_Engine.obj
 0002:0000c4d0       ?StartEngine@@YAXXZ        608214d0 f   NMS_Engine.obj
 0002:0000c550       ?QuitEngine@@YAXXZ         60821550 f   NMS_Engine.obj
 0002:0000c590       ??0?$list@TSDL_Event@@V?$allocator@TSDL_Event@@@std@@@std@@QAE@ABV01@@Z 60821590 f i NMS_Engine.obj
 0002:0000c780       ??1?$list@TSDL_Event@@V?$allocator@TSDL_Event@@@std@@@std@@QAE@XZ 60821780 f i NMS_Engine.obj
 0002:0000c820       ??4?$list@TSDL_Event@@V?$allocator@TSDL_Event@@@std@@@std@@QAEAAV01@ABV01@@Z 60821820 f i NMS_Engine.obj
 0002:0000c920       ??0?$function1@XH@boost@@QAE@ABV01@@Z 60821920 f i NMS_Engine.obj
 0002:0000c990       ??0function_base@boost@@QAE@XZ 60821990 f i NMS_Engine.obj
 0002:0000c9e0       ??1?$function1@XH@boost@@QAE@XZ 608219e0 f i NMS_Engine.obj
 0002:0000ca30       ??4?$function1@XH@boost@@QAEAAV01@ABV01@@Z 60821a30 f i NMS_Engine.obj
 0002:0000cb20       ??0?$function1@XW4SDLKey@@@boost@@QAE@ABV01@@Z 60821b20 f i NMS_Engine.obj
 0002:0000cb90       ??1?$function1@XW4SDLKey@@@boost@@QAE@XZ 60821b90 f i NMS_Engine.obj
 0002:0000cbe0       ??4?$function1@XW4SDLKey@@@boost@@QAEAAV01@ABV01@@Z 60821be0 f i NMS_Engine.obj
 0002:0000ccd0       ??0?$vector@PAVSceneGraphNode@@V?$allocator@PAVSceneGraphNode@@@std@@@std@@QAE@ABV01@@Z 60821cd0 f i NMS_Engine.obj
 0002:0000ce70       ??1?$vector@PAVSceneGraphNode@@V?$allocator@PAVSceneGraphNode@@@std@@@std@@QAE@XZ 60821e70 f i NMS_Engine.obj
 0002:0000cf10       ??4?$vector@PAVSceneGraphNode@@V?$allocator@PAVSceneGraphNode@@@std@@@std@@QAEAAV01@ABV01@@Z 60821f10 f i NMS_Engine.obj
 0002:0000d140       ??1?$_List_val@TSDL_Event@@V?$allocator@TSDL_Event@@@std@@@std@@QAE@XZ 60822140 f i NMS_Engine.obj
 0002:0000d190       ??1?$_Iterator@$00@?$list@TSDL_Event@@V?$allocator@TSDL_Event@@@std@@@std@@QAE@XZ 60822190 f i NMS_Engine.obj
 0002:0000d1e0       ??1?$_Const_iterator@$00@?$list@TSDL_Event@@V?$allocator@TSDL_Event@@@std@@@std@@QAE@XZ 608221e0 f i NMS_Engine.obj
 0002:0000d230       ??0?$_Const_iterator@$00@?$list@TSDL_Event@@V?$allocator@TSDL_Event@@@std@@@std@@QAE@ABV012@@Z 60822230 f i NMS_Engine.obj
 0002:0000d2a0       ??1?$_Vector_val@PAVSceneGraphNode@@V?$allocator@PAVSceneGraphNode@@@std@@@std@@QAE@XZ 608222a0 f i NMS_Engine.obj
 0002:0000d2f0       ??1?$_Vector_const_iterator@PAVSceneGraphNode@@V?$allocator@PAVSceneGraphNode@@@std@@@std@@QAE@XZ 608222f0 f i NMS_Engine.obj
 0002:0000d340       ??1?$_List_ptr@TSDL_Event@@V?$allocator@TSDL_Event@@@std@@@std@@QAE@XZ 60822340 f i NMS_Engine.obj
 0002:0000d390       ??1?$_Bidit@TSDL_Event@@HPBT1@ABT1@@std@@QAE@XZ 60822390 f i NMS_Engine.obj
 0002:0000d3e0       ??0?$_Bidit@TSDL_Event@@HPBT1@ABT1@@std@@QAE@ABU01@@Z 608223e0 f i NMS_Engine.obj
 0002:0000d440       ??1?$_Ranit@PAVSceneGraphNode@@HPBQAV1@ABQAV1@@std@@QAE@XZ 60822440 f i NMS_Engine.obj
 0002:0000d490       ??1?$_List_nod@TSDL_Event@@V?$allocator@TSDL_Event@@@std@@@std@@QAE@XZ 60822490 f i NMS_Engine.obj
 0002:0000d4e0       ??1?$_Iterator_with_base@Ubidirectional_iterator_tag@std@@TSDL_Event@@HPBT3@ABT3@V_Iterator_base@2@@std@@QAE@XZ 608224e0 f i NMS_Engine.obj
 0002:0000d530       ??0?$_Iterator_with_base@Ubidirectional_iterator_tag@std@@TSDL_Event@@HPBT3@ABT3@V_Iterator_base@2@@std@@QAE@ABU01@@Z 60822530 f i NMS_Engine.obj
 0002:0000d590       ??1?$_Iterator_with_base@Urandom_access_iterator_tag@std@@PAVSceneGraphNode@@HPBQAV3@ABQAV3@V_Iterator_base@2@@std@@QAE@XZ 60822590 f i NMS_Engine.obj
 0002:0000d5e0       ?begin@?$list@TSDL_Event@@V?$allocator@TSDL_Event@@@std@@@std@@QAE?AV?$_Iterator@$00@12@XZ 608225e0 f i NMS_Engine.obj
 0002:0000d670       ?begin@?$list@TSDL_Event@@V?$allocator@TSDL_Event@@@std@@@std@@QBE?AV?$_Const_iterator@$00@12@XZ 60822670 f i NMS_Engine.obj
 0002:0000d700       ?end@?$list@TSDL_Event@@V?$allocator@TSDL_Event@@@std@@@std@@QBE?AV?$_Const_iterator@$00@12@XZ 60822700 f i NMS_Engine.obj
 0002:0000d790       ?_Buynode@?$list@TSDL_Event@@V?$allocator@TSDL_Event@@@std@@@std@@IAEPAU_Node@?$_List_nod@TSDL_Event@@V?$allocator@TSDL_Event@@@std@@@2@XZ 60822790 f i NMS_Engine.obj
 0002:0000d950       ?_Tidy@?$list@TSDL_Event@@V?$allocator@TSDL_Event@@@std@@@std@@IAEXXZ 60822950 f i NMS_Engine.obj
 0002:0000da10       ??0?$_List_val@TSDL_Event@@V?$allocator@TSDL_Event@@@std@@@std@@QAE@V?$allocator@TSDL_Event@@@1@@Z 60822a10 f i NMS_Engine.obj
 0002:0000da90       ??1?$_Container_base_aux_alloc_empty@V?$allocator@TSDL_Event@@@std@@@std@@IAE@XZ 60822a90 f i NMS_Engine.obj
 0002:0000daf0       ??0?$allocator@TSDL_Event@@@std@@QAE@ABV01@@Z 60822af0 f i NMS_Engine.obj
 0002:0000db30       ?clear@?$function1@XH@boost@@QAEXXZ 60822b30 f i NMS_Engine.obj
 0002:0000dbc0       ?has_trivial_copy_and_destroy@function_base@boost@@QBE_NXZ 60822bc0 f i NMS_Engine.obj
 0002:0000dc00       ?assign_to_own@?$function1@XH@boost@@AAEXABV12@@Z 60822c00 f i NMS_Engine.obj
 0002:0000dcf0       ?empty@function_base@boost@@QBE_NXZ 60822cf0 f i NMS_Engine.obj
 0002:0000dd40       ?clear@?$function1@XW4SDLKey@@@boost@@QAEXXZ 60822d40 f i NMS_Engine.obj
 0002:0000ddd0       ?assign_to_own@?$function1@XW4SDLKey@@@boost@@AAEXABV12@@Z 60822dd0 f i NMS_Engine.obj
 0002:0000dec0       ?capacity@?$vector@PAVSceneGraphNode@@V?$allocator@PAVSceneGraphNode@@@std@@@std@@QBEIXZ 60822ec0 f i NMS_Engine.obj
 0002:0000df30       ?begin@?$vector@PAVSceneGraphNode@@V?$allocator@PAVSceneGraphNode@@@std@@@std@@QBE?AV?$_Vector_const_iterator@PAVSceneGraphNode@@V?$allocator@PAVSceneGraphNode@@@std@@@2@XZ 60822f30 f i NMS_Engine.obj
 0002:0000dfc0       ?end@?$vector@PAVSceneGraphNode@@V?$allocator@PAVSceneGraphNode@@@std@@@std@@QBE?AV?$_Vector_const_iterator@PAVSceneGraphNode@@V?$allocator@PAVSceneGraphNode@@@std@@@2@XZ 60822fc0 f i NMS_Engine.obj
 0002:0000e050       ?size@?$vector@PAVSceneGraphNode@@V?$allocator@PAVSceneGraphNode@@@std@@@std@@QBEIXZ 60823050 f i NMS_Engine.obj
 0002:0000e0a0       ?clear@?$vector@PAVSceneGraphNode@@V?$allocator@PAVSceneGraphNode@@@std@@@std@@QAEXXZ 608230a0 f i NMS_Engine.obj
 0002:0000e230       ?_Buy@?$vector@PAVSceneGraphNode@@V?$allocator@PAVSceneGraphNode@@@std@@@std@@IAE_NI@Z 60823230 f i NMS_Engine.obj
 0002:0000e310       ?_Destroy@?$vector@PAVSceneGraphNode@@V?$allocator@PAVSceneGraphNode@@@std@@@std@@IAEXPAPAVSceneGraphNode@@0@Z 60823310 f i NMS_Engine.obj
 0002:0000e380       ?_Tidy@?$vector@PAVSceneGraphNode@@V?$allocator@PAVSceneGraphNode@@@std@@@std@@IAEXXZ 60823380 f i NMS_Engine.obj
 0002:0000e460       ??0?$_Vector_val@PAVSceneGraphNode@@V?$allocator@PAVSceneGraphNode@@@std@@@std@@IAE@V?$allocator@PAVSceneGraphNode@@@1@@Z 60823460 f i NMS_Engine.obj
 0002:0000e4e0       ??1?$_Container_base_aux_alloc_empty@V?$allocator@PAVSceneGraphNode@@@std@@@std@@IAE@XZ 608234e0 f i NMS_Engine.obj
 0002:0000e540       ??0?$allocator@PAVSceneGraphNode@@@std@@QAE@ABV01@@Z 60823540 f i NMS_Engine.obj
 0002:0000e580       ?deallocate@?$allocator@PAVSceneGraphNode@@@std@@QAEXPAPAVSceneGraphNode@@I@Z 60823580 f i NMS_Engine.obj
 0002:0000e5e0       ??1?$_Vector_iterator@PAVSceneGraphNode@@V?$allocator@PAVSceneGraphNode@@@std@@@std@@QAE@XZ 608235e0 f i NMS_Engine.obj
 0002:0000e630       ??0?$_Vector_const_iterator@PAVSceneGraphNode@@V?$allocator@PAVSceneGraphNode@@@std@@@std@@QAE@ABV01@@Z 60823630 f i NMS_Engine.obj
 0002:0000e6a0       ??0?$_Ranit@PAVSceneGraphNode@@HPBQAV1@ABQAV1@@std@@QAE@ABU01@@Z 608236a0 f i NMS_Engine.obj
 0002:0000e700       ??0?$_Iterator_with_base@Urandom_access_iterator_tag@std@@PAVSceneGraphNode@@HPBQAV3@ABQAV3@V_Iterator_base@2@@std@@QAE@ABU01@@Z 60823700 f i NMS_Engine.obj
 0002:0000e760       ?_Nextnode@?$list@TSDL_Event@@V?$allocator@TSDL_Event@@@std@@@std@@KAAAPAU_Node@?$_List_nod@TSDL_Event@@V?$allocator@TSDL_Event@@@std@@@2@PAU342@@Z 60823760 f i NMS_Engine.obj
 0002:0000e7a0       ?_Prevnode@?$list@TSDL_Event@@V?$allocator@TSDL_Event@@@std@@@std@@KAAAPAU_Node@?$_List_nod@TSDL_Event@@V?$allocator@TSDL_Event@@@std@@@2@PAU342@@Z 608237a0 f i NMS_Engine.obj
 0002:0000e7e0       ?clear@?$list@TSDL_Event@@V?$allocator@TSDL_Event@@@std@@@std@@QAEXXZ 608237e0 f i NMS_Engine.obj
 0002:0000e8f0       ??0?$_List_ptr@TSDL_Event@@V?$allocator@TSDL_Event@@@std@@@std@@IAE@V?$allocator@TSDL_Event@@@1@@Z 608238f0 f i NMS_Engine.obj
 0002:0000e970       ?deallocate@?$allocator@U_Node@?$_List_nod@TSDL_Event@@V?$allocator@TSDL_Event@@@std@@@std@@@std@@QAEXPAU_Node@?$_List_nod@TSDL_Event@@V?$allocator@TSDL_Event@@@std@@@2@I@Z 60823970 f i NMS_Engine.obj
 0002:0000e9d0       ?allocate@?$allocator@U_Node@?$_List_nod@TSDL_Event@@V?$allocator@TSDL_Event@@@std@@@std@@@std@@QAEPAU_Node@?$_List_nod@TSDL_Event@@V?$allocator@TSDL_Event@@@std@@@2@I@Z 608239d0 f i NMS_Engine.obj
 0002:0000ea30       ?construct@?$allocator@PAU_Node@?$_List_nod@TSDL_Event@@V?$allocator@TSDL_Event@@@std@@@std@@@std@@QAEXPAPAU_Node@?$_List_nod@TSDL_Event@@V?$allocator@TSDL_Event@@@std@@@2@ABQAU342@@Z 60823a30 f i NMS_Engine.obj
 0002:0000ea90       ?destroy@?$allocator@PAU_Node@?$_List_nod@TSDL_Event@@V?$allocator@TSDL_Event@@@std@@@std@@@std@@QAEXPAPAU_Node@?$_List_nod@TSDL_Event@@V?$allocator@TSDL_Event@@@std@@@2@@Z 60823a90 f i NMS_Engine.obj
 0002:0000eaf0       ?get_vtable@?$function1@XH@boost@@ABEPAU?$basic_vtable1@XH@function@detail@2@XZ 60823af0 f i NMS_Engine.obj
 0002:0000eb30       ?get_vtable@?$function1@XW4SDLKey@@@boost@@ABEPAU?$basic_vtable1@XW4SDLKey@@@function@detail@2@XZ 60823b30 f i NMS_Engine.obj
 0002:0000eb70       ?begin@?$vector@PAVSceneGraphNode@@V?$allocator@PAVSceneGraphNode@@@std@@@std@@QAE?AV?$_Vector_iterator@PAVSceneGraphNode@@V?$allocator@PAVSceneGraphNode@@@std@@@2@XZ 60823b70 f i NMS_Engine.obj
 0002:0000ec00       ?end@?$vector@PAVSceneGraphNode@@V?$allocator@PAVSceneGraphNode@@@std@@@std@@QAE?AV?$_Vector_iterator@PAVSceneGraphNode@@V?$allocator@PAVSceneGraphNode@@@std@@@2@XZ 60823c00 f i NMS_Engine.obj
 0002:0000ec90       ?max_size@?$vector@PAVSceneGraphNode@@V?$allocator@PAVSceneGraphNode@@@std@@@std@@QBEIXZ 60823c90 f i NMS_Engine.obj
 0002:0000ecf0       ?erase@?$vector@PAVSceneGraphNode@@V?$allocator@PAVSceneGraphNode@@@std@@@std@@QAE?AV?$_Vector_iterator@PAVSceneGraphNode@@V?$allocator@PAVSceneGraphNode@@@std@@@2@V?$_Vector_const_iterator@PAVSceneGraphNode@@V?$allocator@PAVSceneGraphNode@@@std@@@2@0@Z 60823cf0 f i NMS_Engine.obj
 0002:0000ef90       ?_Xlen@?$vector@PAVSceneGraphNode@@V?$allocator@PAVSceneGraphNode@@@std@@@std@@KAXXZ 60823f90 f i NMS_Engine.obj
 0002:0000f080       ??0length_error@std@@QAE@ABV?$basic_string@DU?$char_traits@D@std@@V?$allocator@D@2@@1@@Z 60824080 f i NMS_Engine.obj
 0002:0000f0f0       ??0logic_error@std@@QAE@ABV?$basic_string@DU?$char_traits@D@std@@V?$allocator@D@2@@1@@Z 608240f0 f i NMS_Engine.obj
 0002:0000f1d0       ?what@logic_error@std@@UBEPBDXZ 608241d0 f i NMS_Engine.obj
 0002:0000f230       ??_Glogic_error@std@@UAEPAXI@Z 60824230 f i NMS_Engine.obj
 0002:0000f230       ??_Elogic_error@std@@UAEPAXI@Z 60824230 f i NMS_Engine.obj
 0002:0000f2a0       ??1logic_error@std@@UAE@XZ 608242a0 f i NMS_Engine.obj
 0002:0000f320       ??1length_error@std@@UAE@XZ 60824320 f i NMS_Engine.obj
 0002:0000f380       ??_Elength_error@std@@UAEPAXI@Z 60824380 f i NMS_Engine.obj
 0002:0000f380       ??_Glength_error@std@@UAEPAXI@Z 60824380 f i NMS_Engine.obj
 0002:0000f3f0       ??0logic_error@std@@QAE@ABV01@@Z 608243f0 f i NMS_Engine.obj
 0002:0000f4d0       ??0?$_Container_base_aux_alloc_empty@V?$allocator@PAVSceneGraphNode@@@std@@@std@@IAE@V?$allocator@PAVSceneGraphNode@@@1@@Z 608244d0 f i NMS_Engine.obj
 0002:0000f540       ?allocate@?$allocator@PAVSceneGraphNode@@@std@@QAEPAPAVSceneGraphNode@@I@Z 60824540 f i NMS_Engine.obj
 0002:0000f5a0       ??0?$_Iterator@$00@?$list@TSDL_Event@@V?$allocator@TSDL_Event@@@std@@@std@@QAE@PAU_Node@?$_List_nod@TSDL_Event@@V?$allocator@TSDL_Event@@@std@@@2@PBV12@@Z 608245a0 f i NMS_Engine.obj
 0002:0000f600       ??0?$_Const_iterator@$00@?$list@TSDL_Event@@V?$allocator@TSDL_Event@@@std@@@std@@QAE@PAU_Node@?$_List_nod@TSDL_Event@@V?$allocator@TSDL_Event@@@std@@@2@PBV12@@Z 60824600 f i NMS_Engine.obj
 0002:0000f6c0       ??0?$_Vector_const_iterator@PAVSceneGraphNode@@V?$allocator@PAVSceneGraphNode@@@std@@@std@@QAE@PAPAVSceneGraphNode@@PBV_Container_base_secure@1@@Z 608246c0 f i NMS_Engine.obj
 0002:0000f810       ?clear@?$basic_vtable1@XH@function@detail@boost@@QAEXAATfunction_buffer@234@@Z 60824810 f i NMS_Engine.obj
 0002:0000f890       ?clear@?$basic_vtable1@XW4SDLKey@@@function@detail@boost@@QAEXAATfunction_buffer@234@@Z 60824890 f i NMS_Engine.obj
 0002:0000f910       ??0length_error@std@@QAE@ABV01@@Z 60824910 f i NMS_Engine.obj
 0002:0000f980       ??0?$_Bidit@TSDL_Event@@HPBT1@ABT1@@std@@QAE@XZ 60824980 f i NMS_Engine.obj
 0002:0000f9e0       ??0?$_Ranit@PAVSceneGraphNode@@HPBQAV1@ABQAV1@@std@@QAE@XZ 608249e0 f i NMS_Engine.obj
 0002:0000fa40       ??0?$_Iterator_with_base@Ubidirectional_iterator_tag@std@@TSDL_Event@@HPBT3@ABT3@V_Iterator_base@2@@std@@QAE@XZ 60824a40 f i NMS_Engine.obj
 0002:0000faa0       ??0?$_Iterator_with_base@Urandom_access_iterator_tag@std@@PAVSceneGraphNode@@HPBQAV3@ABQAV3@V_Iterator_base@2@@std@@QAE@XZ 60824aa0 f i NMS_Engine.obj
 0002:0000fb00       ?_Orphan_ptr@?$list@TSDL_Event@@V?$allocator@TSDL_Event@@@std@@@std@@IBEXAAV12@PAU_Node@?$_List_nod@TSDL_Event@@V?$allocator@TSDL_Event@@@std@@@2@@Z 60824b00 f i NMS_Engine.obj
 0002:0000fc20       ??0?$_List_nod@TSDL_Event@@V?$allocator@TSDL_Event@@@std@@@std@@IAE@V?$allocator@TSDL_Event@@@1@@Z 60824c20 f i NMS_Engine.obj
 0002:0000fca0       ?destroy@?$allocator@U_Node@?$_List_nod@TSDL_Event@@V?$allocator@TSDL_Event@@@std@@@std@@@std@@QAEXPAU_Node@?$_List_nod@TSDL_Event@@V?$allocator@TSDL_Event@@@std@@@2@@Z 60824ca0 f i NMS_Engine.obj
 0002:0000fd00       ?_Make_iter@?$vector@PAVSceneGraphNode@@V?$allocator@PAVSceneGraphNode@@@std@@@std@@QBE?AV?$_Vector_iterator@PAVSceneGraphNode@@V?$allocator@PAVSceneGraphNode@@@std@@@2@V?$_Vector_const_iterator@PAVSceneGraphNode@@V?$allocator@PAVSceneGraphNode@@@std@@@2@@Z 60824d00 f i NMS_Engine.obj
 0002:0000fdd0       ?_Orphan_range@?$vector@PAVSceneGraphNode@@V?$allocator@PAVSceneGraphNode@@@std@@@std@@IBEXPAPAVSceneGraphNode@@0@Z 60824dd0 f i NMS_Engine.obj
 0002:0000fee0       ?max_size@?$allocator@PAVSceneGraphNode@@@std@@QBEIXZ 60824ee0 f i NMS_Engine.obj
 0002:0000ff50       ??9?$_Vector_const_iterator@PAVSceneGraphNode@@V?$allocator@PAVSceneGraphNode@@@std@@@std@@QBE_NABV01@@Z 60824f50 f i NMS_Engine.obj
 0002:0000ffc0       ??M?$_Vector_const_iterator@PAVSceneGraphNode@@V?$allocator@PAVSceneGraphNode@@@std@@@std@@QBE_NABV01@@Z 60824fc0 f i NMS_Engine.obj
 0002:00010030       ??0?$_Vector_iterator@PAVSceneGraphNode@@V?$allocator@PAVSceneGraphNode@@@std@@@std@@QAE@PAPAVSceneGraphNode@@PBV_Container_base_secure@1@@Z 60825030 f i NMS_Engine.obj
 0002:00010090       ??0?$_Container_base_aux_alloc_empty@V?$allocator@TSDL_Event@@@std@@@std@@IAE@V?$allocator@TSDL_Event@@@1@@Z 60825090 f i NMS_Engine.obj
 0002:00010100       ??8?$_Vector_const_iterator@PAVSceneGraphNode@@V?$allocator@PAVSceneGraphNode@@@std@@@std@@QBE_NABV01@@Z 60825100 f i NMS_Engine.obj
 0002:00010170       ?_Compat@?$_Vector_const_iterator@PAVSceneGraphNode@@V?$allocator@PAVSceneGraphNode@@@std@@@std@@QBEXABV12@@Z 60825170 f i NMS_Engine.obj
 0002:00010270       ??$?4P6AXH@Z@?$function1@XH@boost@@QAEAAV01@P6AXH@Z@Z 60825270 f i NMS_Engine.obj
 0002:00010350       ??$?4P6AXW4SDLKey@@@Z@?$function1@XW4SDLKey@@@boost@@QAEAAV01@P6AXW4SDLKey@@@Z@Z 60825350 f i NMS_Engine.obj
 0002:00010430       ??$insert@V?$_Const_iterator@$00@?$list@TSDL_Event@@V?$allocator@TSDL_Event@@@std@@@std@@@?$list@TSDL_Event@@V?$allocator@TSDL_Event@@@std@@@std@@QAEXV?$_Const_iterator@$00@01@00@Z 60825430 f i NMS_Engine.obj
 0002:000105a0       ??$assign@V?$_Const_iterator@$00@?$list@TSDL_Event@@V?$allocator@TSDL_Event@@@std@@@std@@@?$list@TSDL_Event@@V?$allocator@TSDL_Event@@@std@@@std@@QAEXV?$_Const_iterator@$00@01@0@Z 608255a0 f i NMS_Engine.obj
 0002:000106d0       ??$_Ucopy@V?$_Vector_const_iterator@PAVSceneGraphNode@@V?$allocator@PAVSceneGraphNode@@@std@@@std@@@?$vector@PAVSceneGraphNode@@V?$allocator@PAVSceneGraphNode@@@std@@@std@@IAEPAPAVSceneGraphNode@@V?$_Vector_const_iterator@PAVSceneGraphNode@@V?$allocator@PAVSceneGraphNode@@@std@@@1@0PAPAV2@@Z 608256d0 f i NMS_Engine.obj
 0002:00010810       ??$unchecked_copy@PAPAVSceneGraphNode@@PAPAV1@@stdext@@YAPAPAVSceneGraphNode@@PAPAV1@00@Z 60825810 f i NMS_Engine.obj
 0002:000108e0       ??$_Ucopy@PAPAVSceneGraphNode@@@?$vector@PAVSceneGraphNode@@V?$allocator@PAVSceneGraphNode@@@std@@@std@@IAEPAPAVSceneGraphNode@@PAPAV2@00@Z 608258e0 f i NMS_Engine.obj
 0002:00010950       ??$_Destroy_range@V?$allocator@PAVSceneGraphNode@@@std@@@std@@YAXPAPAVSceneGraphNode@@0AAV?$allocator@PAVSceneGraphNode@@@0@@Z 60825950 f i NMS_Engine.obj
 0002:000109d0       ??$?0TSDL_Event@@@?$allocator@PAU_Node@?$_List_nod@TSDL_Event@@V?$allocator@TSDL_Event@@@std@@@std@@@std@@QAE@ABV?$allocator@TSDL_Event@@@1@@Z 608259d0 f i NMS_Engine.obj
 0002:00010a10       ??$_Allocate@U_Node@?$_List_nod@TSDL_Event@@V?$allocator@TSDL_Event@@@std@@@std@@@std@@YAPAU_Node@?$_List_nod@TSDL_Event@@V?$allocator@TSDL_Event@@@std@@@0@IPAU120@@Z 60825a10 f i NMS_Engine.obj
 0002:00010ab0       ??$_Construct@PAU_Node@?$_List_nod@TSDL_Event@@V?$allocator@TSDL_Event@@@std@@@std@@PAU123@@std@@YAXPAPAU_Node@?$_List_nod@TSDL_Event@@V?$allocator@TSDL_Event@@@std@@@0@ABQAU120@@Z 60825ab0 f i NMS_Engine.obj
 0002:00010b50       ??$_Destroy@PAU_Node@?$_List_nod@TSDL_Event@@V?$allocator@TSDL_Event@@@std@@@std@@@std@@YAXPAPAU_Node@?$_List_nod@TSDL_Event@@V?$allocator@TSDL_Event@@@std@@@0@@Z 60825b50 f i NMS_Engine.obj
 0002:00010b80       ??$_Allocate@PAVSceneGraphNode@@@std@@YAPAPAVSceneGraphNode@@IPAPAV1@@Z 60825b80 f i NMS_Engine.obj
 0002:00010c20       ??$?0TSDL_Event@@@?$allocator@U_Node@?$_List_nod@TSDL_Event@@V?$allocator@TSDL_Event@@@std@@@std@@@std@@QAE@ABV?$allocator@TSDL_Event@@@1@@Z 60825c20 f i NMS_Engine.obj
 0002:00010c60       ??$_Destroy@U_Node@?$_List_nod@TSDL_Event@@V?$allocator@TSDL_Event@@@std@@@std@@@std@@YAXPAU_Node@?$_List_nod@TSDL_Event@@V?$allocator@TSDL_Event@@@std@@@0@@Z 60825c60 f i NMS_Engine.obj
 0002:00010c90       ??$assign_to@P6AXH@Z@?$function1@XH@boost@@AAEXP6AXH@Z@Z 60825c90 f i NMS_Engine.obj
 0002:00010d40       ??$assign_to@P6AXW4SDLKey@@@Z@?$function1@XW4SDLKey@@@boost@@AAEXP6AXW4SDLKey@@@Z@Z 60825d40 f i NMS_Engine.obj
 0002:00010df0       ??$_Iter_cat@V?$_Const_iterator@$00@?$list@TSDL_Event@@V?$allocator@TSDL_Event@@@std@@@std@@@std@@YA?AUbidirectional_iterator_tag@0@ABV?$_Const_iterator@$00@?$list@TSDL_Event@@V?$allocator@TSDL_Event@@@std@@@0@@Z 60825df0 f i NMS_Engine.obj
 0002:00010e60       ??$_Insert@V?$_Const_iterator@$00@?$list@TSDL_Event@@V?$allocator@TSDL_Event@@@std@@@std@@@?$list@TSDL_Event@@V?$allocator@TSDL_Event@@@std@@@std@@QAEXV?$_Const_iterator@$00@01@00Uforward_iterator_tag@1@@Z 60825e60 f i NMS_Engine.obj
 0002:00011140       ??$_Assign@V?$_Const_iterator@$00@?$list@TSDL_Event@@V?$allocator@TSDL_Event@@@std@@@std@@@?$list@TSDL_Event@@V?$allocator@TSDL_Event@@@std@@@std@@QAEXV?$_Const_iterator@$00@01@0Uinput_iterator_tag@1@@Z 60826140 f i NMS_Engine.obj
 0002:000112d0       ??$unchecked_uninitialized_copy@V?$_Vector_const_iterator@PAVSceneGraphNode@@V?$allocator@PAVSceneGraphNode@@@std@@@std@@PAPAVSceneGraphNode@@V?$allocator@PAVSceneGraphNode@@@2@@stdext@@YAPAPAVSceneGraphNode@@V?$_Vector_const_iterator@PAVSceneGraphNode@@V?$allocator@PAVSceneGraphNode@@@std@@@std@@0PAPAV1@AAV?$allocator@PAVSceneGraphNode@@@3@@Z 608262d0 f i NMS_Engine.obj
 0002:00011440       ??$_Checked_base@PAPAVSceneGraphNode@@@std@@YAPAPAVSceneGraphNode@@AAPAPAV1@@Z 60826440 f i NMS_Engine.obj
 0002:000114d0       ??$_Iter_random@PAPAVSceneGraphNode@@PAPAV1@@std@@YA?AUrandom_access_iterator_tag@0@ABQAPAVSceneGraphNode@@0@Z 608264d0 f i NMS_Engine.obj
 0002:00011540       ??$_Ptr_cat@PAPAVSceneGraphNode@@PAPAV1@@std@@YA?AU_Scalar_ptr_iterator_tag@0@AAPAPAVSceneGraphNode@@0@Z 60826540 f i NMS_Engine.obj
 0002:000115b0       ??$_Copy_opt@PAPAVSceneGraphNode@@PAPAV1@Urandom_access_iterator_tag@std@@@std@@YAPAPAVSceneGraphNode@@PAPAV1@00Urandom_access_iterator_tag@0@U_Scalar_ptr_iterator_tag@0@U_Range_checked_iterator_tag@0@@Z 608265b0 f i NMS_Engine.obj
 0002:00011690       ??$unchecked_uninitialized_copy@PAPAVSceneGraphNode@@PAPAV1@V?$allocator@PAVSceneGraphNode@@@std@@@stdext@@YAPAPAVSceneGraphNode@@PAPAV1@00AAV?$allocator@PAVSceneGraphNode@@@std@@@Z 60826690 f i NMS_Engine.obj
 0002:00011740       ??$_Destroy_range@V?$allocator@PAVSceneGraphNode@@@std@@@std@@YAXPAPAVSceneGraphNode@@0AAV?$allocator@PAVSceneGraphNode@@@0@U_Scalar_ptr_iterator_tag@0@@Z 60826740 f i NMS_Engine.obj
 0002:00011770       ?_Insert@?$list@TSDL_Event@@V?$allocator@TSDL_Event@@@std@@@std@@QAEXV?$_Const_iterator@$00@12@ABTSDL_Event@@@Z 60826770 f i NMS_Engine.obj
 0002:000118c0       ?erase@?$list@TSDL_Event@@V?$allocator@TSDL_Event@@@std@@@std@@QAE?AV?$_Iterator@$00@12@V?$_Const_iterator@$00@12@@Z 608268c0 f i NMS_Engine.obj
 0002:00011b10       ??D?$_Const_iterator@$00@?$list@TSDL_Event@@V?$allocator@TSDL_Event@@@std@@@std@@QBEABTSDL_Event@@XZ 60826b10 f i NMS_Engine.obj
 0002:00011c40       ??E?$_Const_iterator@$00@?$list@TSDL_Event@@V?$allocator@TSDL_Event@@@std@@@std@@QAEAAV012@XZ 60826c40 f i NMS_Engine.obj
 0002:00011d80       ??F?$_Const_iterator@$00@?$list@TSDL_Event@@V?$allocator@TSDL_Event@@@std@@@std@@QAEAAV012@XZ 60826d80 f i NMS_Engine.obj
 0002:00011ec0       ??9?$_Const_iterator@$00@?$list@TSDL_Event@@V?$allocator@TSDL_Event@@@std@@@std@@QBE_NABV012@@Z 60826ec0 f i NMS_Engine.obj
 0002:00011f30       ?manage@?$functor_manager@P6AXH@Z@function@detail@boost@@SAXABTfunction_buffer@234@AAT5234@W4functor_manager_operation_type@234@@Z 60826f30 f i NMS_Engine.obj
 0002:00011fe0       ?invoke@?$void_function_invoker1@P6AXH@ZXH@function@detail@boost@@SAXAATfunction_buffer@234@H@Z 60826fe0 f i NMS_Engine.obj
 0002:00012040       ?manage@?$functor_manager@P6AXW4SDLKey@@@Z@function@detail@boost@@SAXABTfunction_buffer@234@AAT5234@W4functor_manager_operation_type@234@@Z 60827040 f i NMS_Engine.obj
 0002:000120f0       ?invoke@?$void_function_invoker1@P6AXW4SDLKey@@@ZXW41@@function@detail@boost@@SAXAATfunction_buffer@234@W4SDLKey@@@Z 608270f0 f i NMS_Engine.obj
 0002:00012150       ?_Myval@?$list@TSDL_Event@@V?$allocator@TSDL_Event@@@std@@@std@@KAAATSDL_Event@@PAU_Node@?$_List_nod@TSDL_Event@@V?$allocator@TSDL_Event@@@std@@@2@@Z 60827150 f i NMS_Engine.obj
 0002:00012190       ?_Make_iter@?$list@TSDL_Event@@V?$allocator@TSDL_Event@@@std@@@std@@QBE?AV?$_Iterator@$00@12@V?$_Const_iterator@$00@12@@Z 60827190 f i NMS_Engine.obj
 0002:00012260       ?_Buynode@?$list@TSDL_Event@@V?$allocator@TSDL_Event@@@std@@@std@@IAEPAU_Node@?$_List_nod@TSDL_Event@@V?$allocator@TSDL_Event@@@std@@@2@PAU342@0ABTSDL_Event@@@Z 60827260 f i NMS_Engine.obj
 0002:00012440       ?_Incsize@?$list@TSDL_Event@@V?$allocator@TSDL_Event@@@std@@@std@@IAEXI@Z 60827440 f i NMS_Engine.obj
 0002:00012560       ??E?$_Const_iterator@$00@?$list@TSDL_Event@@V?$allocator@TSDL_Event@@@std@@@std@@QAE?AV012@H@Z 60827560 f i NMS_Engine.obj
 0002:00012680       ??8?$_Const_iterator@$00@?$list@TSDL_Event@@V?$allocator@TSDL_Event@@@std@@@std@@QBE_NABV012@@Z 60827680 f i NMS_Engine.obj
 0002:000126f0       ?_Mynode@?$_Const_iterator@$00@?$list@TSDL_Event@@V?$allocator@TSDL_Event@@@std@@@std@@QBEPAU_Node@?$_List_nod@TSDL_Event@@V?$allocator@TSDL_Event@@@std@@@3@XZ 608276f0 f i NMS_Engine.obj
 0002:00012730       ?manager@?$functor_manager@P6AXH@Z@function@detail@boost@@CAXABTfunction_buffer@234@AAT5234@W4functor_manager_operation_type@234@Ufunction_ptr_tag@234@@Z 60827730 f i NMS_Engine.obj
 0002:00012790       ?manager@?$functor_manager@P6AXW4SDLKey@@@Z@function@detail@boost@@CAXABTfunction_buffer@234@AAT5234@W4functor_manager_operation_type@234@Ufunction_ptr_tag@234@@Z 60827790 f i NMS_Engine.obj
 0002:000127f0       ?max_size@?$list@TSDL_Event@@V?$allocator@TSDL_Event@@@std@@@std@@QBEIXZ 608277f0 f i NMS_Engine.obj
 0002:00012850       ?construct@?$allocator@TSDL_Event@@@std@@QAEXPATSDL_Event@@ABT3@@Z 60827850 f i NMS_Engine.obj
 0002:000128b0       ?_Compat@?$_Const_iterator@$00@?$list@TSDL_Event@@V?$allocator@TSDL_Event@@@std@@@std@@QBEXABV123@@Z 608278b0 f i NMS_Engine.obj
 0002:000129c0       ?manage_ptr@?$functor_manager_common@P6AXH@Z@function@detail@boost@@SAXABTfunction_buffer@234@AAT5234@W4functor_manager_operation_type@234@@Z 608279c0 f i NMS_Engine.obj
 0002:00012ac0       ?manage_ptr@?$functor_manager_common@P6AXW4SDLKey@@@Z@function@detail@boost@@SAXABTfunction_buffer@234@AAT5234@W4functor_manager_operation_type@234@@Z 60827ac0 f i NMS_Engine.obj
 0002:00012bc0       ?max_size@?$allocator@TSDL_Event@@@std@@QBEIXZ 60827bc0 f i NMS_Engine.obj
 0002:00012c30       ??$assign_to@P6AXH@Z@?$basic_vtable1@XH@function@detail@boost@@QAE_NP6AXH@ZAATfunction_buffer@123@@Z 60827c30 f i NMS_Engine.obj
 0002:00012ca0       ??$assign_to@P6AXW4SDLKey@@@Z@?$basic_vtable1@XW4SDLKey@@@function@detail@boost@@QAE_NP6AXW4SDLKey@@@ZAATfunction_buffer@123@@Z 60827ca0 f i NMS_Engine.obj
 0002:00012d10       ??$_Debug_range@V?$_Const_iterator@$00@?$list@TSDL_Event@@V?$allocator@TSDL_Event@@@std@@@std@@@std@@YAXV?$_Const_iterator@$00@?$list@TSDL_Event@@V?$allocator@TSDL_Event@@@std@@@0@0PB_WI@Z 60827d10 f i NMS_Engine.obj
 0002:00012e40       ??$_Checked_base@V?$_Vector_const_iterator@PAVSceneGraphNode@@V?$allocator@PAVSceneGraphNode@@@std@@@std@@@std@@YA?AV?$_Vector_const_iterator@PAVSceneGraphNode@@V?$allocator@PAVSceneGraphNode@@@std@@@0@AAV10@@Z 60827e40 f i NMS_Engine.obj
 0002:00012f00       ??$_Ptr_cat@V?$_Vector_const_iterator@PAVSceneGraphNode@@V?$allocator@PAVSceneGraphNode@@@std@@@std@@PAPAVSceneGraphNode@@@std@@YA?AU_Scalar_ptr_iterator_tag@0@AAV?$_Vector_const_iterator@PAVSceneGraphNode@@V?$allocator@PAVSceneGraphNode@@@std@@@0@AAPAPAVSceneGraphNode@@@Z 60827f00 f i NMS_Engine.obj
 0002:00012f70       ??$_Uninit_copy@V?$_Vector_const_iterator@PAVSceneGraphNode@@V?$allocator@PAVSceneGraphNode@@@std@@@std@@PAPAVSceneGraphNode@@V?$allocator@PAVSceneGraphNode@@@2@@std@@YAPAPAVSceneGraphNode@@V?$_Vector_const_iterator@PAVSceneGraphNode@@V?$allocator@PAVSceneGraphNode@@@std@@@0@0PAPAV1@AAV?$allocator@PAVSceneGraphNode@@@0@U_Scalar_ptr_iterator_tag@0@U_Range_checked_iterator_tag@0@@Z 60827f70 f i NMS_Engine.obj
 0002:00013110       ??$_Checked_base@PAPAVSceneGraphNode@@@std@@YAPAPAVSceneGraphNode@@AAPAPAV1@U_Unchanged_checked_iterator_base_type_tag@0@@Z 60828110 f i NMS_Engine.obj
 0002:00013150       ??$_Debug_range@PAPAVSceneGraphNode@@@std@@YAXPAPAVSceneGraphNode@@0PB_WI@Z 60828150 f i NMS_Engine.obj
 0002:000131d0       ??$_Debug_pointer@PAVSceneGraphNode@@@std@@YAXPAPAVSceneGraphNode@@PB_WI@Z 608281d0 f i NMS_Engine.obj
 0002:00013240       ??$_Uninit_copy@PAPAVSceneGraphNode@@PAPAV1@V?$allocator@PAVSceneGraphNode@@@std@@@std@@YAPAPAVSceneGraphNode@@PAPAV1@00AAV?$allocator@PAVSceneGraphNode@@@0@U_Scalar_ptr_iterator_tag@0@U_Range_checked_iterator_tag@0@@Z 60828240 f i NMS_Engine.obj
 0002:00013320       ??$_Construct@TSDL_Event@@T1@@std@@YAXPATSDL_Event@@ABT1@@Z 60828320 f i NMS_Engine.obj
 0002:000133e0       ??D?$_Vector_const_iterator@PAVSceneGraphNode@@V?$allocator@PAVSceneGraphNode@@@std@@@std@@QBEABQAVSceneGraphNode@@XZ 608283e0 f i NMS_Engine.obj
 0002:000134f0       ??G?$_Vector_const_iterator@PAVSceneGraphNode@@V?$allocator@PAVSceneGraphNode@@@std@@@std@@QBEHABV01@@Z 608284f0 f i NMS_Engine.obj
 0002:00013560       ??$assign_to@P6AXH@Z@?$basic_vtable1@XH@function@detail@boost@@AAE_NP6AXH@ZAATfunction_buffer@123@Ufunction_ptr_tag@123@@Z 60828560 f i NMS_Engine.obj
 0002:000135e0       ??$assign_to@P6AXW4SDLKey@@@Z@?$basic_vtable1@XW4SDLKey@@@function@detail@boost@@AAE_NP6AXW4SDLKey@@@ZAATfunction_buffer@123@Ufunction_ptr_tag@123@@Z 608285e0 f i NMS_Engine.obj
 0002:00013660       ??$_Debug_range2@V?$_Const_iterator@$00@?$list@TSDL_Event@@V?$allocator@TSDL_Event@@@std@@@std@@@std@@YAXV?$_Const_iterator@$00@?$list@TSDL_Event@@V?$allocator@TSDL_Event@@@std@@@0@0PB_WIUinput_iterator_tag@0@@Z 60828660 f i NMS_Engine.obj
 0002:00013700       ??$_Checked_base@V?$_Vector_const_iterator@PAVSceneGraphNode@@V?$allocator@PAVSceneGraphNode@@@std@@@std@@@std@@YA?AV?$_Vector_const_iterator@PAVSceneGraphNode@@V?$allocator@PAVSceneGraphNode@@@std@@@0@AAV10@U_Unchanged_checked_iterator_base_type_tag@0@@Z 60828700 f i NMS_Engine.obj
 0002:00013770       ??$_Debug_range@V?$_Vector_const_iterator@PAVSceneGraphNode@@V?$allocator@PAVSceneGraphNode@@@std@@@std@@@std@@YAXV?$_Vector_const_iterator@PAVSceneGraphNode@@V?$allocator@PAVSceneGraphNode@@@std@@@0@0PB_WI@Z 60828770 f i NMS_Engine.obj
 0002:000138a0       ??$_Iter_cat@PAPAVSceneGraphNode@@@std@@YA?AUrandom_access_iterator_tag@0@ABQAPAVSceneGraphNode@@@Z 608288a0 f i NMS_Engine.obj
 0002:00013910       ??$_Debug_range2@PAPAVSceneGraphNode@@@std@@YAXPAPAVSceneGraphNode@@0PB_WIUrandom_access_iterator_tag@0@@Z 60828910 f i NMS_Engine.obj
 0002:000139c0       ??$_Iter_cat@V?$_Vector_const_iterator@PAVSceneGraphNode@@V?$allocator@PAVSceneGraphNode@@@std@@@std@@@std@@YA?AUrandom_access_iterator_tag@0@ABV?$_Vector_const_iterator@PAVSceneGraphNode@@V?$allocator@PAVSceneGraphNode@@@std@@@0@@Z 608289c0 f i NMS_Engine.obj
 0002:00013a30       ??$_Debug_range2@V?$_Vector_const_iterator@PAVSceneGraphNode@@V?$allocator@PAVSceneGraphNode@@@std@@@std@@@std@@YAXV?$_Vector_const_iterator@PAVSceneGraphNode@@V?$allocator@PAVSceneGraphNode@@@std@@@0@0PB_WIUrandom_access_iterator_tag@0@@Z 60828a30 f i NMS_Engine.obj
 0002:00013b60       ??$_Debug_pointer@V?$_Vector_const_iterator@PAVSceneGraphNode@@V?$allocator@PAVSceneGraphNode@@@std@@@std@@@std@@YAXAAV?$_Vector_const_iterator@PAVSceneGraphNode@@V?$allocator@PAVSceneGraphNode@@@std@@@0@PB_WI@Z 60828b60 f i NMS_Engine.obj
 0002:00013b90       ??0NMS_Event@@AAE@XZ       60828b90 f   NMS_Event.obj
 0002:00013c80       ?getInstance@NMS_Event@@SAAAV1@XZ 60828c80 f   NMS_Event.obj
 0002:00013d80       ?destroy@NMS_Event@@SAXXZ  60828d80 f   NMS_Event.obj
 0002:00013e30       ??_GNMS_Event@@QAEPAXI@Z   60828e30 f i NMS_Event.obj
 0002:00013ea0       ?pollEvents@NMS_Event@@QAEXXZ 60828ea0 f   NMS_Event.obj
 0002:00013f70       ?processEvents@NMS_Event@@QAEXXZ 60828f70 f   NMS_Event.obj
 0002:00014050       ?handleEvent@NMS_Event@@QAEXTSDL_Event@@@Z 60829050 f   NMS_Event.obj
 0002:00014150       ??0?$list@TSDL_Event@@V?$allocator@TSDL_Event@@@std@@@std@@QAE@XZ 60829150 f i NMS_Event.obj
 0002:00014220       ?size@?$list@TSDL_Event@@V?$allocator@TSDL_Event@@@std@@@std@@QBEIXZ 60829220 f i NMS_Event.obj
 0002:00014260       ?front@?$list@TSDL_Event@@V?$allocator@TSDL_Event@@@std@@@std@@QAEAATSDL_Event@@XZ 60829260 f i NMS_Event.obj
 0002:00014340       ?pop_front@?$list@TSDL_Event@@V?$allocator@TSDL_Event@@@std@@@std@@QAEXXZ 60829340 f i NMS_Event.obj
 0002:00014450       ?push_back@?$list@TSDL_Event@@V?$allocator@TSDL_Event@@@std@@@std@@QAEXABTSDL_Event@@@Z 60829450 f i NMS_Event.obj
 0002:00014550       ??0?$function1@XH@boost@@QAE@XZ 60829550 f i NMS_Event.obj
 0002:000145b0       ??0?$function1@XW4SDLKey@@@boost@@QAE@XZ 608295b0 f i NMS_Event.obj
 0002:00014610       ?end@?$list@TSDL_Event@@V?$allocator@TSDL_Event@@@std@@@std@@QAE?AV?$_Iterator@$00@12@XZ 60829610 f i NMS_Event.obj
 0002:000146a0       ??0?$allocator@TSDL_Event@@@std@@QAE@XZ 608296a0 f i NMS_Event.obj
 0002:000146e0       ??D?$_Iterator@$00@?$list@TSDL_Event@@V?$allocator@TSDL_Event@@@std@@@std@@QBEAATSDL_Event@@XZ 608296e0 f i NMS_Event.obj
 0002:00014730       ??R?$function1@XH@boost@@QBEXH@Z 60829730 f i NMS_Event.obj
 0002:00014840       ??0bad_function_call@boost@@QAE@XZ 60829840 f i NMS_Event.obj
 0002:00014930       ??0runtime_error@std@@QAE@ABV?$basic_string@DU?$char_traits@D@std@@V?$allocator@D@2@@1@@Z 60829930 f i NMS_Event.obj
 0002:00014a10       ??1runtime_error@std@@UAE@XZ 60829a10 f i NMS_Event.obj
 0002:00014a90       ?what@runtime_error@std@@UBEPBDXZ 60829a90 f i NMS_Event.obj
 0002:00014af0       ??_Eruntime_error@std@@UAEPAXI@Z 60829af0 f i NMS_Event.obj
 0002:00014af0       ??_Gruntime_error@std@@UAEPAXI@Z 60829af0 f i NMS_Event.obj
 0002:00014b60       ??_Gbad_function_call@boost@@UAEPAXI@Z 60829b60 f i NMS_Event.obj
 0002:00014b60       ??_Ebad_function_call@boost@@UAEPAXI@Z 60829b60 f i NMS_Event.obj
 0002:00014bd0       ??1bad_function_call@boost@@UAE@XZ 60829bd0 f i NMS_Event.obj
 0002:00014c20       ??R?$function1@XW4SDLKey@@@boost@@QBEXW4SDLKey@@@Z 60829c20 f i NMS_Event.obj
 0002:00014d30       ??$throw_exception@Vbad_function_call@boost@@@boost@@YAXABVbad_function_call@0@@Z 60829d30 f i NMS_Event.obj
 0002:00014e30       ?throw_exception_assert_compatibility@boost@@YAXABVexception@std@@@Z 60829e30 f i NMS_Event.obj
 0002:00014e60       ??0runtime_error@std@@QAE@ABV01@@Z 60829e60 f i NMS_Event.obj
 0002:00014f40       ??0?$clone_impl@U?$error_info_injector@Vbad_function_call@boost@@@exception_detail@boost@@@exception_detail@boost@@QAE@ABV012@@Z 60829f40 f i NMS_Event.obj
 0002:00015000       ??0?$error_info_injector@Vbad_function_call@boost@@@exception_detail@boost@@QAE@ABU012@@Z 6082a000 f i NMS_Event.obj
 0002:00015100       ??0bad_function_call@boost@@QAE@ABV01@@Z 6082a100 f i NMS_Event.obj
 0002:00015170       ??0exception@boost@@QAE@ABV01@@Z 6082a170 f i NMS_Event.obj
 0002:00015210       ??0clone_base@exception_detail@boost@@QAE@ABV012@@Z 6082a210 f i NMS_Event.obj
 0002:00015260       ??_Eclone_base@exception_detail@boost@@UAEPAXI@Z 6082a260 f i NMS_Event.obj
 0002:00015260       ??_Gclone_base@exception_detail@boost@@UAEPAXI@Z 6082a260 f i NMS_Event.obj
 0002:000152d0       ??1clone_base@exception_detail@boost@@UAE@XZ 6082a2d0 f i NMS_Event.obj
 0002:00015310       ??_E?$clone_impl@U?$error_info_injector@Vbad_function_call@boost@@@exception_detail@boost@@@exception_detail@boost@@UAEPAXI@Z 6082a310 f i NMS_Event.obj
 0002:00015310       ??_G?$clone_impl@U?$error_info_injector@Vbad_function_call@boost@@@exception_detail@boost@@@exception_detail@boost@@UAEPAXI@Z 6082a310 f i NMS_Event.obj
 0002:00015380       ??_E?$error_info_injector@Vbad_function_call@boost@@@exception_detail@boost@@UAEPAXI@Z 6082a380 f i NMS_Event.obj
 0002:00015380       ??_G?$error_info_injector@Vbad_function_call@boost@@@exception_detail@boost@@UAEPAXI@Z 6082a380 f i NMS_Event.obj
 0002:000153f0       ??0?$refcount_ptr@Uerror_info_container@exception_detail@boost@@@exception_detail@boost@@QAE@ABV012@@Z 6082a3f0 f i NMS_Event.obj
 0002:00015460       ?add_ref@?$refcount_ptr@Uerror_info_container@exception_detail@boost@@@exception_detail@boost@@AAEXXZ 6082a460 f i NMS_Event.obj
 0002:000154e0       ??1?$error_info_injector@Vbad_function_call@boost@@@exception_detail@boost@@UAE@XZ 6082a4e0 f i NMS_Event.obj
 0002:00015560       ??1exception@boost@@MAE@XZ 6082a560 f i NMS_Event.obj
 0002:000155c0       ??1?$refcount_ptr@Uerror_info_container@exception_detail@boost@@@exception_detail@boost@@QAE@XZ 6082a5c0 f i NMS_Event.obj
 0002:00015610       ?release@?$refcount_ptr@Uerror_info_container@exception_detail@boost@@@exception_detail@boost@@AAEXXZ 6082a610 f i NMS_Event.obj
 0002:000156a0       ??1?$clone_impl@U?$error_info_injector@Vbad_function_call@boost@@@exception_detail@boost@@@exception_detail@boost@@UAE@XZ 6082a6a0 f i NMS_Event.obj
 0002:00015720       ?clone@?$clone_impl@U?$error_info_injector@Vbad_function_call@boost@@@exception_detail@boost@@@exception_detail@boost@@EBEPBVclone_base@23@XZ 6082a720 f i NMS_Event.obj
 0002:00015840       ?rethrow@?$clone_impl@U?$error_info_injector@Vbad_function_call@boost@@@exception_detail@boost@@@exception_detail@boost@@EBEXXZ 6082a840 f i NMS_Event.obj
 0002:000158b0       ??$enable_error_info@Vbad_function_call@boost@@@boost@@YA?AU?$error_info_injector@Vbad_function_call@boost@@@exception_detail@0@ABVbad_function_call@0@@Z 6082a8b0 f i NMS_Event.obj
 0002:00015920       ??$enable_current_exception@U?$error_info_injector@Vbad_function_call@boost@@@exception_detail@boost@@@boost@@YA?AV?$clone_impl@U?$error_info_injector@Vbad_function_call@boost@@@exception_detail@boost@@@exception_detail@0@ABU?$error_info_injector@Vbad_function_call@boost@@@20@@Z 6082a920 f i NMS_Event.obj
 0002:00015990       ??0?$error_info_injector@Vbad_function_call@boost@@@exception_detail@boost@@QAE@ABVbad_function_call@2@@Z 6082a990 f i NMS_Event.obj
 0002:00015a60       ??0exception@boost@@IAE@XZ 6082aa60 f i NMS_Event.obj
 0002:00015af0       ??0?$refcount_ptr@Uerror_info_container@exception_detail@boost@@@exception_detail@boost@@QAE@XZ 6082aaf0 f i NMS_Event.obj
 0002:00015b40       ??0?$clone_impl@U?$error_info_injector@Vbad_function_call@boost@@@exception_detail@boost@@@exception_detail@boost@@QAE@ABU?$error_info_injector@Vbad_function_call@boost@@@12@@Z 6082ab40 f i NMS_Event.obj
 0002:00015c80       ?copy_boost_exception@exception_detail@boost@@YAXPAVexception@2@PBV32@@Z 6082ac80 f i NMS_Event.obj
 0002:00015e10       ??4?$refcount_ptr@Uerror_info_container@exception_detail@boost@@@exception_detail@boost@@QAEAAV012@ABV012@@Z 6082ae10 f i NMS_Event.obj
 0002:00015e70       ?get@?$refcount_ptr@Uerror_info_container@exception_detail@boost@@@exception_detail@boost@@QBEPAUerror_info_container@23@XZ 6082ae70 f i NMS_Event.obj
 0002:00015eb0       ?adopt@?$refcount_ptr@Uerror_info_container@exception_detail@boost@@@exception_detail@boost@@QAEXPAUerror_info_container@23@@Z 6082aeb0 f i NMS_Event.obj
 0002:00015f20       ??0clone_base@exception_detail@boost@@QAE@XZ 6082af20 f i NMS_Event.obj
 0002:00015f70       ??_E?$clone_impl@U?$error_info_injector@Vbad_function_call@boost@@@exception_detail@boost@@@exception_detail@boost@@WCM@AEPAXI@Z 6082af70 f i NMS_Event.obj
 0002:00015f80       ??_E?$error_info_injector@Vbad_function_call@boost@@@exception_detail@boost@@WCM@AEPAXI@Z 6082af80 f i NMS_Event.obj
 0002:00015f90       ??_E?$clone_impl@U?$error_info_injector@Vbad_function_call@boost@@@exception_detail@boost@@@exception_detail@boost@@WEA@AEPAXI@Z 6082af90 f i NMS_Event.obj
 0002:00015fa0       ??0NMS_Framework@@QAE@XZ   6082afa0 f   NMS_Framework.obj
 0002:00016060       ?NMSInit@NMS_Framework@@QAE_NHHHPAD_N@Z 6082b060 f   NMS_Framework.obj
 0002:000162c0       ?NMSQuit@NMS_Framework@@QAEXH@Z 6082b2c0 f   NMS_Framework.obj
 0002:00016300       ?CalculateFrameRate@NMS_Framework@@QAEXXZ 6082b300 f   NMS_Framework.obj
 0002:00016410       ?run@NMS_Framework@@QAEXXZ 6082b410 f   NMS_Framework.obj
 0002:000164d0       ?cleanup@NMS_Framework@@QAEXXZ 6082b4d0 f   NMS_Framework.obj
 0002:000165a0       ??_GSceneGraphNode@@QAEPAXI@Z 6082b5a0 f i NMS_Framework.obj
 0002:00016610       ?render@NMS_Framework@@QAEXXZ 6082b610 f   NMS_Framework.obj
 0002:00016670       ?getScene@NMS_Framework@@QAEPAVSceneGraphNode@@XZ 6082b670 f   NMS_Framework.obj
 0002:000166b0       ?enableWireframe@NMS_Framework@@QAEX_N@Z 6082b6b0 f   NMS_Framework.obj
 0002:00016750       ??$onQuit@VNMS_Framework@@@NMS_Event@@QAEXPAVNMS_Framework@@P81@AEXH@Z@Z 6082b750 f i NMS_Framework.obj
 0002:000167e0       ??$mem_fun@XVNMS_Framework@@H@std@@YA?AV?$mem_fun1_t@XVNMS_Framework@@H@0@P8NMS_Framework@@AEXH@Z@Z 6082b7e0 f i NMS_Framework.obj
 0002:00016840       ??$bind1st@V?$mem_fun1_t@XVNMS_Framework@@H@std@@PAVNMS_Framework@@@std@@YA?AV?$binder1st@V?$mem_fun1_t@XVNMS_Framework@@H@std@@@0@ABV?$mem_fun1_t@XVNMS_Framework@@H@0@ABQAVNMS_Framework@@@Z 6082b840 f i NMS_Framework.obj
 0002:000168e0       ??$?4V?$binder1st@V?$mem_fun1_t@XVNMS_Framework@@H@std@@@std@@@?$function1@XH@boost@@QAEAAV01@V?$binder1st@V?$mem_fun1_t@XVNMS_Framework@@H@std@@@std@@@Z 6082b8e0 f i NMS_Framework.obj
 0002:000169c0       ??0?$mem_fun1_t@XVNMS_Framework@@H@std@@QAE@P8NMS_Framework@@AEXH@Z@Z 6082b9c0 f i NMS_Framework.obj
 0002:00016a10       ??0?$binder1st@V?$mem_fun1_t@XVNMS_Framework@@H@std@@@std@@QAE@ABV?$mem_fun1_t@XVNMS_Framework@@H@1@ABQAVNMS_Framework@@@Z 6082ba10 f i NMS_Framework.obj
 0002:00016a70       ??$assign_to@V?$binder1st@V?$mem_fun1_t@XVNMS_Framework@@H@std@@@std@@@?$function1@XH@boost@@AAEXV?$binder1st@V?$mem_fun1_t@XVNMS_Framework@@H@std@@@std@@@Z 6082ba70 f i NMS_Framework.obj
 0002:00016b20       ?manage@?$functor_manager@V?$binder1st@V?$mem_fun1_t@XVNMS_Framework@@H@std@@@std@@@function@detail@boost@@SAXABTfunction_buffer@234@AAT5234@W4functor_manager_operation_type@234@@Z 6082bb20 f i NMS_Framework.obj
 0002:00016bd0       ?invoke@?$void_function_obj_invoker1@V?$binder1st@V?$mem_fun1_t@XVNMS_Framework@@H@std@@@std@@XH@function@detail@boost@@SAXAATfunction_buffer@234@H@Z 6082bbd0 f i NMS_Framework.obj
 0002:00016c40       ??R?$binder1st@V?$mem_fun1_t@XVNMS_Framework@@H@std@@@std@@QBEXAAH@Z 6082bc40 f i NMS_Framework.obj
 0002:00016cb0       ?manager@?$functor_manager@V?$binder1st@V?$mem_fun1_t@XVNMS_Framework@@H@std@@@std@@@function@detail@boost@@CAXABTfunction_buffer@234@AAT5234@W4functor_manager_operation_type@234@Ufunction_obj_tag@234@@Z 6082bcb0 f i NMS_Framework.obj
 0002:00016d20       ??R?$mem_fun1_t@XVNMS_Framework@@H@std@@QBEXPAVNMS_Framework@@H@Z 6082bd20 f i NMS_Framework.obj
 0002:00016d90       ?manager@?$functor_manager@V?$binder1st@V?$mem_fun1_t@XVNMS_Framework@@H@std@@@std@@@function@detail@boost@@CAXABTfunction_buffer@234@AAT5234@W4functor_manager_operation_type@234@U?$bool_@$00@mpl@4@@Z 6082bd90 f i NMS_Framework.obj
 0002:00016df0       ?manage_small@?$functor_manager_common@V?$binder1st@V?$mem_fun1_t@XVNMS_Framework@@H@std@@@std@@@function@detail@boost@@SAXABTfunction_buffer@234@AAT5234@W4functor_manager_operation_type@234@@Z 6082bdf0 f i NMS_Framework.obj
 0002:00016f20       ??$assign_to@V?$binder1st@V?$mem_fun1_t@XVNMS_Framework@@H@std@@@std@@@?$basic_vtable1@XH@function@detail@boost@@QAE_NV?$binder1st@V?$mem_fun1_t@XVNMS_Framework@@H@std@@@std@@AATfunction_buffer@123@@Z 6082bf20 f i NMS_Framework.obj
 0002:00016fa0       ??$assign_to@V?$binder1st@V?$mem_fun1_t@XVNMS_Framework@@H@std@@@std@@@?$basic_vtable1@XH@function@detail@boost@@AAE_NV?$binder1st@V?$mem_fun1_t@XVNMS_Framework@@H@std@@@std@@AATfunction_buffer@123@Ufunction_obj_tag@123@@Z 6082bfa0 f i NMS_Framework.obj
 0002:00017050       ?has_empty_target@function@detail@boost@@YA_NZZ 6082c050 f i NMS_Framework.obj
 0002:00017080       ??$addressof@V?$binder1st@V?$mem_fun1_t@XVNMS_Framework@@H@std@@@std@@@boost@@YAPAV?$binder1st@V?$mem_fun1_t@XVNMS_Framework@@H@std@@@std@@AAV12@@Z 6082c080 f i NMS_Framework.obj
 0002:000170f0       ??$assign_functor@V?$binder1st@V?$mem_fun1_t@XVNMS_Framework@@H@std@@@std@@@?$basic_vtable1@XH@function@detail@boost@@AAEXV?$binder1st@V?$mem_fun1_t@XVNMS_Framework@@H@std@@@std@@AATfunction_buffer@123@U?$bool_@$00@mpl@3@@Z 6082c0f0 f i NMS_Framework.obj
 0002:00017190       ?f@?$addressof_impl@V?$binder1st@V?$mem_fun1_t@XVNMS_Framework@@H@std@@@std@@@detail@boost@@SAPAV?$binder1st@V?$mem_fun1_t@XVNMS_Framework@@H@std@@@std@@AAV45@J@Z 6082c190 f i NMS_Framework.obj
 0002:000171d0       ??0?$addr_impl_ref@V?$binder1st@V?$mem_fun1_t@XVNMS_Framework@@H@std@@@std@@@detail@boost@@QAE@AAV?$binder1st@V?$mem_fun1_t@XVNMS_Framework@@H@std@@@std@@@Z 6082c1d0 f i NMS_Framework.obj
 0002:00017220       ??B?$addr_impl_ref@V?$binder1st@V?$mem_fun1_t@XVNMS_Framework@@H@std@@@std@@@detail@boost@@QBEAAV?$binder1st@V?$mem_fun1_t@XVNMS_Framework@@H@std@@@std@@XZ 6082c220 f i NMS_Framework.obj
 0002:00017260       ??0LightSource@@QAE@XZ     6082c260 f   NMS_LightSystem.obj
 0002:00017390       ?getAttFact@LightSource@@QAEMXZ 6082c390 f   NMS_LightSystem.obj
 0002:000173d0       ?getAttType@LightSource@@QAEIXZ 6082c3d0 f   NMS_LightSystem.obj
 0002:00017410       ?getIntDis@LightSource@@QAEMXZ 6082c410 f   NMS_LightSystem.obj
 0002:00017450       ?getLightNumber@LightSource@@QAEIXZ 6082c450 f   NMS_LightSystem.obj
 0002:00017490       ?getLightValue@LightSource@@QAE?AVVector@@XZ 6082c490 f   NMS_LightSystem.obj
 0002:00017510       ?setLightNumber@LightSource@@QAEXI@Z 6082c510 f   NMS_LightSystem.obj
 0002:00017560       ?setLightValue@LightSource@@QAEXPBVVector@@@Z 6082c560 f   NMS_LightSystem.obj
 0002:000175c0       ?setIntDis@LightSource@@QAEXM@Z 6082c5c0 f   NMS_LightSystem.obj
 0002:00017610       ?setAttType@LightSource@@QAEXI@Z 6082c610 f   NMS_LightSystem.obj
 0002:00017660       ?setAttFact@LightSource@@QAEXM@Z 6082c660 f   NMS_LightSystem.obj
 0002:000176b0       ??0NMS_LightSystem@@QAE@XZ 6082c6b0 f   NMS_LightSystem.obj
 0002:000176f0       ?Enable@NMS_LightSystem@@QAEXH@Z 6082c6f0 f   NMS_LightSystem.obj
 0002:00017790       ?Disable@NMS_LightSystem@@QAEXXZ 6082c790 f   NMS_LightSystem.obj
 0002:000177f0       ?setGlobalAmbient@NMS_LightSystem@@QAEXPBVVector@@@Z 6082c7f0 f   NMS_LightSystem.obj
 0002:000178d0       ?defineLight@NMS_LightSystem@@QAEXVLightSource@@@Z 6082c8d0 f   NMS_LightSystem.obj
 0002:00017e60       ?initMutexes@@YAXXZ        6082ce60 f   NMS_Mutex.obj
 0002:00017eb0       ??0SceneGraphNode@@QAE@XZ  6082ceb0 f   NMS_SceneGraph.obj
 0002:00017fb0       ?addChild@SceneGraphNode@@QAEXPAV1@@Z 6082cfb0 f   NMS_SceneGraph.obj
 0002:00018010       ?traverse_df@SceneGraphNode@@QAEXPAVSceneGraphVisitor@@@Z 6082d010 f   NMS_SceneGraph.obj
 0002:00018100       ?traverse_df@SceneGraphNode@@QAEXPAVSceneGraphVisitor@@PAVMatrix@@@Z 6082d100 f   NMS_SceneGraph.obj
 0002:000181f0       ??0TransformationNode@@QAE@XZ 6082d1f0 f   NMS_SceneGraph.obj
 0002:000182b0       ??0TransformationNode@@QAE@VMatrix@@@Z 6082d2b0 f   NMS_SceneGraph.obj
 0002:00018390       ?multiply@TransformationNode@@QAEXVMatrix@@@Z 6082d390 f   NMS_SceneGraph.obj
 0002:00018490       ?before@TransformationNode@@UAEXPAVSceneGraphVisitor@@PAVMatrix@@@Z 6082d490 f   NMS_SceneGraph.obj
 0002:000184f0       ?after@TransformationNode@@UAEXPAVSceneGraphVisitor@@PAVMatrix@@@Z 6082d4f0 f   NMS_SceneGraph.obj
 0002:000185d0       ??0GeometryNode@@QAE@XZ    6082d5d0 f   NMS_SceneGraph.obj
 0002:00018640       ??0GeometryNode@@QAE@PAVMesh@@@Z 6082d640 f   NMS_SceneGraph.obj
 0002:000186b0       ??0GeometryNode@@QAE@PAVMesh@@VMatrix@@@Z 6082d6b0 f   NMS_SceneGraph.obj
 0002:000187a0       ?before@GeometryNode@@UAEXPAVSceneGraphVisitor@@PAVMatrix@@@Z 6082d7a0 f   NMS_SceneGraph.obj
 0002:00018840       ?after@GeometryNode@@UAEXPAVSceneGraphVisitor@@PAVMatrix@@@Z 6082d840 f   NMS_SceneGraph.obj
 0002:000188d0       ?render@Mesh@@QAEXXZ       6082d8d0 f   NMS_SceneGraph.obj
 0002:00018e40       ??0?$vector@PAVSceneGraphNode@@V?$allocator@PAVSceneGraphNode@@@std@@@std@@QAE@XZ 6082de40 f i NMS_SceneGraph.obj
 0002:00018f00       ??A?$vector@PAVSceneGraphNode@@V?$allocator@PAVSceneGraphNode@@@std@@@std@@QAEAAPAVSceneGraphNode@@I@Z 6082df00 f i NMS_SceneGraph.obj
 0002:00019080       ?push_back@?$vector@PAVSceneGraphNode@@V?$allocator@PAVSceneGraphNode@@@std@@@std@@QAEXABQAVSceneGraphNode@@@Z 6082e080 f i NMS_SceneGraph.obj
 0002:000191f0       ?insert@?$vector@PAVSceneGraphNode@@V?$allocator@PAVSceneGraphNode@@@std@@@std@@QAE?AV?$_Vector_iterator@PAVSceneGraphNode@@V?$allocator@PAVSceneGraphNode@@@std@@@2@V?$_Vector_const_iterator@PAVSceneGraphNode@@V?$allocator@PAVSceneGraphNode@@@std@@@2@ABQAVSceneGraphNode@@@Z 6082e1f0 f i NMS_SceneGraph.obj
 0002:000193f0       ?_Ufill@?$vector@PAVSceneGraphNode@@V?$allocator@PAVSceneGraphNode@@@std@@@std@@IAEPAPAVSceneGraphNode@@PAPAV3@IABQAV3@@Z 6082e3f0 f i NMS_SceneGraph.obj
 0002:00019470       ??0?$allocator@PAVSceneGraphNode@@@std@@QAE@XZ 6082e470 f i NMS_SceneGraph.obj
 0002:000194b0       ?_Insert_n@?$vector@PAVSceneGraphNode@@V?$allocator@PAVSceneGraphNode@@@std@@@std@@IAEXV?$_Vector_const_iterator@PAVSceneGraphNode@@V?$allocator@PAVSceneGraphNode@@@std@@@2@IABQAVSceneGraphNode@@@Z 6082e4b0 f i NMS_SceneGraph.obj
 0002:00019a10       ??H?$_Vector_iterator@PAVSceneGraphNode@@V?$allocator@PAVSceneGraphNode@@@std@@@std@@QBE?AV01@H@Z 6082ea10 f i NMS_SceneGraph.obj
 0002:00019b30       ??0?$_Vector_iterator@PAVSceneGraphNode@@V?$allocator@PAVSceneGraphNode@@@std@@@std@@QAE@ABV01@@Z 6082eb30 f i NMS_SceneGraph.obj
 0002:00019b90       ??Y?$_Vector_iterator@PAVSceneGraphNode@@V?$allocator@PAVSceneGraphNode@@@std@@@std@@QAEAAV01@H@Z 6082eb90 f i NMS_SceneGraph.obj
 0002:00019bf0       ??Y?$_Vector_const_iterator@PAVSceneGraphNode@@V?$allocator@PAVSceneGraphNode@@@std@@@std@@QAEAAV01@H@Z 6082ebf0 f i NMS_SceneGraph.obj
 0002:00019d80       ?_Getmycont@_Iterator_base@std@@QBEPBV_Container_base_secure@2@XZ 6082ed80 f i NMS_SceneGraph.obj
 0002:00019dc0       ?_Has_container@_Iterator_base@std@@QBE_NXZ 6082edc0 f i NMS_SceneGraph.obj
 0002:00019e10       ??$unchecked_uninitialized_fill_n@PAPAVSceneGraphNode@@IPAV1@V?$allocator@PAVSceneGraphNode@@@std@@@stdext@@YAXPAPAVSceneGraphNode@@IABQAV1@AAV?$allocator@PAVSceneGraphNode@@@std@@@Z 6082ee10 f i NMS_SceneGraph.obj
 0002:00019eb0       ??$_Umove@PAPAVSceneGraphNode@@@?$vector@PAVSceneGraphNode@@V?$allocator@PAVSceneGraphNode@@@std@@@std@@IAEPAPAVSceneGraphNode@@PAPAV2@00@Z 6082eeb0 f i NMS_SceneGraph.obj
 0002:00019f20       ??$fill@PAPAVSceneGraphNode@@PAV1@@std@@YAXPAPAVSceneGraphNode@@0ABQAV1@@Z 6082ef20 f i NMS_SceneGraph.obj
 0002:00019f90       ??$_Unchecked_move_backward@PAPAVSceneGraphNode@@PAPAV1@@stdext@@YAPAPAVSceneGraphNode@@PAPAV1@00@Z 6082ef90 f i NMS_SceneGraph.obj
 0002:0001a060       ??$_Uninit_fill_n@PAPAVSceneGraphNode@@IPAV1@V?$allocator@PAVSceneGraphNode@@@std@@@std@@YAXPAPAVSceneGraphNode@@IABQAV1@AAV?$allocator@PAVSceneGraphNode@@@0@U_Scalar_ptr_iterator_tag@0@U_Range_checked_iterator_tag@0@@Z 6082f060 f i NMS_SceneGraph.obj
 0002:0001a0c0       ??$_Unchecked_uninitialized_move@PAPAVSceneGraphNode@@PAPAV1@V?$allocator@PAVSceneGraphNode@@@std@@@stdext@@YAPAPAVSceneGraphNode@@PAPAV1@00AAV?$allocator@PAVSceneGraphNode@@@std@@@Z 6082f0c0 f i NMS_SceneGraph.obj
 0002:0001a170       ??$_Fill@PAPAVSceneGraphNode@@PAV1@@std@@YAXPAPAVSceneGraphNode@@0ABQAV1@@Z 6082f170 f i NMS_SceneGraph.obj
 0002:0001a200       ??$_Move_cat@PAPAVSceneGraphNode@@@std@@YA?AU_Undefined_move_tag@0@ABQAPAVSceneGraphNode@@@Z 6082f200 f i NMS_SceneGraph.obj
 0002:0001a270       ??$_Move_backward_opt@PAPAVSceneGraphNode@@PAPAV1@Urandom_access_iterator_tag@std@@U_Undefined_move_tag@3@@std@@YAPAPAVSceneGraphNode@@PAPAV1@00Urandom_access_iterator_tag@0@U_Undefined_move_tag@0@U_Range_checked_iterator_tag@0@@Z 6082f270 f i NMS_SceneGraph.obj
 0002:0001a310       ??$unchecked_fill_n@PAPAVSceneGraphNode@@IPAV1@@stdext@@YAXPAPAVSceneGraphNode@@IABQAV1@@Z 6082f310 f i NMS_SceneGraph.obj
 0002:0001a3a0       ??$_Uninit_move@PAPAVSceneGraphNode@@PAPAV1@V?$allocator@PAVSceneGraphNode@@@std@@U_Undefined_move_tag@3@@std@@YAPAPAVSceneGraphNode@@PAPAV1@00AAV?$allocator@PAVSceneGraphNode@@@0@U_Undefined_move_tag@0@U_Range_checked_iterator_tag@0@@Z 6082f3a0 f i NMS_SceneGraph.obj
 0002:0001a400       ??$_Copy_backward_opt@PAPAVSceneGraphNode@@PAPAV1@Urandom_access_iterator_tag@std@@@std@@YAPAPAVSceneGraphNode@@PAPAV1@00Urandom_access_iterator_tag@0@U_Scalar_ptr_iterator_tag@0@U_Range_checked_iterator_tag@0@@Z 6082f400 f i NMS_SceneGraph.obj
 0002:0001a4f0       ??$_Fill_n@PAPAVSceneGraphNode@@IPAV1@@std@@YAXPAPAVSceneGraphNode@@IABQAV1@Urandom_access_iterator_tag@0@U_Range_checked_iterator_tag@0@@Z 6082f4f0 f i NMS_SceneGraph.obj
 0002:0001a580       ??$_Fill_n@PAPAVSceneGraphNode@@IPAV1@@std@@YAXPAPAVSceneGraphNode@@IABQAV1@U_Range_checked_iterator_tag@0@@Z 6082f580 f i NMS_SceneGraph.obj
 0002:0001a5e0       ??0NMS_SceneRenderer@@QAE@XZ 6082f5e0 f   NMS_SceneRenderer.obj
 0002:0001a670       ?initRendering@NMS_SceneRenderer@@QAE_NXZ 6082f670 f   NMS_SceneRenderer.obj
 0002:0001a920       ?up@NMS_SceneRenderer@@QAEXXZ 6082f920 f   NMS_SceneRenderer.obj
 0002:0001a980       ?down@NMS_SceneRenderer@@QAEXXZ 6082f980 f   NMS_SceneRenderer.obj
 0002:0001aa20       ?run@NMS_SceneRenderer@@UAEHXZ 6082fa20 f   NMS_SceneRenderer.obj
 0002:0001aa90       ?renderingLoop@NMS_SceneRenderer@@QAEHXZ 6082fa90 f   NMS_SceneRenderer.obj
 0002:0001ab10       ?render@NMS_SceneRenderer@@QAEXXZ 6082fb10 f   NMS_SceneRenderer.obj
 0002:0001abe0       ?setScene@NMS_SceneRenderer@@QAEXPAVSceneGraphNode@@@Z 6082fbe0 f   NMS_SceneRenderer.obj
 0002:0001ac30       ?sg_before@NMS_SceneRenderer@@UAEXVMatrix@@VMesh@@@Z 6082fc30 f   NMS_SceneRenderer.obj
 0002:0001ad80       ?sg_after@NMS_SceneRenderer@@UAEXVMatrix@@VMesh@@@Z 6082fd80 f   NMS_SceneRenderer.obj
 0002:0001ade0       ??0NMS_TextureManager@@QAE@XZ 6082fde0 f   NMS_TextureManager.obj
 0002:0001ae40       ??1NMS_TextureManager@@QAE@XZ 6082fe40 f   NMS_TextureManager.obj
 0002:0001aea0       ??1?$map@PADUtextStruct@@U?$less@PAD@std@@V?$allocator@U?$pair@QADUtextStruct@@@std@@@3@@std@@QAE@XZ 6082fea0 f i NMS_TextureManager.obj
 0002:0001aef0       ?GetSingleton@NMS_TextureManager@@SAAAV1@XZ 6082fef0 f   NMS_TextureManager.obj
 0002:0001aff0       ?Initialize@NMS_TextureManager@@CAXXZ 6082fff0 f   NMS_TextureManager.obj
 0002:0001b070       ?Destroy@NMS_TextureManager@@SAXXZ 60830070 f   NMS_TextureManager.obj
 0002:0001b160       ??_GNMS_TextureManager@@QAEPAXI@Z 60830160 f i NMS_TextureManager.obj
 0002:0001b1d0       ?LoadTexture@NMS_TextureManager@@QAEHPBDPAD@Z 608301d0 f   NMS_TextureManager.obj
 0002:0001b9d0       ?FreeTexture@NMS_TextureManager@@QAEXPAD@Z 608309d0 f   NMS_TextureManager.obj
 0002:0001bbc0       ?FreeAll@NMS_TextureManager@@QAEXXZ 60830bc0 f   NMS_TextureManager.obj
 0002:0001bde0       ??4iterator@?$_Tree@V?$_Tmap_traits@PADUtextStruct@@U?$less@PAD@std@@V?$allocator@U?$pair@QADUtextStruct@@@std@@@3@$0A@@std@@@std@@QAEAAV012@ABV012@@Z 60830de0 f i NMS_TextureManager.obj
 0002:0001be40       ??4const_iterator@?$_Tree@V?$_Tmap_traits@PADUtextStruct@@U?$less@PAD@std@@V?$allocator@U?$pair@QADUtextStruct@@@std@@@3@$0A@@std@@@std@@QAEAAV012@ABV012@@Z 60830e40 f i NMS_TextureManager.obj
 0002:0001beb0       ??4?$_Bidit@U?$pair@QADUtextStruct@@@std@@HPBU12@ABU12@@std@@QAEAAU01@ABU01@@Z 60830eb0 f i NMS_TextureManager.obj
 0002:0001bf10       ??4?$_Iterator_with_base@Ubidirectional_iterator_tag@std@@U?$pair@QADUtextStruct@@@2@HPBU32@ABU32@V_Iterator_base@2@@std@@QAEAAU01@ABU01@@Z 60830f10 f i NMS_TextureManager.obj
 0002:0001bf70       ?checkForHash@NMS_TextureManager@@AAE?AUtextStruct@@PAD0@Z 60830f70 f   NMS_TextureManager.obj
 0002:0001c2a0       ??0?$map@PADUtextStruct@@U?$less@PAD@std@@V?$allocator@U?$pair@QADUtextStruct@@@std@@@3@@std@@QAE@XZ 608312a0 f i NMS_TextureManager.obj
 0002:0001c310       ??A?$map@PADUtextStruct@@U?$less@PAD@std@@V?$allocator@U?$pair@QADUtextStruct@@@std@@@3@@std@@QAEAAUtextStruct@@ABQAD@Z 60831310 f i NMS_TextureManager.obj
 0002:0001c5c0       ??1?$_Tree@V?$_Tmap_traits@PADUtextStruct@@U?$less@PAD@std@@V?$allocator@U?$pair@QADUtextStruct@@@std@@@3@$0A@@std@@@std@@QAE@XZ 608315c0 f i NMS_TextureManager.obj
 0002:0001c660       ?find@?$_Tree@V?$_Tmap_traits@PADUtextStruct@@U?$less@PAD@std@@V?$allocator@U?$pair@QADUtextStruct@@@std@@@3@$0A@@std@@@std@@QAE?AViterator@12@ABQAD@Z 60831660 f i NMS_TextureManager.obj
 0002:0001c8f0       ??0iterator@?$_Tree@V?$_Tmap_traits@PADUtextStruct@@U?$less@PAD@std@@V?$allocator@U?$pair@QADUtextStruct@@@std@@@3@$0A@@std@@@std@@QAE@XZ 608318f0 f i NMS_TextureManager.obj
 0002:0001c950       ??Citerator@?$_Tree@V?$_Tmap_traits@PADUtextStruct@@U?$less@PAD@std@@V?$allocator@U?$pair@QADUtextStruct@@@std@@@3@$0A@@std@@@std@@QBEPAU?$pair@QADUtextStruct@@@2@XZ 60831950 f i NMS_TextureManager.obj
 0002:0001c9a0       ??Eiterator@?$_Tree@V?$_Tmap_traits@PADUtextStruct@@U?$less@PAD@std@@V?$allocator@U?$pair@QADUtextStruct@@@std@@@3@$0A@@std@@@std@@QAEAAV012@XZ 608319a0 f i NMS_TextureManager.obj
 0002:0001ca00       ??0const_iterator@?$_Tree@V?$_Tmap_traits@PADUtextStruct@@U?$less@PAD@std@@V?$allocator@U?$pair@QADUtextStruct@@@std@@@3@$0A@@std@@@std@@QAE@XZ 60831a00 f i NMS_TextureManager.obj
 0002:0001ca60       ??Cconst_iterator@?$_Tree@V?$_Tmap_traits@PADUtextStruct@@U?$less@PAD@std@@V?$allocator@U?$pair@QADUtextStruct@@@std@@@3@$0A@@std@@@std@@QBEPBU?$pair@QADUtextStruct@@@2@XZ 60831a60 f i NMS_TextureManager.obj
 0002:0001cab0       ?_Key@?$_Tree@V?$_Tmap_traits@PADUtextStruct@@U?$less@PAD@std@@V?$allocator@U?$pair@QADUtextStruct@@@std@@@3@$0A@@std@@@std@@KAABQADPAU_Node@?$_Tree_nod@V?$_Tmap_traits@PADUtextStruct@@U?$less@PAD@std@@V?$allocator@U?$pair@QADUtextStruct@@@std@@@3@$0A@@std@@@2@@Z 60831ab0 f i NMS_TextureManager.obj
 0002:0001cb10       ??0?$_Tree@V?$_Tmap_traits@PADUtextStruct@@U?$less@PAD@std@@V?$allocator@U?$pair@QADUtextStruct@@@std@@@3@$0A@@std@@@std@@QAE@ABU?$less@PAD@1@ABV?$allocator@U?$pair@QADUtextStruct@@@std@@@1@@Z 60831b10 f i NMS_TextureManager.obj
 0002:0001cbd0       ?insert@?$_Tree@V?$_Tmap_traits@PADUtextStruct@@U?$less@PAD@std@@V?$allocator@U?$pair@QADUtextStruct@@@std@@@3@$0A@@std@@@std@@QAE?AViterator@12@Vconst_iterator@12@ABU?$pair@QADUtextStruct@@@2@@Z 60831bd0 f i NMS_TextureManager.obj
 0002:0001daa0       ?lower_bound@?$_Tree@V?$_Tmap_traits@PADUtextStruct@@U?$less@PAD@std@@V?$allocator@U?$pair@QADUtextStruct@@@std@@@3@$0A@@std@@@std@@QAE?AViterator@12@ABQAD@Z 60832aa0 f i NMS_TextureManager.obj
 0002:0001db30       ??0?$allocator@U?$pair@QADUtextStruct@@@std@@@std@@QAE@XZ 60832b30 f i NMS_TextureManager.obj
 0002:0001db70       ??R?$less@PAD@std@@QBE_NABQAD0@Z 60832b70 f i NMS_TextureManager.obj
 0002:0001dbc0       ??Diterator@?$_Tree@V?$_Tmap_traits@PADUtextStruct@@U?$less@PAD@std@@V?$allocator@U?$pair@QADUtextStruct@@@std@@@3@$0A@@std@@@std@@QBEAAU?$pair@QADUtextStruct@@@2@XZ 60832bc0 f i NMS_TextureManager.obj
 0002:0001dc10       ??Dconst_iterator@?$_Tree@V?$_Tmap_traits@PADUtextStruct@@U?$less@PAD@std@@V?$allocator@U?$pair@QADUtextStruct@@@std@@@3@$0A@@std@@@std@@QBEABU?$pair@QADUtextStruct@@@2@XZ 60832c10 f i NMS_TextureManager.obj
 0002:0001dd30       ??0?$pair@QADUtextStruct@@@std@@QAE@ABQADABUtextStruct@@@Z 60832d30 f i NMS_TextureManager.obj
 0002:0001dd90       ??1?$pair@Viterator@?$_Tree@V?$_Tmap_traits@PADUtextStruct@@U?$less@PAD@std@@V?$allocator@U?$pair@QADUtextStruct@@@std@@@3@$0A@@std@@@std@@_N@std@@QAE@XZ 60832d90 f i NMS_TextureManager.obj
 0002:0001dde0       ?insert@?$_Tree@V?$_Tmap_traits@PADUtextStruct@@U?$less@PAD@std@@V?$allocator@U?$pair@QADUtextStruct@@@std@@@3@$0A@@std@@@std@@QAE?AU?$pair@Viterator@?$_Tree@V?$_Tmap_traits@PADUtextStruct@@U?$less@PAD@std@@V?$allocator@U?$pair@QADUtextStruct@@@std@@@3@$0A@@std@@@std@@_N@2@ABU?$pair@QADUtextStruct@@@2@@Z 60832de0 f i NMS_TextureManager.obj
 0002:0001e2b0       ?_Insert@?$_Tree@V?$_Tmap_traits@PADUtextStruct@@U?$less@PAD@std@@V?$allocator@U?$pair@QADUtextStruct@@@std@@@3@$0A@@std@@@std@@IAE?AViterator@12@_NPAU_Node@?$_Tree_nod@V?$_Tmap_traits@PADUtextStruct@@U?$less@PAD@std@@V?$allocator@U?$pair@QADUtextStruct@@@std@@@3@$0A@@std@@@2@ABU?$pair@QADUtextStruct@@@2@@Z 608332b0 f i NMS_TextureManager.obj
 0002:0001e8c0       ?_Lbound@?$_Tree@V?$_Tmap_traits@PADUtextStruct@@U?$less@PAD@std@@V?$allocator@U?$pair@QADUtextStruct@@@std@@@3@$0A@@std@@@std@@IBEPAU_Node@?$_Tree_nod@V?$_Tmap_traits@PADUtextStruct@@U?$less@PAD@std@@V?$allocator@U?$pair@QADUtextStruct@@@std@@@3@$0A@@std@@@2@ABQAD@Z 608338c0 f i NMS_TextureManager.obj
 0002:0001e9c0       ?_Kfn@?$_Tmap_traits@PADUtextStruct@@U?$less@PAD@std@@V?$allocator@U?$pair@QADUtextStruct@@@std@@@3@$0A@@std@@SAABQADABU?$pair@QADUtextStruct@@@2@@Z 608339c0 f i NMS_TextureManager.obj
 0002:0001ea00       ??Fconst_iterator@?$_Tree@V?$_Tmap_traits@PADUtextStruct@@U?$less@PAD@std@@V?$allocator@U?$pair@QADUtextStruct@@@std@@@3@$0A@@std@@@std@@QAEAAV012@XZ 60833a00 f i NMS_TextureManager.obj
 0002:0001ea60       ?max_size@?$_Tree@V?$_Tmap_traits@PADUtextStruct@@U?$less@PAD@std@@V?$allocator@U?$pair@QADUtextStruct@@@std@@@3@$0A@@std@@@std@@QBEIXZ 60833a60 f i NMS_TextureManager.obj
 0002:0001eac0       ??Fiterator@?$_Tree@V?$_Tmap_traits@PADUtextStruct@@U?$less@PAD@std@@V?$allocator@U?$pair@QADUtextStruct@@@std@@@3@$0A@@std@@@std@@QAEAAV012@XZ 60833ac0 f i NMS_TextureManager.obj
 0002:0001eb20       ?_Dec@const_iterator@?$_Tree@V?$_Tmap_traits@PADUtextStruct@@U?$less@PAD@std@@V?$allocator@U?$pair@QADUtextStruct@@@std@@@3@$0A@@std@@@std@@QAEXXZ 60833b20 f i NMS_TextureManager.obj
 0002:0001ee80       ??0?$pair@Viterator@?$_Tree@V?$_Tmap_traits@PADUtextStruct@@U?$less@PAD@std@@V?$allocator@U?$pair@QADUtextStruct@@@std@@@3@$0A@@std@@@std@@_N@std@@QAE@ABViterator@?$_Tree@V?$_Tmap_traits@PADUtextStruct@@U?$less@PAD@std@@V?$allocator@U?$pair@QADUtextStruct@@@std@@@3@$0A@@std@@@1@AB_N@Z 60833e80 f i NMS_TextureManager.obj
 0002:0001eef0       ?max_size@?$allocator@U?$pair@QADUtextStruct@@@std@@@std@@QBEIXZ 60833ef0 f i NMS_TextureManager.obj
 0002:0001ef60       ??$_Debug_lt_pred@U?$less@PAD@std@@PADPAD@std@@YA_NU?$less@PAD@0@ABQAD1PB_WI@Z 60833f60 f i NMS_TextureManager.obj
 0002:0001f010       ??0Thread@@QAE@XZ          60834010 f   NMS_Thread.obj
 0002:0001f060       ?start@Thread@@QAEXXZ      60834060 f   NMS_Thread.obj
 0002:0001f1c0       ?getThread@Thread@@QAEPAUSDL_Thread@@XZ 608341c0 f   NMS_Thread.obj
 0002:0001f200       ?run@Thread@@UAEHXZ        60834200 f   NMS_Thread.obj
 0002:0001f240       ?threadProxy@@YAHPAX@Z     60834240 f   NMS_Thread.obj
 0002:0001f3ec       _SDL_GL_SwapBuffers        608343ec f   sdl:SDL.dll
 0002:0001f3f2       _SDL_CreateMutex           608343f2 f   sdl:SDL.dll
 0002:0001f3f8       _SDL_mutexV                608343f8 f   sdl:SDL.dll
 0002:0001f3fe       _SDL_PollEvent             608343fe f   sdl:SDL.dll
 0002:0001f404       _SDL_mutexP                60834404 f   sdl:SDL.dll
 0002:0001f40a       _SDL_WM_SetCaption         6083440a f   sdl:SDL.dll
 0002:0001f410       _SDL_GetTicks              60834410 f   sdl:SDL.dll
 0002:0001f416       _SDL_Delay                 60834416 f   sdl:SDL.dll
 0002:0001f41c       _SDL_Quit                  6083441c f   sdl:SDL.dll
 0002:0001f422       _SDL_DestroyMutex          60834422 f   sdl:SDL.dll
 0002:0001f428       _SDL_SetVideoMode          60834428 f   sdl:SDL.dll
 0002:0001f42e       _SDL_WM_GrabInput          6083442e f   sdl:SDL.dll
 0002:0001f434       _SDL_ShowCursor            60834434 f   sdl:SDL.dll
 0002:0001f43a       _SDL_Init                  6083443a f   sdl:SDL.dll
 0002:0001f440       _SDL_WaitThread            60834440 f   sdl:SDL.dll
 0002:0001f446       _SDL_GetError              60834446 f   sdl:SDL.dll
 0002:0001f44c       _SDL_CreateThread          6083444c f   sdl:SDL.dll
 0002:0001f452       _glPopMatrix@0             60834452 f   opengl32:OPENGL32.dll
 0002:0001f458       _glRotatef@16              60834458 f   opengl32:OPENGL32.dll
 0002:0001f45e       _glPushMatrix@0            6083445e f   opengl32:OPENGL32.dll
 0002:0001f464       _glPopAttrib@0             60834464 f   opengl32:OPENGL32.dll
 0002:0001f46a       _glDisable@4               6083446a f   opengl32:OPENGL32.dll
 0002:0001f470       _glEnd@0                   60834470 f   opengl32:OPENGL32.dll
 0002:0001f476       _glVertex3fv@4             60834476 f   opengl32:OPENGL32.dll
 0002:0001f47c       _glNormal3fv@4             6083447c f   opengl32:OPENGL32.dll
 0002:0001f482       _glTexCoord2f@8            60834482 f   opengl32:OPENGL32.dll
 0002:0001f488       _glBegin@4                 60834488 f   opengl32:OPENGL32.dll
 0002:0001f48e       _glBindTexture@8           6083448e f   opengl32:OPENGL32.dll
 0002:0001f494       _glCullFace@4              60834494 f   opengl32:OPENGL32.dll
 0002:0001f49a       _glEnable@4                6083449a f   opengl32:OPENGL32.dll
 0002:0001f4a0       _glFrontFace@4             608344a0 f   opengl32:OPENGL32.dll
 0002:0001f4a6       _glPushAttrib@4            608344a6 f   opengl32:OPENGL32.dll
 0002:0001f4ac       _glLoadIdentity@0          608344ac f   opengl32:OPENGL32.dll
 0002:0001f4b2       _glMatrixMode@4            608344b2 f   opengl32:OPENGL32.dll
 0002:0001f4b8       _glClear@4                 608344b8 f   opengl32:OPENGL32.dll
 0002:0001f4be       _glPolygonMode@8           608344be f   opengl32:OPENGL32.dll
 0002:0001f4c4       _glShadeModel@4            608344c4 f   opengl32:OPENGL32.dll
 0002:0001f4ca       _glLightModelfv@8          608344ca f   opengl32:OPENGL32.dll
 0002:0001f4d0       _glLightfv@12              608344d0 f   opengl32:OPENGL32.dll
 0002:0001f4d6       _glVertex3f@12             608344d6 f   opengl32:OPENGL32.dll
 0002:0001f4dc       _glColor3f@12              608344dc f   opengl32:OPENGL32.dll
 0002:0001f4e2       _glHint@8                  608344e2 f   opengl32:OPENGL32.dll
 0002:0001f4e8       _glDepthFunc@4             608344e8 f   opengl32:OPENGL32.dll
 0002:0001f4ee       _glClearDepth@8            608344ee f   opengl32:OPENGL32.dll
 0002:0001f4f4       _glColorMaterial@8         608344f4 f   opengl32:OPENGL32.dll
 0002:0001f4fa       _glViewport@16             608344fa f   opengl32:OPENGL32.dll
 0002:0001f500       _glClearColor@16           60834500 f   opengl32:OPENGL32.dll
 0002:0001f506       _glMultMatrixf@4           60834506 f   opengl32:OPENGL32.dll
 0002:0001f50c       _glTexImage2D@36           6083450c f   opengl32:OPENGL32.dll
 0002:0001f512       _glTexParameteri@12        60834512 f   opengl32:OPENGL32.dll
 0002:0001f518       _glGenTextures@8           60834518 f   opengl32:OPENGL32.dll
 0002:0001f51e       _glDeleteTextures@8        6083451e f   opengl32:OPENGL32.dll
 0002:0001f524       _gluPerspective@32         60834524 f   glu32:GLU32.dll
 0002:0001f52a       _ilGetData@0               6083452a f   Devil:DevIL.dll
 0002:0001f530       _ilDeleteImages@8          60834530 f   Devil:DevIL.dll
 0002:0001f536       _ilConvertImage@8          60834536 f   Devil:DevIL.dll
 0002:0001f53c       _ilLoadL@12                6083453c f   Devil:DevIL.dll
 0002:0001f542       _ilBindImage@4             60834542 f   Devil:DevIL.dll
 0002:0001f548       _ilGenImages@8             60834548 f   Devil:DevIL.dll
 0002:0001f54e       _ilInit@0                  6083454e f   Devil:DevIL.dll
 0002:0001f554       _ilGetInteger@4            60834554 f   Devil:DevIL.dll
 0002:0001f560       ??0Vector@@QAE@XZ          60834560 f   nms_math:Vector.obj
 0002:0001f5f0       ??0Vector@@QAE@MMM@Z       608345f0 f   nms_math:Vector.obj
 0002:0001f640       ??0Vector@@QAE@MMMM@Z      60834640 f   nms_math:Vector.obj
 0002:0001f690       ??YVector@@QAEAAV0@ABV0@@Z 60834690 f   nms_math:Vector.obj
 0002:0001f700       ??ZVector@@QAEAAV0@ABV0@@Z 60834700 f   nms_math:Vector.obj
 0002:0001f770       ??XVector@@QAEAAV0@M@Z     60834770 f   nms_math:Vector.obj
 0002:0001f7c0       ??_0Vector@@QAEAAV0@M@Z    608347c0 f   nms_math:Vector.obj
 0002:0001f810       ??D@YA?AVVector@@ABV0@M@Z  60834810 f   nms_math:Vector.obj
 0002:0001f890       ??D@YA?AVVector@@MABV0@@Z  60834890 f   nms_math:Vector.obj
 0002:0001f8e0       ??XVector@@QAEAAV0@ABVMatrix@@@Z 608348e0 f   nms_math:Vector.obj
 0002:0001fa60       ??D@YA?AVVector@@AAV0@ABVMatrix@@@Z 60834a60 f   nms_math:Vector.obj
 0002:0001fb50       ??H@YA?AVVector@@ABV0@0@Z  60834b50 f   nms_math:Vector.obj
 0002:0001fc00       ??G@YA?AVVector@@ABV0@0@Z  60834c00 f   nms_math:Vector.obj
 0002:0001fcb0       ??LVector@@QAE?AV0@ABV0@@Z 60834cb0 f   nms_math:Vector.obj
 0002:0001fda0       ??DVector@@QAEMABV0@@Z     60834da0 f   nms_math:Vector.obj
 0002:0001fe20       ?sqmagnitude@Vector@@QAEMXZ 60834e20 f   nms_math:Vector.obj
 0002:0001fe50       ?magnitude@Vector@@QAEMXZ  60834e50 f   nms_math:Vector.obj
 0002:0001fe90       ?normal@Vector@@QAE?AV1@XZ 60834e90 f   nms_math:Vector.obj
 0002:000201a0       ?sqrt@@YAMM@Z              608351a0 f i nms_math:Vector.obj
 0002:000201d0       _sqrtf                     608351d0 f i nms_math:Vector.obj
 0002:00020210       ??APoint@@QAEAAMH@Z        60835210 f   nms_math:Point.obj
 0002:000202b0       ??APoint@@QBEABMH@Z        608352b0 f   nms_math:Point.obj
 0002:00020350       ??0Point@@QAE@XZ           60835350 f   nms_math:Point.obj
 0002:00020390       ??0Point@@QAE@MMM@Z        60835390 f   nms_math:Point.obj
 0002:000203d0       ??9@YA_NABVPoint@@0@Z      608353d0 f   nms_math:Point.obj
 0002:00020470       ??8@YA_NABVPoint@@0@Z      60835470 f   nms_math:Point.obj
 0002:00020510       ??HPoint@@QAE?AV0@ABVVector@@@Z 60835510 f   nms_math:Point.obj
 0002:000205b0       ??GPoint@@QAE?AVVector@@ABV0@@Z 608355b0 f   nms_math:Point.obj
 0002:00020650       ??GPoint@@QAE?AV0@ABVVector@@@Z 60835650 f   nms_math:Point.obj
 0002:000206f0       ??XPoint@@QAEAAV0@ABVMatrix@@@Z 608356f0 f   nms_math:Point.obj
 0002:00020870       ??D@YA?AVPoint@@AAV0@ABVMatrix@@@Z 60835870 f   nms_math:Point.obj
 0002:00020960       ??6@YAAAV?$basic_ostream@DU?$char_traits@D@std@@@std@@AAV01@ABVPoint@@@Z 60835960 f   nms_math:Point.obj
 0002:00020c50       ??0Quaternion@@QAE@XZ      60835c50 f   nms_math:Quaternion.obj
 0002:00020ca0       ??0Quaternion@@QAE@MMMM@Z  60835ca0 f   nms_math:Quaternion.obj
 0002:00020cf0       ??XQuaternion@@QAEXABV0@@Z 60835cf0 f   nms_math:Quaternion.obj
 0002:00020e20       ??DQuaternion@@QBE?AV0@ABV0@@Z 60835e20 f   nms_math:Quaternion.obj
 0002:00020fe0       ?createFromAngles@Quaternion@@QAEXMMM@Z 60835fe0 f   nms_math:Quaternion.obj
 0002:00021150       ?getMatrix@Quaternion@@QAE?AVMatrix@@XZ 60836150 f   nms_math:Quaternion.obj
 0002:000215a0       _cosf                      608365a0 f i nms_math:Quaternion.obj
 0002:000215e0       _sinf                      608365e0 f i nms_math:Quaternion.obj
 0002:00021620       ??0Matrix@@QAE@XZ          60836620 f   nms_math:Matrix.obj
 0002:00021720       ??1Matrix@@QAE@XZ          60836720 f   nms_math:Matrix.obj
 0002:000217b0       ??0Matrix@@QAE@II@Z        608367b0 f   nms_math:Matrix.obj
 0002:000218b0       ??0Matrix@@QAE@ABV0@@Z     608368b0 f   nms_math:Matrix.obj
 0002:000219e0       ??4Matrix@@QAEABV0@ABV0@@Z 608369e0 f   nms_math:Matrix.obj
 0002:00021b40       ??RMatrix@@QAEAAMII@Z      60836b40 f   nms_math:Matrix.obj
 0002:00021bc0       ??RMatrix@@QBE?BMII@Z      60836bc0 f   nms_math:Matrix.obj
 0002:00021c40       ?getRowL@Matrix@@QBEIXZ    60836c40 f   nms_math:Matrix.obj
 0002:00021c60       ?getColL@Matrix@@QBEIXZ    60836c60 f   nms_math:Matrix.obj
 0002:00021c80       ??6@YAAAV?$basic_ostream@DU?$char_traits@D@std@@@std@@AAV01@ABVMatrix@@@Z 60836c80 f   nms_math:Matrix.obj
 0002:00021d30       ?getRow@Matrix@@QAE?AVVector@@I@Z 60836d30 f   nms_math:Matrix.obj
 0002:00021e20       ?getCol@Matrix@@QAE?AVVector@@I@Z 60836e20 f   nms_math:Matrix.obj
 0002:00021f10       ?setRow@Matrix@@QAEXIABVVector@@@Z 60836f10 f   nms_math:Matrix.obj
 0002:00021fd0       ?setCol@Matrix@@QAEXIABVVector@@@Z 60836fd0 f   nms_math:Matrix.obj
 0002:00022090       ??S@YA?AVMatrix@@ABV0@@Z   60837090 f   nms_math:Matrix.obj
 0002:000221d0       ?swapRows@Matrix@@QAEXII@Z 608371d0 f   nms_math:Matrix.obj
 0002:00022280       ??7@YA?AVMatrix@@ABV0@@Z   60837280 f   nms_math:Matrix.obj
 0002:00022610       ?rotX@Matrix@@QAEXABN@Z    60837610 f   nms_math:Matrix.obj
 0002:00022770       ?rotY@Matrix@@QAEXABN@Z    60837770 f   nms_math:Matrix.obj
 0002:000228d0       ?rotZ@Matrix@@QAEXABN@Z    608378d0 f   nms_math:Matrix.obj
 0002:00022a30       ?rotV@Matrix@@QAEXABNABVVector@@@Z 60837a30 f   nms_math:Matrix.obj
 0002:00022f80       ?memoryRealloc@Matrix@@AAEXIIII@Z 60837f80 f   nms_math:Matrix.obj
 0002:00023170       ?resize@Matrix@@QAEXIIII@Z 60838170 f   nms_math:Matrix.obj
 0002:00023280       ??8@YA_NABVMatrix@@0@Z     60838280 f   nms_math:Matrix.obj
 0002:00023350       ??XMatrix@@QAEAAV0@ABV0@@Z 60838350 f   nms_math:Matrix.obj
 0002:00023520       ??XMatrix@@QAEAAV0@ABM@Z   60838520 f   nms_math:Matrix.obj
 0002:000235c0       ??D@YA?AVMatrix@@ABV0@ABM@Z 608385c0 f   nms_math:Matrix.obj
 0002:00023690       ??D@YA?AVMatrix@@ABMABV0@@Z 60838690 f   nms_math:Matrix.obj
 0002:000236d0       ??D@YA?AVMatrix@@ABV0@0@Z  608386d0 f   nms_math:Matrix.obj
 0002:000237a0       ?uScale@Matrix@@QAEXABM@Z  608387a0 f   nms_math:Matrix.obj
 0002:00023870       ?translate@Matrix@@QAEXABVVector@@@Z 60838870 f   nms_math:Matrix.obj
 0002:00023950       ?shear@Matrix@@QAEXABMABI1@Z 60838950 f   nms_math:Matrix.obj
 0002:00023a30       ?returnPointer@Matrix@@QAEPAMXZ 60838a30 f   nms_math:Matrix.obj
 0002:00023a50       ?debugPrint@Matrix@@QAEXXZ 60838a50 f   nms_math:Matrix.obj
 0002:000245e0       ??0mat_struct@Matrix@@QAE@II@Z 608395e0 f i nms_math:Matrix.obj
 0002:00024680       ??_Gmat_struct@Matrix@@QAEPAXI@Z 60839680 f i nms_math:Matrix.obj
 0002:000246d0       ??1mat_struct@Matrix@@QAE@XZ 608396d0 f i nms_math:Matrix.obj
 0002:00024730       ?abs@@YAMM@Z               60839730 f i nms_math:Matrix.obj
 0002:00024760       _fabsf                     60839760 f i nms_math:Matrix.obj
 0002:000247a0       ??$min@I@std@@YAABIABI0@Z  608397a0 f i nms_math:Matrix.obj
 0002:00024810       ??$max@I@std@@YAABIABI0@Z  60839810 f i nms_math:Matrix.obj
 0002:00024880       ??$_Debug_lt@II@std@@YA_NABI0PB_WI@Z 60839880 f i nms_math:Matrix.obj
 0002:000248e0       ?degToRad@nmsTrig@@SANN@Z  608398e0 f   nms_math:Trig.obj
 0002:00024900       ?radToDeg@nmsTrig@@SANN@Z  60839900 f   nms_math:Trig.obj
 0002:00024920       ?degToRad@nmsTrig@@SAMM@Z  60839920 f   nms_math:Trig.obj
 0002:00024950       ?radToDeg@nmsTrig@@SAMM@Z  60839950 f   nms_math:Trig.obj
 0002:00024980       ?sin@nmsTrig@@SAMN@Z       60839980 f   nms_math:Trig.obj
 0002:00024a20       ?cos@nmsTrig@@SAMN@Z       60839a20 f   nms_math:Trig.obj
 0002:00024b2c       ?FileSize@nmsFileManagement@@SAJPAU_iobuf@@@Z 60839b2c f   nms_utilities:nms_utilities.dll
 0002:00024b32       ?write@NMS_LogFunctions@@SAXPADW4logLevel@@@Z 60839b32 f   nms_utilities:nms_utilities.dll
 0002:00024b38       ?GetSingleton@NMS_LogFunctions@@SAAAV1@XZ 60839b38 f   nms_utilities:nms_utilities.dll
 0002:00024b3e       ?returnSha1@nmsSha1@@SAPADPBXH@Z 60839b3e f   nms_utilities:nms_utilities.dll
 0002:00024b50       ??_U@YAPAXI@Z              60839b50 f   msvcprtd:newaop_s.obj
 0002:00024b68       ??1_Lockit@std@@QAE@XZ     60839b68 f   msvcprtd:MSVCP90D.dll
 0002:00024b6e       ??0_Lockit@std@@QAE@H@Z    60839b6e f   msvcprtd:MSVCP90D.dll
 0002:00024b74       ?_Debug_message@std@@YAXPB_W0I@Z 60839b74 f   msvcprtd:MSVCP90D.dll
 0002:00024b7a       ??1_Container_base_secure@std@@QAE@XZ 60839b7a f   msvcprtd:MSVCP90D.dll
 0002:00024b80       ??0_Container_base_secure@std@@QAE@XZ 60839b80 f   msvcprtd:MSVCP90D.dll
 0002:00024b86       ?setstate@?$basic_ios@DU?$char_traits@D@std@@@std@@QAEXH_N@Z 60839b86 f   msvcprtd:MSVCP90D.dll
 0002:00024b8c       ?width@ios_base@std@@QAEHH@Z 60839b8c f   msvcprtd:MSVCP90D.dll
 0002:00024b92       ?sputn@?$basic_streambuf@DU?$char_traits@D@std@@@std@@QAEHPBDH@Z 60839b92 f   msvcprtd:MSVCP90D.dll
 0002:00024b98       ?eq_int_type@?$char_traits@D@std@@SA_NABH0@Z 60839b98 f   msvcprtd:MSVCP90D.dll
 0002:00024b9e       ?eof@?$char_traits@D@std@@SAHXZ 60839b9e f   msvcprtd:MSVCP90D.dll
 0002:00024ba4       ?sputc@?$basic_streambuf@DU?$char_traits@D@std@@@std@@QAEHD@Z 60839ba4 f   msvcprtd:MSVCP90D.dll
 0002:00024baa       ?rdbuf@?$basic_ios@DU?$char_traits@D@std@@@std@@QBEPAV?$basic_streambuf@DU?$char_traits@D@std@@@2@XZ 60839baa f   msvcprtd:MSVCP90D.dll
 0002:00024bb0       ?fill@?$basic_ios@DU?$char_traits@D@std@@@std@@QBEDXZ 60839bb0 f   msvcprtd:MSVCP90D.dll
 0002:00024bb6       ?flags@ios_base@std@@QBEHXZ 60839bb6 f   msvcprtd:MSVCP90D.dll
 0002:00024bbc       ?width@ios_base@std@@QBEHXZ 60839bbc f   msvcprtd:MSVCP90D.dll
 0002:00024bc2       ?length@?$char_traits@D@std@@SAIPBD@Z 60839bc2 f   msvcprtd:MSVCP90D.dll
 0002:00024bc8       ?flush@?$basic_ostream@DU?$char_traits@D@std@@@std@@QAEAAV12@XZ 60839bc8 f   msvcprtd:MSVCP90D.dll
 0002:00024bce       ?tie@?$basic_ios@DU?$char_traits@D@std@@@std@@QBEPAV?$basic_ostream@DU?$char_traits@D@std@@@2@XZ 60839bce f   msvcprtd:MSVCP90D.dll
 0002:00024bd4       ?good@ios_base@std@@QBE_NXZ 60839bd4 f   msvcprtd:MSVCP90D.dll
 0002:00024bda       ?_Osfx@?$basic_ostream@DU?$char_traits@D@std@@@std@@QAEXXZ 60839bda f   msvcprtd:MSVCP90D.dll
 0002:00024be0       ?uncaught_exception@std@@YA_NXZ 60839be0 f   msvcprtd:MSVCP90D.dll
 0002:00024be6       ?_Lock@?$basic_streambuf@DU?$char_traits@D@std@@@std@@QAEXXZ 60839be6 f   msvcprtd:MSVCP90D.dll
 0002:00024bec       ?_Unlock@?$basic_streambuf@DU?$char_traits@D@std@@@std@@QAEXXZ 60839bec f   msvcprtd:MSVCP90D.dll
 0002:00024bf2       ?_Orphan_all@_Container_base_secure@std@@QBEXXZ 60839bf2 f   msvcprtd:MSVCP90D.dll
 0002:00024bf8       ??1?$basic_string@DU?$char_traits@D@std@@V?$allocator@D@2@@std@@QAE@XZ 60839bf8 f   msvcprtd:MSVCP90D.dll
 0002:00024bfe       ??0?$basic_string@DU?$char_traits@D@std@@V?$allocator@D@2@@std@@QAE@PBD@Z 60839bfe f   msvcprtd:MSVCP90D.dll
 0002:00024c04       ??0?$basic_string@DU?$char_traits@D@std@@V?$allocator@D@2@@std@@QAE@ABV01@@Z 60839c04 f   msvcprtd:MSVCP90D.dll
 0002:00024c0a       ?c_str@?$basic_string@DU?$char_traits@D@std@@V?$allocator@D@2@@std@@QBEPBDXZ 60839c0a f   msvcprtd:MSVCP90D.dll
 0002:00024c10       ??6?$basic_ostream@DU?$char_traits@D@std@@@std@@QAEAAV01@P6AAAV01@AAV01@@Z@Z 60839c10 f   msvcprtd:MSVCP90D.dll
 0002:00024c16       ?endl@std@@YAAAV?$basic_ostream@DU?$char_traits@D@std@@@1@AAV21@@Z 60839c16 f   msvcprtd:MSVCP90D.dll
 0002:00024c1c       ??6?$basic_ostream@DU?$char_traits@D@std@@@std@@QAEAAV01@M@Z 60839c1c f   msvcprtd:MSVCP90D.dll
 0002:00024c30       __RTC_CheckEsp             60839c30 f   MSVCRTD:_stack_.obj
 0002:00024c60       @_RTC_CheckStackVars@8     60839c60 f   MSVCRTD:_stack_.obj
 0002:00024ce0       @_RTC_AllocaHelper@12      60839ce0 f   MSVCRTD:_stack_.obj
 0002:00024d20       @_RTC_CheckStackVars2@12   60839d20 f   MSVCRTD:_stack_.obj
 0002:00024e30       __RTC_InitBase             60839e30 f   MSVCRTD:_init_.obj
 0002:00024e70       __RTC_Shutdown             60839e70 f   MSVCRTD:_init_.obj
 0002:00024e88       _memset                    60839e88 f   MSVCRTD:MSVCR90D.dll
 0002:00024e8e       _malloc                    60839e8e f   MSVCRTD:MSVCR90D.dll
 0002:00024e94       _free                      60839e94 f   MSVCRTD:MSVCR90D.dll
 0002:00024e9a       _fclose                    60839e9a f   MSVCRTD:MSVCR90D.dll
 0002:00024ea0       _fread                     60839ea0 f   MSVCRTD:MSVCR90D.dll
 0002:00024ea6       _fopen_s                   60839ea6 f   MSVCRTD:MSVCR90D.dll
 0002:00024eac       _memcpy                    60839eac f   MSVCRTD:MSVCR90D.dll
 0002:00024ec0       ___CxxFrameHandler3        60839ec0 f   MSVCRTD:MSVCR90D.dll
 0002:00024ed0       @__security_check_cookie@4 60839ed0 f   MSVCRTD:secchk.obj
 0002:00024ee2       __CxxThrowException@8      60839ee2 f   MSVCRTD:MSVCR90D.dll
 0002:00024ee8       ??3@YAXPAX@Z               60839ee8 f   MSVCRTD:MSVCR90D.dll
 0002:00024eee       __invalid_parameter        60839eee f   MSVCRTD:MSVCR90D.dll
 0002:00024ef4       __CrtDbgReportW            60839ef4 f   MSVCRTD:MSVCR90D.dll
 0002:00024efa       ??2@YAPAXI@Z               60839efa f   MSVCRTD:MSVCR90D.dll
 0002:00024f00       ??0type_info@@AAE@ABV0@@Z  60839f00 f   MSVCRTD:ti_inst.obj
 0002:00024f30       ??_Etype_info@@UAEPAXI@Z   60839f30 f i MSVCRTD:ti_inst.obj
 0002:00024fc0       ??4type_info@@AAEAAV0@ABV0@@Z 60839fc0 f   MSVCRTD:ti_inst.obj
 0002:00024fd6       ??0exception@std@@QAE@ABV01@@Z 60839fd6 f   MSVCRTD:MSVCR90D.dll
 0002:00024fdc       ??0exception@std@@QAE@ABQBD@Z 60839fdc f   MSVCRTD:MSVCR90D.dll
 0002:00024fe2       ?what@exception@std@@UBEPBDXZ 60839fe2 f   MSVCRTD:MSVCR90D.dll
 0002:00024fe8       ??1exception@std@@UAE@XZ   60839fe8 f   MSVCRTD:MSVCR90D.dll
 0002:00024fee       _sprintf_s                 60839fee f   MSVCRTD:MSVCR90D.dll
 0002:00024ff4       __purecall                 60839ff4 f   MSVCRTD:MSVCR90D.dll
 0002:00024ffa       ??0exception@std@@QAE@XZ   60839ffa f   MSVCRTD:MSVCR90D.dll
 0002:00025000       _memmove_s                 6083a000 f   MSVCRTD:MSVCR90D.dll
 0002:00025006       ??8type_info@@QBE_NABV0@@Z 6083a006 f   MSVCRTD:MSVCR90D.dll
 0002:00025010       __onexit                   6083a010 f   MSVCRTD:atonexit.obj
 0002:00025160       _atexit                    6083a160 f   MSVCRTD:atonexit.obj
 0002:00025190       __ftol2_sse                6083a190 f   MSVCRTD:ftol2.obj
 0002:00025199       __ftol2_pentium4           6083a199 f   MSVCRTD:ftol2.obj
 0002:000251ac       __ftol2_sse_excpt          6083a1ac f   MSVCRTD:ftol2.obj
 0002:000251c6       __ftol2                    6083a1c6 f   MSVCRTD:ftol2.obj
 0002:00025266       _fseek                     6083a266 f   MSVCRTD:MSVCR90D.dll
 0002:0002526c       _strcmp                    6083a26c f   MSVCRTD:MSVCR90D.dll
 0002:00025272       __wassert                  6083a272 f   MSVCRTD:MSVCR90D.dll
 0002:00025320       __CRT_INIT@12              6083a320 f   MSVCRTD:crtdll.obj
 0002:000256f0       _NtCurrentTeb              6083a6f0 f i MSVCRTD:crtdll.obj
 0002:00025700       __DllMainCRTStartup@12     6083a700 f   MSVCRTD:crtdll.obj
 0002:00025972       _sqrt                      6083a972 f   MSVCRTD:MSVCR90D.dll
 0002:00025978       _cos                       6083a978 f   MSVCRTD:MSVCR90D.dll
 0002:0002597e       _sin                       6083a97e f   MSVCRTD:MSVCR90D.dll
 0002:00025984       ??_V@YAXPAX@Z              6083a984 f   MSVCRTD:MSVCR90D.dll
 0002:0002598a       _fabs                      6083a98a f   MSVCRTD:MSVCR90D.dll
 0002:00025990       _fwrite                    6083a990 f   MSVCRTD:MSVCR90D.dll
 0002:00025996       _strlen                    6083a996 f   MSVCRTD:MSVCR90D.dll
 0002:000259a0       _DebuggerKnownHandle       6083a9a0 f   MSVCRTD:_error_.obj
 0002:00025a80       ?_RTC_Failure@@YAXPAXH@Z   6083aa80 f   MSVCRTD:_error_.obj
 0002:00025e50       ?_RTC_StackFailure@@YAXPAXPBD@Z 6083ae50 f   MSVCRTD:_error_.obj
 0002:00025f90       ?_RTC_AllocaFailure@@YAXPAXPAU_RTC_ALLOCA_NODE@@H@Z 6083af90 f   MSVCRTD:_error_.obj
 0002:000261a0       __RTC_UninitUse            6083b1a0 f   MSVCRTD:_error_.obj
 0002:000262d0       __RTC_NumErrors            6083b2d0 f   MSVCRTD:_userapi_.obj
 0002:000262e0       __RTC_GetErrDesc           6083b2e0 f   MSVCRTD:_userapi_.obj
 0002:00026300       __RTC_SetErrorType         6083b300 f   MSVCRTD:_userapi_.obj
 0002:00026330       __RTC_SetErrorFunc         6083b330 f   MSVCRTD:_userapi_.obj
 0002:00026360       __RTC_SetErrorFuncW        6083b360 f   MSVCRTD:_userapi_.obj
 0002:00026390       ?_RTC_GetErrorFunc@@YAP6AHHPBDH00ZZPBX@Z 6083b390 f   MSVCRTD:_userapi_.obj
 0002:000263a0       ?_RTC_GetErrorFuncW@@YAP6AHHPB_WH00ZZPBX@Z 6083b3a0 f   MSVCRTD:_userapi_.obj
 0002:000263a6       __CRT_RTC_INITW            6083b3a6 f   MSVCRTD:MSVCR90D.dll
 0002:000263b0       ___report_gsfailure        6083b3b0 f   MSVCRTD:gs_report.obj
 0002:00026510       ??_M@YGXPAXIHP6EX0@Z@Z     6083b510 f   MSVCRTD:ehvecdtr.obj
 0002:000265f0       ?__ArrayUnwind@@YGXPAXIHP6EX0@Z@Z 6083b5f0 f   MSVCRTD:ehvecdtr.obj
 0002:000266da       __unlock                   6083b6da f   MSVCRTD:MSVCR90D.dll
 0002:000266e0       ___dllonexit               6083b6e0 f   MSVCRTD:MSVCR90D.dll
 0002:000266e6       __encode_pointer           6083b6e6 f   MSVCRTD:MSVCR90D.dll
 0002:000266ec       __lock                     6083b6ec f   MSVCRTD:MSVCR90D.dll
 0002:000266f2       __decode_pointer           6083b6f2 f   MSVCRTD:MSVCR90D.dll
 0002:00026700       __except_handler4          6083b700 f   MSVCRTD:chandler4gs.obj
 0002:00026740       __get_sse2_info            6083b740 f   MSVCRTD:cpu_disp.obj
 0002:000268b0       ___sse2_available_init     6083b8b0 f   MSVCRTD:cpu_disp.obj
 0002:000268d0       ___clean_type_info_names   6083b8d0 f   MSVCRTD:tncleanup.obj
 0002:000268f0       __RTC_Initialize           6083b8f0 f   MSVCRTD:_initsect_.obj
 0002:00026920       __RTC_Terminate            6083b920 f   MSVCRTD:_initsect_.obj
 0002:00026950       __malloc_dbg               6083b950 f   MSVCRTD:MSVCR90D.dll
 0002:00026956       __free_dbg                 6083b956 f   MSVCRTD:MSVCR90D.dll
 0002:0002695c       __encoded_null             6083b95c f   MSVCRTD:MSVCR90D.dll
 0002:00026962       __CrtSetCheckCount         6083b962 f   MSVCRTD:MSVCR90D.dll
 0002:00026970       __ValidateImageBase        6083b970 f   MSVCRTD:pesect.obj
 0002:000269f0       __FindPESection            6083b9f0 f   MSVCRTD:pesect.obj
 0002:00026a90       __IsNonwritableInCurrentImage 6083ba90 f   MSVCRTD:pesect.obj
 0002:00026be6       __initterm                 6083bbe6 f   MSVCRTD:MSVCR90D.dll
 0002:00026bec       __initterm_e               6083bbec f   MSVCRTD:MSVCR90D.dll
 0002:00026bf2       __amsg_exit                6083bbf2 f   MSVCRTD:MSVCR90D.dll
 0002:00026c00       ___security_init_cookie    6083bc00 f   MSVCRTD:gs_support.obj
 0002:00026d12       ___CppXcptFilter           6083bd12 f   MSVCRTD:MSVCR90D.dll
 0002:00026d20       _DllMain@12                6083bd20 f   MSVCRTD:dllmain.obj
 0002:00026d50       ?_RTC_GetSrcLine@@YAHPAEPA_WKPAH1K@Z 6083bd50 f   MSVCRTD:_pdblkup_.obj
 0002:0002730c       __crt_debugger_hook        6083c30c f   MSVCRTD:MSVCR90D.dll
 0002:00027312       ?terminate@@YAXXZ          6083c312 f   MSVCRTD:MSVCR90D.dll
 0002:00027318       ??1type_info@@UAE@XZ       6083c318 f   MSVCRTD:MSVCR90D.dll
 0002:00027318       ?_type_info_dtor_internal_method@type_info@@QAEXXZ 6083c318 f   MSVCRTD:MSVCR90D.dll
 0002:0002731e       __except_handler4_common   6083c31e f   MSVCRTD:MSVCR90D.dll
 0002:00027324       ___clean_type_info_names_internal 6083c324 f   MSVCRTD:MSVCR90D.dll
 0002:0002732a       _InterlockedExchange@8     6083c32a f   kernel32:KERNEL32.dll
 0002:00027330       _Sleep@4                   6083c330 f   kernel32:KERNEL32.dll
 0002:00027336       _InterlockedCompareExchange@12 6083c336 f   kernel32:KERNEL32.dll
 0002:0002733c       _IsDebuggerPresent@0       6083c33c f   kernel32:KERNEL32.dll
 0002:00027342       _RaiseException@16         6083c342 f   kernel32:KERNEL32.dll
 0002:00027348       _DebugBreak@0              6083c348 f   kernel32:KERNEL32.dll
 0002:0002734e       _WideCharToMultiByte@32    6083c34e f   kernel32:KERNEL32.dll
 0002:00027354       _MultiByteToWideChar@24    6083c354 f   kernel32:KERNEL32.dll
 0002:0002735a       _lstrlenA@4                6083c35a f   kernel32:KERNEL32.dll
 0002:00027360       _GetProcAddress@8          6083c360 f   kernel32:KERNEL32.dll
 0002:00027366       _LoadLibraryA@4            6083c366 f   kernel32:KERNEL32.dll
 0002:0002736c       _TerminateProcess@8        6083c36c f   kernel32:KERNEL32.dll
 0002:00027372       _GetCurrentProcess@0       6083c372 f   kernel32:KERNEL32.dll
 0002:00027378       _UnhandledExceptionFilter@4 6083c378 f   kernel32:KERNEL32.dll
 0002:0002737e       _SetUnhandledExceptionFilter@4 6083c37e f   kernel32:KERNEL32.dll
 0002:00027384       _QueryPerformanceCounter@4 6083c384 f   kernel32:KERNEL32.dll
 0002:0002738a       _GetTickCount@0            6083c38a f   kernel32:KERNEL32.dll
 0002:00027390       _GetCurrentThreadId@0      6083c390 f   kernel32:KERNEL32.dll
 0002:00027396       _GetCurrentProcessId@0     6083c396 f   kernel32:KERNEL32.dll
 0002:0002739c       _GetSystemTimeAsFileTime@4 6083c39c f   kernel32:KERNEL32.dll
 0002:000273a2       _DisableThreadLibraryCalls@4 6083c3a2 f   kernel32:KERNEL32.dll
 0002:000273a8       _HeapFree@12               6083c3a8 f   kernel32:KERNEL32.dll
 0002:000273ae       _HeapAlloc@12              6083c3ae f   kernel32:KERNEL32.dll
 0002:000273b4       _GetProcessHeap@0          6083c3b4 f   kernel32:KERNEL32.dll
 0002:000273ba       _GetModuleFileNameW@12     6083c3ba f   kernel32:KERNEL32.dll
 0002:000273c0       _VirtualQuery@12           6083c3c0 f   kernel32:KERNEL32.dll
 0002:000273c6       _FreeLibrary@4             6083c3c6 f   kernel32:KERNEL32.dll
 0003:00000000       ___xc_a                    60843000     MSVCRTD:cinitexe.obj
 0003:00000208       ___xc_z                    60843208     MSVCRTD:cinitexe.obj
 0003:0000030c       ___xi_a                    6084330c     MSVCRTD:cinitexe.obj
 0003:00000618       ___xi_z                    60843618     MSVCRTD:cinitexe.obj
 0003:0000073c       ??_C@_0P@GHFPNOJB@bad?5allocation?$AA@ 6084373c     MD2Model.obj
 0003:00000750       ?collate@?$_Locbase@H@std@@2HB 60843750     MD2Model.obj
 0003:00000754       ?ctype@?$_Locbase@H@std@@2HB 60843754     MD2Model.obj
 0003:00000758       ?monetary@?$_Locbase@H@std@@2HB 60843758     MD2Model.obj
 0003:0000075c       ?numeric@?$_Locbase@H@std@@2HB 6084375c     MD2Model.obj
 0003:00000760       ?time@?$_Locbase@H@std@@2HB 60843760     MD2Model.obj
 0003:00000764       ?messages@?$_Locbase@H@std@@2HB 60843764     MD2Model.obj
 0003:00000768       ?all@?$_Locbase@H@std@@2HB 60843768     MD2Model.obj
 0003:0000076c       ?none@?$_Locbase@H@std@@2HB 6084376c     MD2Model.obj
 0003:00000770       ?skipws@?$_Iosb@H@std@@2W4_Fmtflags@12@B 60843770     MD2Model.obj
 0003:00000774       ?unitbuf@?$_Iosb@H@std@@2W4_Fmtflags@12@B 60843774     MD2Model.obj
 0003:00000778       ?uppercase@?$_Iosb@H@std@@2W4_Fmtflags@12@B 60843778     MD2Model.obj
 0003:0000077c       ?showbase@?$_Iosb@H@std@@2W4_Fmtflags@12@B 6084377c     MD2Model.obj
 0003:00000780       ?showpoint@?$_Iosb@H@std@@2W4_Fmtflags@12@B 60843780     MD2Model.obj
 0003:00000784       ?showpos@?$_Iosb@H@std@@2W4_Fmtflags@12@B 60843784     MD2Model.obj
 0003:00000788       ?left@?$_Iosb@H@std@@2W4_Fmtflags@12@B 60843788     MD2Model.obj
 0003:0000078c       ?right@?$_Iosb@H@std@@2W4_Fmtflags@12@B 6084378c     MD2Model.obj
 0003:00000790       ?internal@?$_Iosb@H@std@@2W4_Fmtflags@12@B 60843790     MD2Model.obj
 0003:00000794       ?dec@?$_Iosb@H@std@@2W4_Fmtflags@12@B 60843794     MD2Model.obj
 0003:00000798       ?oct@?$_Iosb@H@std@@2W4_Fmtflags@12@B 60843798     MD2Model.obj
 0003:0000079c       ?hex@?$_Iosb@H@std@@2W4_Fmtflags@12@B 6084379c     MD2Model.obj
 0003:000007a0       ?scientific@?$_Iosb@H@std@@2W4_Fmtflags@12@B 608437a0     MD2Model.obj
 0003:000007a4       ?fixed@?$_Iosb@H@std@@2W4_Fmtflags@12@B 608437a4     MD2Model.obj
 0003:000007a8       ?hexfloat@?$_Iosb@H@std@@2W4_Fmtflags@12@B 608437a8     MD2Model.obj
 0003:000007ac       ?boolalpha@?$_Iosb@H@std@@2W4_Fmtflags@12@B 608437ac     MD2Model.obj
 0003:000007b0       ?_Stdio@?$_Iosb@H@std@@2W4_Fmtflags@12@B 608437b0     MD2Model.obj
 0003:000007b4       ?adjustfield@?$_Iosb@H@std@@2W4_Fmtflags@12@B 608437b4     MD2Model.obj
 0003:000007b8       ?basefield@?$_Iosb@H@std@@2W4_Fmtflags@12@B 608437b8     MD2Model.obj
 0003:000007bc       ?floatfield@?$_Iosb@H@std@@2W4_Fmtflags@12@B 608437bc     MD2Model.obj
 0003:000007c0       ?goodbit@?$_Iosb@H@std@@2W4_Iostate@12@B 608437c0     MD2Model.obj
 0003:000007c4       ?eofbit@?$_Iosb@H@std@@2W4_Iostate@12@B 608437c4     MD2Model.obj
 0003:000007c8       ?failbit@?$_Iosb@H@std@@2W4_Iostate@12@B 608437c8     MD2Model.obj
 0003:000007cc       ?badbit@?$_Iosb@H@std@@2W4_Iostate@12@B 608437cc     MD2Model.obj
 0003:000007d0       ?_Hardfail@?$_Iosb@H@std@@2W4_Iostate@12@B 608437d0     MD2Model.obj
 0003:000007d4       ?in@?$_Iosb@H@std@@2W4_Openmode@12@B 608437d4     MD2Model.obj
 0003:000007d8       ?out@?$_Iosb@H@std@@2W4_Openmode@12@B 608437d8     MD2Model.obj
 0003:000007dc       ?ate@?$_Iosb@H@std@@2W4_Openmode@12@B 608437dc     MD2Model.obj
 0003:000007e0       ?app@?$_Iosb@H@std@@2W4_Openmode@12@B 608437e0     MD2Model.obj
 0003:000007e4       ?trunc@?$_Iosb@H@std@@2W4_Openmode@12@B 608437e4     MD2Model.obj
 0003:000007e8       ?_Nocreate@?$_Iosb@H@std@@2W4_Openmode@12@B 608437e8     MD2Model.obj
 0003:000007ec       ?_Noreplace@?$_Iosb@H@std@@2W4_Openmode@12@B 608437ec     MD2Model.obj
 0003:000007f0       ?binary@?$_Iosb@H@std@@2W4_Openmode@12@B 608437f0     MD2Model.obj
 0003:000007f4       ?beg@?$_Iosb@H@std@@2W4_Seekdir@12@B 608437f4     MD2Model.obj
 0003:000007f8       ?cur@?$_Iosb@H@std@@2W4_Seekdir@12@B 608437f8     MD2Model.obj
 0003:000007fc       ?end@?$_Iosb@H@std@@2W4_Seekdir@12@B 608437fc     MD2Model.obj
 0003:00000800       ?m_iMessageSize@NMS_TextureManager@@0IB 60843800     MD2Model.obj
 0003:00000804       ?szErrorMessageSize@NMS_AssetManager@@0IB 60843804     MD2Model.obj
 0003:00000808       ??_C@_02JDPG@rb?$AA@       60843808     MD2Model.obj
 0003:0000080c       __real@3f800000            6084380c     MD2Model.obj
 0003:00000810       __real@43340000            60843810     MD2Model.obj
 0003:00000814       __real@c2b40000            60843814     MD2Model.obj
 0003:00000818       __real@00000000            60843818     MD2Model.obj
 0003:00000820       __real@0000000000000000    60843820     MD2Model.obj
 0003:00000830       __real@3ff0000000000000    60843830     MD2Model.obj
 0003:0000083c       ??_C@_1DC@POOIKBAO@?$AAI?$AAT?$AAE?$AAR?$AAA?$AAT?$AAO?$AAR?$AA?5?$AAL?$AAI?$AAS?$AAT?$AA?5?$AAC?$AAO?$AAR?$AAR?$AAU?$AAP?$AAT?$AAE?$AAD?$AA?$CB?$AA?$AA@ 6084383c     MD2Model.obj
 0003:00000878       ??_C@_1IO@PFHNEOGE@?$AAc?$AA?3?$AA?2?$AAp?$AAr?$AAo?$AAg?$AAr?$AAa?$AAm?$AA?5?$AAf?$AAi?$AAl?$AAe?$AAs?$AA?5?$AA?$CI?$AAx?$AA8?$AA6?$AA?$CJ?$AA?2?$AAm?$AAi?$AAc?$AAr?$AAo?$AAs?$AAo?$AAf?$AAt@ 60843878     MD2Model.obj
 0003:00000928       ??_C@_1EK@PPDBPCAN@?$AAm?$AAa?$AAp?$AA?1?$AAs?$AAe?$AAt?$AA?5?$AAe?$AAr?$AAa?$AAs?$AAe?$AA?5?$AAi?$AAt?$AAe?$AAr?$AAa?$AAt?$AAo?$AAr?$AA?5?$AAo?$AAu?$AAt?$AAs?$AAi?$AAd?$AAe?$AA?5?$AAr@ 60843928     MD2Model.obj
 0003:00000980       ??_C@_1II@BMPPGBOL@?$AAc?$AA?3?$AA?2?$AAp?$AAr?$AAo?$AAg?$AAr?$AAa?$AAm?$AA?5?$AAf?$AAi?$AAl?$AAe?$AAs?$AA?5?$AA?$CI?$AAx?$AA8?$AA6?$AA?$CJ?$AA?2?$AAm?$AAi?$AAc?$AAr?$AAo?$AAs?$AAo?$AAf?$AAt@ 60843980     MD2Model.obj
 0003:00000a24       ??_C@_1CG@JNLFBNGN@?$AA?$CC?$AAi?$AAn?$AAv?$AAa?$AAl?$AAi?$AAd?$AA?5?$AAa?$AAr?$AAg?$AAu?$AAm?$AAe?$AAn?$AAt?$AA?$CC?$AA?$AA@ 60843a24     MD2Model.obj
 0003:00000a58       ??_C@_1BHO@CICFLHJF@?$AAs?$AAt?$AAd?$AA?3?$AA?3?$AA_?$AAT?$AAr?$AAe?$AAe?$AA?$DM?$AAc?$AAl?$AAa?$AAs?$AAs?$AA?5?$AAs?$AAt?$AAd?$AA?3?$AA?3?$AA_?$AAT?$AAm?$AAa?$AAp?$AA_?$AAt?$AAr?$AAa?$AAi@ 60843a58     MD2Model.obj
 0003:00000c28       ??_C@_1FO@OCPOOAIA@?$AA?$CI?$AA?$CC?$AAS?$AAt?$AAa?$AAn?$AAd?$AAa?$AAr?$AAd?$AA?5?$AAC?$AA?$CL?$AA?$CL?$AA?5?$AAL?$AAi?$AAb?$AAr?$AAa?$AAr?$AAi?$AAe?$AAs?$AA?5?$AAI?$AAn?$AAv?$AAa?$AAl?$AAi?$AAd@ 60843c28     MD2Model.obj
 0003:00000c98       ??_C@_1DO@CFEEPGGJ@?$AAm?$AAa?$AAp?$AA?1?$AAs?$AAe?$AAt?$AA?5?$AAi?$AAt?$AAe?$AAr?$AAa?$AAt?$AAo?$AAr?$AAs?$AA?5?$AAi?$AAn?$AAc?$AAo?$AAm?$AAp?$AAa?$AAt?$AAi?$AAb?$AAl?$AAe?$AA?$AA@ 60843c98     MD2Model.obj
 0003:00000ce4       ??_C@_1BO@MEPPHOO@?$AA?$CC?$AAo?$AAu?$AAt?$AA?5?$AAo?$AAf?$AA?5?$AAr?$AAa?$AAn?$AAg?$AAe?$AA?$CC?$AA?$AA@ 60843ce4     MD2Model.obj
 0003:00000d08       ??_C@_1BHA@PMJLMDKM@?$AAs?$AAt?$AAd?$AA?3?$AA?3?$AA_?$AAT?$AAr?$AAe?$AAe?$AA?$DM?$AAc?$AAl?$AAa?$AAs?$AAs?$AA?5?$AAs?$AAt?$AAd?$AA?3?$AA?3?$AA_?$AAT?$AAm?$AAa?$AAp?$AA_?$AAt?$AAr?$AAa?$AAi@ 60843d08     MD2Model.obj
 0003:00000ec8       ??_C@_1FG@CMLDHNON@?$AA?$CI?$AA?$CC?$AAS?$AAt?$AAa?$AAn?$AAd?$AAa?$AAr?$AAd?$AA?5?$AAC?$AA?$CL?$AA?$CL?$AA?5?$AAL?$AAi?$AAb?$AAr?$AAa?$AAr?$AAi?$AAe?$AAs?$AA?5?$AAO?$AAu?$AAt?$AA?5?$AAo?$AAf?$AA?5@ 60843ec8     MD2Model.obj
 0003:00000f30       ??_C@_1EG@EHJFMBHJ@?$AAm?$AAa?$AAp?$AA?1?$AAs?$AAe?$AAt?$AA?5?$AAi?$AAt?$AAe?$AAr?$AAa?$AAt?$AAo?$AAr?$AA?5?$AAn?$AAo?$AAt?$AA?5?$AAi?$AAn?$AAc?$AAr?$AAe?$AAm?$AAe?$AAn?$AAt?$AAa?$AAb@ 60843f30     MD2Model.obj
 0003:00000f88       ??_7bad_alloc@std@@6B@     60843f88     MD2Model.obj
 0003:00000f94       ??_C@_0L@CDCPJNNN@Direction?3?$AA@ 60843f94     NMS_3DObject.obj
 0003:00000fa4       ??_C@_09BKHOEFBM@Position?3?$AA@ 60843fa4     NMS_3DObject.obj
 0003:00000fb0       ??_C@_0BL@KMPDDKFB@Asset?5Manager?5Initialized?$CB?$AA@ 60843fb0     NMS_AssetManager.obj
 0003:00000fd4       ??_7NMSCameraController@@6B@ 60843fd4     NMS_Camera.obj
 0003:00000fe4       ??_7NMSCameraFPS@@6B@      60843fe4     NMS_Camera.obj
 0003:00000ff0       __real@c056800000000000    60843ff0     NMS_Camera.obj
 0003:00000ffc       __real@42b40000            60843ffc     NMS_Camera.obj
 0003:00001000       __real@4056800000000000    60844000     NMS_Camera.obj
 0003:00001010       __real@c076800000000000    60844010     NMS_Camera.obj
 0003:00001020       __real@4076800000000000    60844020     NMS_Camera.obj
 0003:00001029       ?is_integral@?$integer_traits_base@_N$0A@$00@detail@boost@@2_NB 60844029     NMS_Engine.obj
 0003:0000102a       ?const_min@?$integer_traits_base@_N$0A@$00@detail@boost@@2_NB 6084402a     NMS_Engine.obj
 0003:0000102b       ?const_max@?$integer_traits_base@_N$0A@$00@detail@boost@@2_NB 6084402b     NMS_Engine.obj
 0003:0000102c       ?is_integral@?$integer_traits_base@D$0?IA@$0HP@@detail@boost@@2_NB 6084402c     NMS_Engine.obj
 0003:0000102d       ?const_min@?$integer_traits_base@D$0?IA@$0HP@@detail@boost@@2DB 6084402d     NMS_Engine.obj
 0003:0000102e       ?const_max@?$integer_traits_base@D$0?IA@$0HP@@detail@boost@@2DB 6084402e     NMS_Engine.obj
 0003:0000102f       ?is_integral@?$integer_traits_base@C$0?IA@$0HP@@detail@boost@@2_NB 6084402f     NMS_Engine.obj
 0003:00001030       ?const_min@?$integer_traits_base@C$0?IA@$0HP@@detail@boost@@2CB 60844030     NMS_Engine.obj
 0003:00001031       ?const_max@?$integer_traits_base@C$0?IA@$0HP@@detail@boost@@2CB 60844031     NMS_Engine.obj
 0003:00001032       ?is_integral@?$integer_traits_base@E$0A@$0PP@@detail@boost@@2_NB 60844032     NMS_Engine.obj
 0003:00001033       ?const_min@?$integer_traits_base@E$0A@$0PP@@detail@boost@@2EB 60844033     NMS_Engine.obj
 0003:00001034       ?const_max@?$integer_traits_base@E$0A@$0PP@@detail@boost@@2EB 60844034     NMS_Engine.obj
 0003:00001035       ?is_integral@?$integer_traits_base@_W$0A@$0PPPP@@detail@boost@@2_NB 60844035     NMS_Engine.obj
 0003:00001038       ?const_min@?$integer_traits_base@_W$0A@$0PPPP@@detail@boost@@2_WB 60844038     NMS_Engine.obj
 0003:0000103c       ?const_max@?$integer_traits_base@_W$0A@$0PPPP@@detail@boost@@2_WB 6084403c     NMS_Engine.obj
 0003:0000103e       ?is_integral@?$integer_traits_base@F$0?IAAA@$0HPPP@@detail@boost@@2_NB 6084403e     NMS_Engine.obj
 0003:00001040       ?const_min@?$integer_traits_base@F$0?IAAA@$0HPPP@@detail@boost@@2FB 60844040     NMS_Engine.obj
 0003:00001044       ?const_max@?$integer_traits_base@F$0?IAAA@$0HPPP@@detail@boost@@2FB 60844044     NMS_Engine.obj
 0003:00001046       ?is_integral@?$integer_traits_base@G$0A@$0PPPP@@detail@boost@@2_NB 60844046     NMS_Engine.obj
 0003:00001048       ?const_min@?$integer_traits_base@G$0A@$0PPPP@@detail@boost@@2GB 60844048     NMS_Engine.obj
 0003:0000104c       ?const_max@?$integer_traits_base@G$0A@$0PPPP@@detail@boost@@2GB 6084404c     NMS_Engine.obj
 0003:0000104e       ?is_integral@?$integer_traits_base@H$0?IAAAAAAA@$0HPPPPPPP@@detail@boost@@2_NB 6084404e     NMS_Engine.obj
 0003:00001050       ?const_min@?$integer_traits_base@H$0?IAAAAAAA@$0HPPPPPPP@@detail@boost@@2HB 60844050     NMS_Engine.obj
 0003:00001054       ?const_max@?$integer_traits_base@H$0?IAAAAAAA@$0HPPPPPPP@@detail@boost@@2HB 60844054     NMS_Engine.obj
 0003:00001058       ?is_integral@?$integer_traits_base@I$0A@$0PPPPPPPP@@detail@boost@@2_NB 60844058     NMS_Engine.obj
 0003:0000105c       ?const_min@?$integer_traits_base@I$0A@$0PPPPPPPP@@detail@boost@@2IB 6084405c     NMS_Engine.obj
 0003:00001060       ?const_max@?$integer_traits_base@I$0A@$0PPPPPPPP@@detail@boost@@2IB 60844060     NMS_Engine.obj
 0003:00001064       ?is_integral@?$integer_traits_base@J$0?IAAAAAAA@$0HPPPPPPP@@detail@boost@@2_NB 60844064     NMS_Engine.obj
 0003:00001068       ?const_min@?$integer_traits_base@J$0?IAAAAAAA@$0HPPPPPPP@@detail@boost@@2JB 60844068     NMS_Engine.obj
 0003:0000106c       ?const_max@?$integer_traits_base@J$0?IAAAAAAA@$0HPPPPPPP@@detail@boost@@2JB 6084406c     NMS_Engine.obj
 0003:00001070       ?is_integral@?$integer_traits_base@K$0A@$0PPPPPPPP@@detail@boost@@2_NB 60844070     NMS_Engine.obj
 0003:00001074       ?const_min@?$integer_traits_base@K$0A@$0PPPPPPPP@@detail@boost@@2KB 60844074     NMS_Engine.obj
 0003:00001078       ?const_max@?$integer_traits_base@K$0A@$0PPPPPPPP@@detail@boost@@2KB 60844078     NMS_Engine.obj
 0003:0000107c       ?is_integral@?$integer_traits_base@_J$0?IAAAAAAAAAAAAAAA@$0HPPPPPPPPPPPPPPP@@detail@boost@@2_NB 6084407c     NMS_Engine.obj
 0003:00001080       ?const_min@?$integer_traits_base@_J$0?IAAAAAAAAAAAAAAA@$0HPPPPPPPPPPPPPPP@@detail@boost@@2_JB 60844080     NMS_Engine.obj
 0003:00001090       ?const_max@?$integer_traits_base@_J$0?IAAAAAAAAAAAAAAA@$0HPPPPPPPPPPPPPPP@@detail@boost@@2_JB 60844090     NMS_Engine.obj
 0003:00001099       ?is_integral@?$integer_traits_base@_K$0A@$0?0@detail@boost@@2_NB 60844099     NMS_Engine.obj
 0003:000010a0       ?const_min@?$integer_traits_base@_K$0A@$0?0@detail@boost@@2_KB 608440a0     NMS_Engine.obj
 0003:000010b0       ?const_max@?$integer_traits_base@_K$0A@$0?0@detail@boost@@2_KB 608440b0     NMS_Engine.obj
 0003:000010bc       ?value@integral_c_tag@mpl@boost@@2HB 608440bc     NMS_Engine.obj
 0003:000010c0       ?value@?$bool_@$00@mpl@boost@@2_NB 608440c0     NMS_Engine.obj
 0003:000010c1       ?value@?$bool_@$0A@@mpl@boost@@2_NB 608440c1     NMS_Engine.obj
 0003:000010c2       ?value@?$ice_or@$0A@$0A@$0A@$0A@$0A@$0A@$0A@@type_traits@boost@@2_NB 608440c2     NMS_Engine.obj
 0003:000010c3       ?value@?$ice_and@$00$00$00$00$00$00$00@type_traits@boost@@2_NB 608440c3     NMS_Engine.obj
 0003:000010c4       ?value@?$ice_not@$00@type_traits@boost@@2_NB 608440c4     NMS_Engine.obj
 0003:000010c5       ?value@?$is_member_function_pointer_impl@X@detail@boost@@2_NB 608440c5     NMS_Engine.obj
 0003:000010c6       ?value@?$is_member_function_pointer_impl@$$CBX@detail@boost@@2_NB 608440c6     NMS_Engine.obj
 0003:000010c7       ?value@?$is_member_function_pointer_impl@$$CCX@detail@boost@@2_NB 608440c7     NMS_Engine.obj
 0003:000010c8       ?value@?$is_member_function_pointer_impl@$$CDX@detail@boost@@2_NB 608440c8     NMS_Engine.obj
 0003:000010c9       ?value@?$is_scalar_impl@X@detail@boost@@2_NB 608440c9     NMS_Engine.obj
 0003:000010ca       ?value@?$is_scalar_impl@$$CBX@detail@boost@@2_NB 608440ca     NMS_Engine.obj
 0003:000010cb       ?value@?$is_scalar_impl@$$CCX@detail@boost@@2_NB 608440cb     NMS_Engine.obj
 0003:000010cc       ?value@?$is_scalar_impl@$$CDX@detail@boost@@2_NB 608440cc     NMS_Engine.obj
 0003:000010cd       ?value@?$is_pod_impl@X@detail@boost@@2_NB 608440cd     NMS_Engine.obj
 0003:000010ce       ?value@?$is_pod_impl@$$CBX@detail@boost@@2_NB 608440ce     NMS_Engine.obj
 0003:000010cf       ?value@?$is_pod_impl@$$CCX@detail@boost@@2_NB 608440cf     NMS_Engine.obj
 0003:000010d0       ?value@?$is_pod_impl@$$CDX@detail@boost@@2_NB 608440d0     NMS_Engine.obj
 0003:000010d4       ?value@?$integral_c@I$0A@@mpl@boost@@2IB 608440d4     NMS_Engine.obj
 0003:000010d8       ?args@?$function1@XH@boost@@2HB 608440d8     NMS_Engine.obj
 0003:000010dc       ?arity@?$function1@XH@boost@@2HB 608440dc     NMS_Engine.obj
 0003:000010e0       ?args@?$function1@XW4SDLKey@@@boost@@2HB 608440e0     NMS_Engine.obj
 0003:000010e4       ?arity@?$function1@XW4SDLKey@@@boost@@2HB 608440e4     NMS_Engine.obj
 0003:000010e8       ?value@?$ice_not@$0A@@type_traits@boost@@2_NB 608440e8     NMS_Engine.obj
 0003:000010e9       ?is_const@?$cv_traits_imp@PAP6AXH@Z@detail@boost@@2_NB 608440e9     NMS_Engine.obj
 0003:000010ea       ?is_volatile@?$cv_traits_imp@PAP6AXH@Z@detail@boost@@2_NB 608440ea     NMS_Engine.obj
 0003:000010eb       ?value@?$is_pointer_helper@P6AXH@Z@detail@boost@@2_NB 608440eb     NMS_Engine.obj
 0003:000010ec       ?value@?$is_reference_impl@P6AXH@Z@detail@boost@@2_NB 608440ec     NMS_Engine.obj
 0003:000010ed       ?value@?$result_@P6AXH@Z@?$is_mem_fun_pointer_select@$0A@@detail@boost@@2_NB 608440ed     NMS_Engine.obj
 0003:000010ee       ?value@?$is_pointer_impl@P6AXH@Z@detail@boost@@2_NB 608440ee     NMS_Engine.obj
 0003:000010ef       ?value@?$is_arithmetic_impl@P6AXH@Z@detail@boost@@2_NB 608440ef     NMS_Engine.obj
 0003:000010f0       ?value@?$ice_or@$0A@$0A@$00$0A@$0A@$0A@$0A@@type_traits@boost@@2_NB 608440f0     NMS_Engine.obj
 0003:000010f1       ?value@?$is_scalar_impl@P6AXH@Z@detail@boost@@2_NB 608440f1     NMS_Engine.obj
 0003:000010f2       ?value@?$ice_or@$00$0A@$0A@$0A@$0A@$0A@$0A@@type_traits@boost@@2_NB 608440f2     NMS_Engine.obj
 0003:000010f3       ?value@?$is_pod_impl@P6AXH@Z@detail@boost@@2_NB 608440f3     NMS_Engine.obj
 0003:000010f4       ?value@?$is_volatile_rval_filter@P6AXH@Z@detail@boost@@2_NB 608440f4     NMS_Engine.obj
 0003:000010f5       ?value@?$has_trivial_copy_impl@P6AXH@Z@detail@boost@@2_NB 608440f5     NMS_Engine.obj
 0003:000010f6       ?value@?$has_trivial_dtor_impl@P6AXH@Z@detail@boost@@2_NB 608440f6     NMS_Engine.obj
 0003:000010f8       ?value@?$alignment_logic@$07$07@detail@boost@@2IB 608440f8     NMS_Engine.obj
 0003:000010fc       ?value@?$alignment_of_impl@Tfunction_buffer@function@detail@boost@@@detail@boost@@2IB 608440fc     NMS_Engine.obj
 0003:00001100       ?value@?$integral_c@I$07@mpl@boost@@2IB 60844100     NMS_Engine.obj
 0003:00001104       ?value@?$alignment_logic@$03$03@detail@boost@@2IB 60844104     NMS_Engine.obj
 0003:00001108       ?value@?$alignment_of_impl@P6AXH@Z@detail@boost@@2IB 60844108     NMS_Engine.obj
 0003:0000110c       ?value@?$integral_c@I$03@mpl@boost@@2IB 6084410c     NMS_Engine.obj
 0003:00001110       ?value@?$function_allows_small_object_optimization@P6AXH@Z@function@detail@boost@@2_NB 60844110     NMS_Engine.obj
 0003:00001111       ?is_const@?$cv_traits_imp@PAP6AXW4SDLKey@@@Z@detail@boost@@2_NB 60844111     NMS_Engine.obj
 0003:00001112       ?is_volatile@?$cv_traits_imp@PAP6AXW4SDLKey@@@Z@detail@boost@@2_NB 60844112     NMS_Engine.obj
 0003:00001113       ?value@?$is_pointer_helper@P6AXW4SDLKey@@@Z@detail@boost@@2_NB 60844113     NMS_Engine.obj
 0003:00001114       ?value@?$is_reference_impl@P6AXW4SDLKey@@@Z@detail@boost@@2_NB 60844114     NMS_Engine.obj
 0003:00001115       ?value@?$result_@P6AXW4SDLKey@@@Z@?$is_mem_fun_pointer_select@$0A@@detail@boost@@2_NB 60844115     NMS_Engine.obj
 0003:00001116       ?value@?$is_pointer_impl@P6AXW4SDLKey@@@Z@detail@boost@@2_NB 60844116     NMS_Engine.obj
 0003:00001117       ?value@?$is_arithmetic_impl@P6AXW4SDLKey@@@Z@detail@boost@@2_NB 60844117     NMS_Engine.obj
 0003:00001118       ?value@?$is_scalar_impl@P6AXW4SDLKey@@@Z@detail@boost@@2_NB 60844118     NMS_Engine.obj
 0003:00001119       ?value@?$is_pod_impl@P6AXW4SDLKey@@@Z@detail@boost@@2_NB 60844119     NMS_Engine.obj
 0003:0000111a       ?value@?$is_volatile_rval_filter@P6AXW4SDLKey@@@Z@detail@boost@@2_NB 6084411a     NMS_Engine.obj
 0003:0000111b       ?value@?$has_trivial_copy_impl@P6AXW4SDLKey@@@Z@detail@boost@@2_NB 6084411b     NMS_Engine.obj
 0003:0000111c       ?value@?$has_trivial_dtor_impl@P6AXW4SDLKey@@@Z@detail@boost@@2_NB 6084411c     NMS_Engine.obj
 0003:00001120       ?value@?$alignment_of_impl@P6AXW4SDLKey@@@Z@detail@boost@@2IB 60844120     NMS_Engine.obj
 0003:00001124       ?value@?$function_allows_small_object_optimization@P6AXW4SDLKey@@@Z@function@detail@boost@@2_NB 60844124     NMS_Engine.obj
 0003:0000112c       ??_7Thread@@6B@            6084412c     NMS_Engine.obj
 0003:00001138       ??_7SceneGraphVisitor@@6B@ 60844138     NMS_Engine.obj
 0003:00001148       ??_7SceneGraphNode@@6B@    60844148     NMS_Engine.obj
 0003:00001158       ??_7TransformationNode@@6B@ 60844158     NMS_Engine.obj
 0003:00001168       ??_7GeometryNode@@6B@      60844168     NMS_Engine.obj
 0003:00001178       ??_7NMS_SceneRenderer@@6BThread@@@ 60844178     NMS_Engine.obj
 0003:00001184       ??_7NMS_SceneRenderer@@6BSceneGraphVisitor@@@ 60844184     NMS_Engine.obj
 0003:00001190       ??_C@_1EI@HGIDLLCM@?$AAv?$AAe?$AAc?$AAt?$AAo?$AAr?$AA?5?$AAe?$AAr?$AAa?$AAs?$AAe?$AA?5?$AAi?$AAt?$AAe?$AAr?$AAa?$AAt?$AAo?$AAr?$AA?5?$AAo?$AAu?$AAt?$AAs?$AAi?$AAd?$AAe?$AA?5?$AAr?$AAa@ 60844190     NMS_Engine.obj
 0003:000011e8       ??_C@_1IK@MDMJADBH@?$AAc?$AA?3?$AA?2?$AAp?$AAr?$AAo?$AAg?$AAr?$AAa?$AAm?$AA?5?$AAf?$AAi?$AAl?$AAe?$AAs?$AA?5?$AA?$CI?$AAx?$AA8?$AA6?$AA?$CJ?$AA?2?$AAm?$AAi?$AAc?$AAr?$AAo?$AAs?$AAo?$AAf?$AAt@ 608441e8     NMS_Engine.obj
 0003:00001290       ??_C@_0BD@OLBABOEK@vector?$DMT?$DO?5too?5long?$AA@ 60844290     NMS_Engine.obj
 0003:000012ac       ??_7length_error@std@@6B@  608442ac     NMS_Engine.obj
 0003:000012bc       ??_7logic_error@std@@6B@   608442bc     NMS_Engine.obj
 0003:000012c8       ??_C@_1PE@PNPNNFC@?$AAs?$AAt?$AAd?$AA?3?$AA?3?$AA_?$AAV?$AAe?$AAc?$AAt?$AAo?$AAr?$AA_?$AAc?$AAo?$AAn?$AAs?$AAt?$AA_?$AAi?$AAt?$AAe?$AAr?$AAa?$AAt?$AAo?$AAr?$AA?$DM?$AAc?$AAl?$AAa?$AAs@ 608442c8     NMS_Engine.obj
 0003:000013f0       ??_C@_1NK@JLHOCNGO@?$AA?$CI?$AA?$CC?$AA_?$AAP?$AAv?$AAe?$AAc?$AAt?$AAo?$AAr?$AA?5?$AA?$DN?$AA?$DN?$AA?5?$AAN?$AAU?$AAL?$AAL?$AA?5?$AA?$HM?$AA?$HM?$AA?5?$AA?$CI?$AA?$CI?$AA?$CI?$AA_?$AAM?$AAy?$AAv?$AAe?$AAc?$AA?5@ 608443f0     NMS_Engine.obj
 0003:000014f8       ??_C@_1NG@IJJIKHMB@?$AAs?$AAt?$AAd?$AA?3?$AA?3?$AA_?$AAV?$AAe?$AAc?$AAt?$AAo?$AAr?$AA_?$AAc?$AAo?$AAn?$AAs?$AAt?$AA_?$AAi?$AAt?$AAe?$AAr?$AAa?$AAt?$AAo?$AAr?$AA?$DM?$AAc?$AAl?$AAa?$AAs@ 608444f8     NMS_Engine.obj
 0003:000015f8       ??_C@_1DM@HINDPMBP@?$AAv?$AAe?$AAc?$AAt?$AAo?$AAr?$AA?5?$AAi?$AAt?$AAe?$AAr?$AAa?$AAt?$AAo?$AAr?$AAs?$AA?5?$AAi?$AAn?$AAc?$AAo?$AAm?$AAp?$AAa?$AAt?$AAi?$AAb?$AAl?$AAe?$AA?$AA@ 608445f8     NMS_Engine.obj
 0003:00001640       ??_C@_1IG@PLPOLFFI@?$AAc?$AA?3?$AA?2?$AAp?$AAr?$AAo?$AAg?$AAr?$AAa?$AAm?$AA?5?$AAf?$AAi?$AAl?$AAe?$AAs?$AA?5?$AA?$CI?$AAx?$AA8?$AA6?$AA?$CJ?$AA?2?$AAm?$AAi?$AAc?$AAr?$AAo?$AAs?$AAo?$AAf?$AAt@ 60844640     NMS_Engine.obj
 0003:000016e0       ??_C@_1EG@BPNHNPIG@?$AAl?$AAi?$AAs?$AAt?$AA?5?$AAi?$AAn?$AAs?$AAe?$AAr?$AAt?$AA?5?$AAi?$AAt?$AAe?$AAr?$AAa?$AAt?$AAo?$AAr?$AA?5?$AAo?$AAu?$AAt?$AAs?$AAi?$AAd?$AAe?$AA?5?$AAr?$AAa?$AAn@ 608446e0     NMS_Engine.obj
 0003:00001738       ??_C@_1EE@BBMFLDOC@?$AAl?$AAi?$AAs?$AAt?$AA?5?$AAe?$AAr?$AAa?$AAs?$AAe?$AA?5?$AAi?$AAt?$AAe?$AAr?$AAa?$AAt?$AAo?$AAr?$AA?5?$AAo?$AAu?$AAt?$AAs?$AAi?$AAd?$AAe?$AA?5?$AAr?$AAa?$AAn?$AAg@ 60844738     NMS_Engine.obj
 0003:00001790       ??_C@_1ME@POMLPPMP@?$AAs?$AAt?$AAd?$AA?3?$AA?3?$AAl?$AAi?$AAs?$AAt?$AA?$DM?$AAu?$AAn?$AAi?$AAo?$AAn?$AA?5?$AAS?$AAD?$AAL?$AA_?$AAE?$AAv?$AAe?$AAn?$AAt?$AA?0?$AAc?$AAl?$AAa?$AAs?$AAs?$AA?5@ 60844790     NMS_Engine.obj
 0003:00001880       ??_C@_1EC@HILJLMMC@?$AAl?$AAi?$AAs?$AAt?$AA?5?$AAi?$AAt?$AAe?$AAr?$AAa?$AAt?$AAo?$AAr?$AA?5?$AAn?$AAo?$AAt?$AA?5?$AAd?$AAe?$AAr?$AAe?$AAf?$AAe?$AAr?$AAe?$AAn?$AAc?$AAa?$AAb?$AAl?$AAe@ 60844880     NMS_Engine.obj
 0003:000018d0       ??_C@_1MG@NNAPCBFN@?$AAs?$AAt?$AAd?$AA?3?$AA?3?$AAl?$AAi?$AAs?$AAt?$AA?$DM?$AAu?$AAn?$AAi?$AAo?$AAn?$AA?5?$AAS?$AAD?$AAL?$AA_?$AAE?$AAv?$AAe?$AAn?$AAt?$AA?0?$AAc?$AAl?$AAa?$AAs?$AAs?$AA?5@ 608448d0     NMS_Engine.obj
 0003:000019c0       ??_C@_1EA@DOGAGKDH@?$AAl?$AAi?$AAs?$AAt?$AA?5?$AAi?$AAt?$AAe?$AAr?$AAa?$AAt?$AAo?$AAr?$AA?5?$AAn?$AAo?$AAt?$AA?5?$AAi?$AAn?$AAc?$AAr?$AAe?$AAm?$AAe?$AAn?$AAt?$AAa?$AAb?$AAl?$AAe?$AA?$AA@ 608449c0     NMS_Engine.obj
 0003:00001a10       ??_C@_1MG@CODNJNJM@?$AAs?$AAt?$AAd?$AA?3?$AA?3?$AAl?$AAi?$AAs?$AAt?$AA?$DM?$AAu?$AAn?$AAi?$AAo?$AAn?$AA?5?$AAS?$AAD?$AAL?$AA_?$AAE?$AAv?$AAe?$AAn?$AAt?$AA?0?$AAc?$AAl?$AAa?$AAs?$AAs?$AA?5@ 60844a10     NMS_Engine.obj
 0003:00001b00       ??_C@_1EA@JDNDELPC@?$AAl?$AAi?$AAs?$AAt?$AA?5?$AAi?$AAt?$AAe?$AAr?$AAa?$AAt?$AAo?$AAr?$AA?5?$AAn?$AAo?$AAt?$AA?5?$AAd?$AAe?$AAc?$AAr?$AAe?$AAm?$AAe?$AAn?$AAt?$AAa?$AAb?$AAl?$AAe?$AA?$AA@ 60844b00     NMS_Engine.obj
 0003:00001b4c       ??_C@_0BB@MOGOBHAF@list?$DMT?$DO?5too?5long?$AA@ 60844b4c     NMS_Engine.obj
 0003:00001b60       ??_C@_1LO@CACNFNCB@?$AAs?$AAt?$AAd?$AA?3?$AA?3?$AAl?$AAi?$AAs?$AAt?$AA?$DM?$AAu?$AAn?$AAi?$AAo?$AAn?$AA?5?$AAS?$AAD?$AAL?$AA_?$AAE?$AAv?$AAe?$AAn?$AAt?$AA?0?$AAc?$AAl?$AAa?$AAs?$AAs?$AA?5@ 60844b60     NMS_Engine.obj
 0003:00001c44       ??_C@_1DI@MDELDGPI@?$AAl?$AAi?$AAs?$AAt?$AA?5?$AAi?$AAt?$AAe?$AAr?$AAa?$AAt?$AAo?$AAr?$AAs?$AA?5?$AAi?$AAn?$AAc?$AAo?$AAm?$AAp?$AAa?$AAt?$AAi?$AAb?$AAl?$AAe?$AA?$AA@ 60844c44     NMS_Engine.obj
 0003:00001c88       ??_C@_1IK@LNBCIPBM@?$AAc?$AA?3?$AA?2?$AAp?$AAr?$AAo?$AAg?$AAr?$AAa?$AAm?$AA?5?$AAf?$AAi?$AAl?$AAe?$AAs?$AA?5?$AA?$CI?$AAx?$AA8?$AA6?$AA?$CJ?$AA?2?$AAm?$AAi?$AAc?$AAr?$AAo?$AAs?$AAo?$AAf?$AAt@ 60844c88     NMS_Engine.obj
 0003:00001d30       ??_C@_1CK@EOPGIILJ@?$AAi?$AAn?$AAv?$AAa?$AAl?$AAi?$AAd?$AA?5?$AAn?$AAu?$AAl?$AAl?$AA?5?$AAp?$AAo?$AAi?$AAn?$AAt?$AAe?$AAr?$AA?$AA@ 60844d30     NMS_Engine.obj
 0003:00001d68       ??_C@_1NM@BGAOHEPG@?$AAs?$AAt?$AAd?$AA?3?$AA?3?$AA_?$AAV?$AAe?$AAc?$AAt?$AAo?$AAr?$AA_?$AAc?$AAo?$AAn?$AAs?$AAt?$AA_?$AAi?$AAt?$AAe?$AAr?$AAa?$AAt?$AAo?$AAr?$AA?$DM?$AAc?$AAl?$AAa?$AAs@ 60844d68     NMS_Engine.obj
 0003:00001e70       ??_C@_1EG@FOHJJHAC@?$AAv?$AAe?$AAc?$AAt?$AAo?$AAr?$AA?5?$AAi?$AAt?$AAe?$AAr?$AAa?$AAt?$AAo?$AAr?$AA?5?$AAn?$AAo?$AAt?$AA?5?$AAd?$AAe?$AAr?$AAe?$AAf?$AAe?$AAr?$AAe?$AAn?$AAc?$AAa?$AAb@ 60844e70     NMS_Engine.obj
 0003:00001ec4       ??_C@_1CO@DGLIKNHI@?$AAi?$AAn?$AAv?$AAa?$AAl?$AAi?$AAd?$AA?5?$AAi?$AAt?$AAe?$AAr?$AAa?$AAt?$AAo?$AAr?$AA?5?$AAr?$AAa?$AAn?$AAg?$AAe?$AA?$AA@ 60844ec4     NMS_Engine.obj
 0003:00001f00       ??_7bad_function_call@boost@@6B@ 60844f00     NMS_Event.obj
 0003:00001f0c       ??_C@_0BO@HKHPGMPA@call?5to?5empty?5boost?3?3function?$AA@ 60844f0c     NMS_Event.obj
 0003:00001f34       ??_7runtime_error@std@@6B@ 60844f34     NMS_Event.obj
 0003:00001f44       ??_7?$clone_impl@U?$error_info_injector@Vbad_function_call@boost@@@exception_detail@boost@@@exception_detail@boost@@6B@ 60844f44     NMS_Event.obj
 0003:00001f58       ??_7?$clone_impl@U?$error_info_injector@Vbad_function_call@boost@@@exception_detail@boost@@@exception_detail@boost@@6Bexception@2@@ 60844f58     NMS_Event.obj
 0003:00001f64       ??_7?$clone_impl@U?$error_info_injector@Vbad_function_call@boost@@@exception_detail@boost@@@exception_detail@boost@@6Bbad_function_call@2@@ 60844f64     NMS_Event.obj
 0003:00001f74       ??_7?$error_info_injector@Vbad_function_call@boost@@@exception_detail@boost@@6Bexception@2@@ 60844f74     NMS_Event.obj
 0003:00001f80       ??_7?$error_info_injector@Vbad_function_call@boost@@@exception_detail@boost@@6Bbad_function_call@2@@ 60844f80     NMS_Event.obj
 0003:00001f90       ??_7exception@boost@@6B@   60844f90     NMS_Event.obj
 0003:00001f9c       ??_7clone_base@exception_detail@boost@@6B@ 60844f9c     NMS_Event.obj
 0003:00001fab       ?is_const@?$cv_traits_imp@PAV?$binder1st@V?$mem_fun1_t@XVNMS_Framework@@H@std@@@std@@@detail@boost@@2_NB 60844fab     NMS_Framework.obj
 0003:00001fac       ?is_volatile@?$cv_traits_imp@PAV?$binder1st@V?$mem_fun1_t@XVNMS_Framework@@H@std@@@std@@@detail@boost@@2_NB 60844fac     NMS_Framework.obj
 0003:00001fad       ?value@?$is_pointer_helper@V?$binder1st@V?$mem_fun1_t@XVNMS_Framework@@H@std@@@std@@@detail@boost@@2_NB 60844fad     NMS_Framework.obj
 0003:00001fae       ?value@?$is_reference_impl@V?$binder1st@V?$mem_fun1_t@XVNMS_Framework@@H@std@@@std@@@detail@boost@@2_NB 60844fae     NMS_Framework.obj
 0003:00001faf       ?value@?$result_@V?$binder1st@V?$mem_fun1_t@XVNMS_Framework@@H@std@@@std@@@?$is_mem_fun_pointer_select@$0A@@detail@boost@@2_NB 60844faf     NMS_Framework.obj
 0003:00001fb0       ?value@?$ice_and@$0A@$00$00$00$00$00$00@type_traits@boost@@2_NB 60844fb0     NMS_Framework.obj
 0003:00001fb1       ?value@?$is_pointer_impl@V?$binder1st@V?$mem_fun1_t@XVNMS_Framework@@H@std@@@std@@@detail@boost@@2_NB 60844fb1     NMS_Framework.obj
 0003:00001fb2       ?value@?$is_arithmetic_impl@V?$binder1st@V?$mem_fun1_t@XVNMS_Framework@@H@std@@@std@@@detail@boost@@2_NB 60844fb2     NMS_Framework.obj
 0003:00001fb3       ?value@?$is_scalar_impl@V?$binder1st@V?$mem_fun1_t@XVNMS_Framework@@H@std@@@std@@@detail@boost@@2_NB 60844fb3     NMS_Framework.obj
 0003:00001fb4       ?value@?$is_pod_impl@V?$binder1st@V?$mem_fun1_t@XVNMS_Framework@@H@std@@@std@@@detail@boost@@2_NB 60844fb4     NMS_Framework.obj
 0003:00001fb5       ?value@?$ice_or@$0A@$00$0A@$0A@$0A@$0A@$0A@@type_traits@boost@@2_NB 60844fb5     NMS_Framework.obj
 0003:00001fb6       ?value@?$is_volatile_rval_filter@V?$binder1st@V?$mem_fun1_t@XVNMS_Framework@@H@std@@@std@@@detail@boost@@2_NB 60844fb6     NMS_Framework.obj
 0003:00001fb7       ?value@?$has_trivial_copy_impl@V?$binder1st@V?$mem_fun1_t@XVNMS_Framework@@H@std@@@std@@@detail@boost@@2_NB 60844fb7     NMS_Framework.obj
 0003:00001fb8       ?value@?$has_trivial_dtor_impl@V?$binder1st@V?$mem_fun1_t@XVNMS_Framework@@H@std@@@std@@@detail@boost@@2_NB 60844fb8     NMS_Framework.obj
 0003:00001fbc       ?value@?$alignment_of_impl@V?$binder1st@V?$mem_fun1_t@XVNMS_Framework@@H@std@@@std@@@detail@boost@@2IB 60844fbc     NMS_Framework.obj
 0003:00001fc0       ?value@?$function_allows_small_object_optimization@V?$binder1st@V?$mem_fun1_t@XVNMS_Framework@@H@std@@@std@@@function@detail@boost@@2_NB 60844fc0     NMS_Framework.obj
 0003:00001fc4       __real@c0a00000            60844fc4     NMS_Framework.obj
 0003:00001fc8       ??_C@_0BG@FMNAMHHI@Frames?5per?5Second?3?5?$CFd?$AA@ 60844fc8     NMS_Framework.obj
 0003:00001fe8       __real@3f50624de0000000    60844fe8     NMS_Framework.obj
 0003:00001ff4       __real@3e99999a            60844ff4     NMS_SceneGraph.obj
 0003:00001ff8       __real@bf800000            60844ff8     NMS_SceneGraph.obj
 0003:00001ffc       __real@3dcccccd            60844ffc     NMS_SceneGraph.obj
 0003:00002000       __real@3f19999a            60845000     NMS_SceneGraph.obj
 0003:00002004       ??_C@_1CK@POGJDOKA@?$AA?$CI?$AA?$CC?$AA_?$AAP?$AAo?$AAs?$AA?5?$AA?$DM?$AA?5?$AAs?$AAi?$AAz?$AAe?$AA?$CI?$AA?$CJ?$AA?$CC?$AA?0?$AA?5?$AA0?$AA?$CJ?$AA?$AA@ 60845004     NMS_SceneGraph.obj
 0003:00002038       ??_C@_1LO@PLBPCKMA@?$AAs?$AAt?$AAd?$AA?3?$AA?3?$AAv?$AAe?$AAc?$AAt?$AAo?$AAr?$AA?$DM?$AAc?$AAl?$AAa?$AAs?$AAs?$AA?5?$AAS?$AAc?$AAe?$AAn?$AAe?$AAG?$AAr?$AAa?$AAp?$AAh?$AAN?$AAo?$AAd?$AAe@ 60845038     NMS_SceneGraph.obj
 0003:0000211c       ??_C@_1DM@LHGCHCBA@?$AAv?$AAe?$AAc?$AAt?$AAo?$AAr?$AA?5?$AAs?$AAu?$AAb?$AAs?$AAc?$AAr?$AAi?$AAp?$AAt?$AA?5?$AAo?$AAu?$AAt?$AA?5?$AAo?$AAf?$AA?5?$AAr?$AAa?$AAn?$AAg?$AAe?$AA?$AA@ 6084511c     NMS_SceneGraph.obj
 0003:00002168       ??_C@_1EK@EEHFMKDC@?$AAv?$AAe?$AAc?$AAt?$AAo?$AAr?$AA?5?$AAi?$AAn?$AAs?$AAe?$AAr?$AAt?$AA?5?$AAi?$AAt?$AAe?$AAr?$AAa?$AAt?$AAo?$AAr?$AA?5?$AAo?$AAu?$AAt?$AAs?$AAi?$AAd?$AAe?$AA?5?$AAr@ 60845168     NMS_SceneGraph.obj
 0003:000021c0       ??_C@_1BAC@KBDNDJPK@?$AA?$CI?$AA?$CC?$AA_?$AAM?$AAy?$AAp?$AAt?$AAr?$AA?5?$AA?$CL?$AA?5?$AA_?$AAO?$AAf?$AAf?$AA?5?$AA?$DM?$AA?$DN?$AA?5?$AA?$CI?$AA?$CI?$AA_?$AAM?$AAy?$AAv?$AAe?$AAc?$AA?5?$AA?$CK?$AA?$CJ?$AA?$CI?$AAt@ 608451c0     NMS_SceneGraph.obj
 0003:000022f8       ??_C@_1NO@NMJDBGMJ@?$AAs?$AAt?$AAd?$AA?3?$AA?3?$AA_?$AAV?$AAe?$AAc?$AAt?$AAo?$AAr?$AA_?$AAc?$AAo?$AAn?$AAs?$AAt?$AA_?$AAi?$AAt?$AAe?$AAr?$AAa?$AAt?$AAo?$AAr?$AA?$DM?$AAc?$AAl?$AAa?$AAs@ 608452f8     NMS_SceneGraph.obj
 0003:00002404       ??_C@_1DM@LBMEEJPP@?$AA?$CI?$AA?$CC?$AAt?$AAh?$AAi?$AAs?$AA?9?$AA?$DO?$AA_?$AAH?$AAa?$AAs?$AA_?$AAc?$AAo?$AAn?$AAt?$AAa?$AAi?$AAn?$AAe?$AAr?$AA?$CI?$AA?$CJ?$AA?$CC?$AA?0?$AA?5?$AA0?$AA?$CJ?$AA?$AA@ 60845404     NMS_SceneGraph.obj
 0003:00002450       __real@404e000000000000    60845450     NMS_SceneRenderer.obj
 0003:0000245c       ??_C@_06FNDEKJDK@Demo?52?$AA@ 6084545c     NMS_SceneRenderer.obj
 0003:00002464       ??_C@_0DC@OBEJEBLB@NMS_TextureManager?3?3Texture?5Mana@ 60845464     NMS_TextureManager.obj
 0003:000024a0       ??_C@_0DA@HBCDNIKB@NMS_TextureManager?3?3Texture?5Mana@ 608454a0     NMS_TextureManager.obj
 0003:000024dc       ??_C@_0DB@DMLBJBA@NMS_TextureManager?3?3Loaded?5?$FL?$CFs?$FN?5@ 608454dc     NMS_TextureManager.obj
 0003:00002518       ??_C@_0EB@HNIMEFAO@NMS_TextureManager?3?3Error?5in?5loa@ 60845518     NMS_TextureManager.obj
 0003:00002568       ??_C@_0CP@GPBNKFIH@NMS_TextureManager?3?3Texture?5load@ 60845568     NMS_TextureManager.obj
 0003:000025a0       ??_C@_0EL@GAOAJNLB@NMS_TextureManager?3?3Error?5in?5con@ 608455a0     NMS_TextureManager.obj
 0003:000025fc       ??_C@_0CN@GONGHAIC@NMS_TextureManager?3?3Lump?5created@ 608455fc     NMS_TextureManager.obj
 0003:00002634       ??_C@_0DJ@PBFOEIMF@NMS_TextureManager?3?3Negative?5fil@ 60845634     NMS_TextureManager.obj
 0003:00002678       ??_C@_0DD@OOBHJDDB@NMS_TextureManager?3?3Cannot?5open?5@ 60845678     NMS_TextureManager.obj
 0003:000026b8       ??_C@_0CK@ILCMOJFP@NMS_TextureManager?3?3Wrong?5DevIL?5@ 608456b8     NMS_TextureManager.obj
 0003:000026ec       ??_C@_0CJ@EIPBBGP@NMS_TextureManager?3?3Trying?5to?5lo@ 608456ec     NMS_TextureManager.obj
 0003:00002720       ??_C@_0DI@EKGOHON@NMS_TextureManager?3?3Deleted?5imag@ 60845720     NMS_TextureManager.obj
 0003:00002764       ??_C@_0CN@JIILIIFB@NMS_TextureManager?3?3Freed?5the?5wh@ 60845764     NMS_TextureManager.obj
 0003:000027a0       ??_C@_0FD@KLBINAPJ@NMS_TextureManager?3?3Impossible?5t@ 608457a0     NMS_TextureManager.obj
 0003:00002808       ??_C@_1EM@MHOKKPFH@?$AAm?$AAa?$AAp?$AA?1?$AAs?$AAe?$AAt?$AA?5?$AAi?$AAn?$AAs?$AAe?$AAr?$AAt?$AA?5?$AAi?$AAt?$AAe?$AAr?$AAa?$AAt?$AAo?$AAr?$AA?5?$AAo?$AAu?$AAt?$AAs?$AAi?$AAd?$AAe?$AA?5@ 60845808     NMS_TextureManager.obj
 0003:00002868       ??_C@_1BHM@KKGMLFOJ@?$AAs?$AAt?$AAd?$AA?3?$AA?3?$AA_?$AAT?$AAr?$AAe?$AAe?$AA?$DM?$AAc?$AAl?$AAa?$AAs?$AAs?$AA?5?$AAs?$AAt?$AAd?$AA?3?$AA?3?$AA_?$AAT?$AAm?$AAa?$AAp?$AA_?$AAt?$AAr?$AAa?$AAi@ 60845868     NMS_TextureManager.obj
 0003:00002a30       ??_C@_1EI@FHEHNNNM@?$AAm?$AAa?$AAp?$AA?1?$AAs?$AAe?$AAt?$AA?5?$AAi?$AAt?$AAe?$AAr?$AAa?$AAt?$AAo?$AAr?$AA?5?$AAn?$AAo?$AAt?$AA?5?$AAd?$AAe?$AAr?$AAe?$AAf?$AAe?$AAr?$AAe?$AAn?$AAc?$AAa@ 60845a30     NMS_TextureManager.obj
 0003:00002a88       ??_C@_0BE@JONHPENG@map?1set?$DMT?$DO?5too?5long?$AA@ 60845a88     NMS_TextureManager.obj
 0003:00002aa0       ??_C@_1BHA@NFJCGLO@?$AAs?$AAt?$AAd?$AA?3?$AA?3?$AA_?$AAT?$AAr?$AAe?$AAe?$AA?$DM?$AAc?$AAl?$AAa?$AAs?$AAs?$AA?5?$AAs?$AAt?$AAd?$AA?3?$AA?3?$AA_?$AAT?$AAm?$AAa?$AAp?$AA_?$AAt?$AAr?$AAa?$AAi@ 60845aa0     NMS_TextureManager.obj
 0003:00002c60       ??_C@_1EG@OKCGOALM@?$AAm?$AAa?$AAp?$AA?1?$AAs?$AAe?$AAt?$AA?5?$AAi?$AAt?$AAe?$AAr?$AAa?$AAt?$AAo?$AAr?$AA?5?$AAn?$AAo?$AAt?$AA?5?$AAd?$AAe?$AAc?$AAr?$AAe?$AAm?$AAe?$AAn?$AAt?$AAa?$AAb@ 60845c60     NMS_TextureManager.obj
 0003:00002cb4       ??_C@_1CE@IGJMOCCK@?$AAi?$AAn?$AAv?$AAa?$AAl?$AAi?$AAd?$AA?5?$AAo?$AAp?$AAe?$AAr?$AAa?$AAt?$AAo?$AAr?$AA?$DM?$AA?$AA@ 60845cb4     NMS_TextureManager.obj
 0003:00002ce0       ??_C@_1BA@GKNFDPDP@?$AA?$CB?$AAt?$AAh?$AAr?$AAe?$AAa?$AAd?$AA?$AA@ 60845ce0     NMS_Thread.obj
 0003:00002cf8       ??_C@_1HA@HJAJDBDL@?$AAc?$AA?3?$AA?2?$AAu?$AAs?$AAe?$AAr?$AAs?$AA?2?$AAm?$AAa?$AAj?$AAa?$AA?2?$AAk?$AAo?$AAd?$AAe?$AA?2?$AAi?$AAt?$AAu?$AA?9?$AAe?$AAn?$AAg?$AAi?$AAn?$AAe?$AA?2?$AAn?$AAm@ 60845cf8     NMS_Thread.obj
 0003:00002d80       ??_C@_0BH@HNIBKGCA@Unknown?5object?5thrown?6?$AA@ 60845d80     NMS_Thread.obj
 0003:00002eb8       __real@3fe0000000000000    60845eb8     nms_math:Quaternion.obj
 0003:00003060       __real@bff0000000000000    60846060     nms_math:Matrix.obj
 0003:00003070       ??_C@_1IO@ODJJMCKO@?$AAc?$AA?3?$AA?2?$AAP?$AAr?$AAo?$AAg?$AAr?$AAa?$AAm?$AA?5?$AAF?$AAi?$AAl?$AAe?$AAs?$AA?5?$AA?$CI?$AAx?$AA8?$AA6?$AA?$CJ?$AA?2?$AAM?$AAi?$AAc?$AAr?$AAo?$AAs?$AAo?$AAf?$AAt@ 60846070     nms_math:Matrix.obj
 0003:00003120       __real@4066800000000000    60846120     nms_math:Trig.obj
 0003:00003130       __real@400921fb54442d18    60846130     nms_math:Trig.obj
 0003:00003140       __real@4070e00000000000    60846140     nms_math:Trig.obj
 0003:00003150       ??_7type_info@@6B@         60846150     MSVCRTD:ti_inst.obj
 0003:00003158       __pRawDllMain              60846158     MSVCRTD:crtdll.obj
 0003:00003158       __pDefaultRawDllMain       60846158     MSVCRTD:crtdll.obj
 0003:0000315c       ??_C@_0DA@FJPPCPEH@f?3?2dd?2vctools?2crt_bld?2self_x86?2c@ 6084615c     MSVCRTD:crtdll.obj
 0003:00003198       ??_C@_0BO@GNIAFIKK@Unknown?5Runtime?5Check?5Error?6?$AN?$AA@ 60846198     MSVCRTD:_error_.obj
 0003:000031bc       ??_C@_0CM@NGINOKPC@Stack?5memory?5around?5_alloca?5was?5@ 608461bc     MSVCRTD:_error_.obj
 0003:000031f0       ??_C@_0DG@HKJMLLLP@A?5local?5variable?5was?5used?5before@ 608461f0     MSVCRTD:_error_.obj
 0003:00003230       ??_C@_0BN@FFOINMNJ@Stack?5memory?5was?5corrupted?6?$AN?$AA@ 60846230     MSVCRTD:_error_.obj
 0003:00003258       ??_C@_0BBN@GPMLNJCF@A?5cast?5to?5a?5smaller?5data?5type?5ha@ 60846258     MSVCRTD:_error_.obj
 0003:000033b0       ??_C@_0NN@NGPKDKPD@The?5value?5of?5ESP?5was?5not?5properl@ 608463b0     MSVCRTD:_error_.obj
 0003:00003578       ??_C@_0CA@IODNCDPG@Run?9Time?5Check?5Failure?5?$CD?$CFd?5?9?5?$CFs?$AA@ 60846578     MSVCRTD:_error_.obj
 0003:000035a0       ??_C@_0BE@GNBOBNCK@Unknown?5Module?5Name?$AA@ 608465a0     MSVCRTD:_error_.obj
 0003:000035b8       ??_C@_0BB@PFFGGCJP@Unknown?5Filename?$AA@ 608465b8     MSVCRTD:_error_.obj
 0003:000035d0       ??_C@_1EA@NFKNIFJP@?$AAR?$AAu?$AAn?$AA?9?$AAT?$AAi?$AAm?$AAe?$AA?5?$AAC?$AAh?$AAe?$AAc?$AAk?$AA?5?$AAF?$AAa?$AAi?$AAl?$AAu?$AAr?$AAe?$AA?5?$AA?$CD?$AA?$CF?$AAd?$AA?5?$AA?9?$AA?5?$AA?$CF?$AAs?$AA?$AA@ 608465d0     MSVCRTD:_error_.obj
 0003:00003620       ??_C@_1GM@OLMCBDMB@?$AAR?$AAu?$AAn?$AAt?$AAi?$AAm?$AAe?$AA?5?$AAC?$AAh?$AAe?$AAc?$AAk?$AA?5?$AAE?$AAr?$AAr?$AAo?$AAr?$AA?4?$AA?6?$AA?$AN?$AA?5?$AAU?$AAn?$AAa?$AAb?$AAl?$AAe?$AA?5?$AAt?$AAo@ 60846620     MSVCRTD:_error_.obj
 0003:000036a4       ??_C@_0CG@IAFNJNEE@Stack?5corrupted?5near?5unknown?5var@ 608466a4     MSVCRTD:_error_.obj
 0003:000036d8       ??_C@_0EJ@LJKNEOLN@Stack?5area?5around?5_alloca?5memory@ 608466d8     MSVCRTD:_error_.obj
 0003:00003730       ??_C@_08KJEDNCKC@?$CFs?$CFs?$CFs?$CFs?$AA@ 60846730     MSVCRTD:_error_.obj
 0003:0000373c       ??_C@_02LLMPMKNF@?$DO?5?$AA@ 6084673c     MSVCRTD:_error_.obj
 0003:00003740       ??_C@_01EEMJAFIK@?6?$AA@   60846740     MSVCRTD:_error_.obj
 0003:00003744       ??_C@_0BC@KIBAILCI@?$CFs?$CFs?$CFp?$CFs?$CFld?$CFs?$CFd?$CFs?$AA@ 60846744     MSVCRTD:_error_.obj
 0003:00003760       ??_C@_0EI@CLEPFNGI@Stack?5area?5around?5_alloca?5memory@ 60846760     MSVCRTD:_error_.obj
 0003:000037b8       ??_C@_0N@MHFFIMFG@?6Address?3?50x?$AA@ 608467b8     MSVCRTD:_error_.obj
 0003:000037c8       ??_C@_07DFDJCKFN@?6Size?3?5?$AA@ 608467c8     MSVCRTD:_error_.obj
 0003:000037d4       ??_C@_0CK@DKGBICFE@?6Allocation?5number?5within?5this?5f@ 608467d4     MSVCRTD:_error_.obj
 0003:00003808       ??_C@_08OMAHNMHJ@?6Data?3?5?$DM?$AA@ 60846808     MSVCRTD:_error_.obj
 0003:00003814       ??_C@_09FOPFMPEJ@wsprintfA?$AA@ 60846814     MSVCRTD:_error_.obj
 0003:00003820       ??_C@_0L@GMPLCCII@user32?4dll?$AA@ 60846820     MSVCRTD:_error_.obj
 0003:00003830       ??_C@_05MKKEDADM@?$CF?42X?5?$AA@ 60846830     MSVCRTD:_error_.obj
 0003:00003838       ??_C@_0DE@OHJBPMBP@A?5variable?5is?5being?5used?5without@ 60846838     MSVCRTD:_error_.obj
 0003:00003878       ??_C@_0BP@OGBCLIBO@Stack?5around?5_alloca?5corrupted?$AA@ 60846878     MSVCRTD:_userapi_.obj
 0003:000038a0       ??_C@_0CK@CNLNOEPB@Local?5variable?5used?5before?5initi@ 608468a0     MSVCRTD:_userapi_.obj
 0003:000038d4       ??_C@_0BI@CIGMDCBH@Stack?5memory?5corruption?$AA@ 608468d4     MSVCRTD:_userapi_.obj
 0003:000038f0       ??_C@_0CK@FEGOIOPB@Cast?5to?5smaller?5type?5causing?5los@ 608468f0     MSVCRTD:_userapi_.obj
 0003:00003924       ??_C@_0BJ@HEGAHDFO@Stack?5pointer?5corruption?$AA@ 60846924     MSVCRTD:_userapi_.obj
 0003:00003968       ?ProcessDetach@NativeDll@<CrtImplementationDetails>@@0IB 60846968     MSVCRTD:tncleanup.obj
 0003:0000396c       ?ProcessAttach@NativeDll@<CrtImplementationDetails>@@0IB 6084696c     MSVCRTD:tncleanup.obj
 0003:00003970       ?ThreadAttach@NativeDll@<CrtImplementationDetails>@@0IB 60846970     MSVCRTD:tncleanup.obj
 0003:00003974       ?ThreadDetach@NativeDll@<CrtImplementationDetails>@@0IB 60846974     MSVCRTD:tncleanup.obj
 0003:00003978       ?ProcessVerifier@NativeDll@<CrtImplementationDetails>@@0IB 60846978     MSVCRTD:tncleanup.obj
 0003:0000397c       ??_C@_0M@EKFFODEC@MSPDB80?4DLL?$AA@ 6084697c     MSVCRTD:_pdblkup_.obj
 0003:0000398c       ??_C@_01KDCPPGHE@r?$AA@    6084698c     MSVCRTD:_pdblkup_.obj
 0003:00003990       ??_C@_0BB@KCIACLNC@PDBOpenValidate5?$AA@ 60846990     MSVCRTD:_pdblkup_.obj
 0003:000039a4       ??_C@_0BF@BMIHBHCA@EnvironmentDirectory?$AA@ 608469a4     MSVCRTD:_pdblkup_.obj
 0003:000039c0       ??_C@_0CN@JNNIHDGH@SOFTWARE?2Microsoft?2VisualStudio?2@ 608469c0     MSVCRTD:_pdblkup_.obj
 0003:000039f8       ??_C@_0M@HLOHPNFA@RegCloseKey?$AA@ 608469f8     MSVCRTD:_pdblkup_.obj
 0003:00003a08       ??_C@_0BB@HHEIPGME@RegQueryValueExA?$AA@ 60846a08     MSVCRTD:_pdblkup_.obj
 0003:00003a1c       ??_C@_0O@DCOGKJGG@RegOpenKeyExA?$AA@ 60846a1c     MSVCRTD:_pdblkup_.obj
 0003:00003a2c       ??_C@_0N@JJPEKNFO@ADVAPI32?4DLL?$AA@ 60846a2c     MSVCRTD:_pdblkup_.obj
 0003:00003d8c       ??_R4bad_alloc@std@@6B@    60846d8c     MD2Model.obj
 0003:00003da4       ??_R3bad_alloc@std@@8      60846da4     MD2Model.obj
 0003:00003db8       ??_R2bad_alloc@std@@8      60846db8     MD2Model.obj
 0003:00003dc4       ??_R1A@?0A@EA@bad_alloc@std@@8 60846dc4     MD2Model.obj
 0003:00003de8       ??_R1A@?0A@EA@exception@std@@8 60846de8     MD2Model.obj
 0003:00003e0c       ??_R3exception@std@@8      60846e0c     MD2Model.obj
 0003:00003e20       ??_R2exception@std@@8      60846e20     MD2Model.obj
 0003:00003e28       ??_R4NMSCameraController@@6B@ 60846e28     NMS_Camera.obj
 0003:00003e40       ??_R3NMSCameraController@@8 60846e40     NMS_Camera.obj
 0003:00003e54       ??_R2NMSCameraController@@8 60846e54     NMS_Camera.obj
 0003:00003e5c       ??_R1A@?0A@EA@NMSCameraController@@8 60846e5c     NMS_Camera.obj
 0003:00003e80       ??_R4NMSCameraFPS@@6B@     60846e80     NMS_Camera.obj
 0003:00003e98       ??_R3NMSCameraFPS@@8       60846e98     NMS_Camera.obj
 0003:00003eac       ??_R2NMSCameraFPS@@8       60846eac     NMS_Camera.obj
 0003:00003eb8       ??_R1A@?0A@EA@NMSCameraFPS@@8 60846eb8     NMS_Camera.obj
 0003:00003edc       ??_R4Thread@@6B@           60846edc     NMS_Engine.obj
 0003:00003ef4       ??_R3Thread@@8             60846ef4     NMS_Engine.obj
 0003:00003f08       ??_R2Thread@@8             60846f08     NMS_Engine.obj
 0003:00003f10       ??_R1A@?0A@EA@Thread@@8    60846f10     NMS_Engine.obj
 0003:00003f34       ??_R4SceneGraphVisitor@@6B@ 60846f34     NMS_Engine.obj
 0003:00003f4c       ??_R3SceneGraphVisitor@@8  60846f4c     NMS_Engine.obj
 0003:00003f60       ??_R2SceneGraphVisitor@@8  60846f60     NMS_Engine.obj
 0003:00003f68       ??_R1A@?0A@EA@SceneGraphVisitor@@8 60846f68     NMS_Engine.obj
 0003:00003f8c       ??_R4SceneGraphNode@@6B@   60846f8c     NMS_Engine.obj
 0003:00003fa4       ??_R3SceneGraphNode@@8     60846fa4     NMS_Engine.obj
 0003:00003fb8       ??_R2SceneGraphNode@@8     60846fb8     NMS_Engine.obj
 0003:00003fc0       ??_R1A@?0A@EA@SceneGraphNode@@8 60846fc0     NMS_Engine.obj
 0003:00003fe4       ??_R4TransformationNode@@6B@ 60846fe4     NMS_Engine.obj
 0003:00003ffc       ??_R3TransformationNode@@8 60846ffc     NMS_Engine.obj
 0003:00004010       ??_R2TransformationNode@@8 60847010     NMS_Engine.obj
 0003:0000401c       ??_R1A@?0A@EA@TransformationNode@@8 6084701c     NMS_Engine.obj
 0003:00004040       ??_R4GeometryNode@@6B@     60847040     NMS_Engine.obj
 0003:00004058       ??_R3GeometryNode@@8       60847058     NMS_Engine.obj
 0003:0000406c       ??_R2GeometryNode@@8       6084706c     NMS_Engine.obj
 0003:0000407c       ??_R1A@?0A@EA@GeometryNode@@8 6084707c     NMS_Engine.obj
 0003:000040a0       ??_R4NMS_SceneRenderer@@6BSceneGraphVisitor@@@ 608470a0     NMS_Engine.obj
 0003:000040b8       ??_R3NMS_SceneRenderer@@8  608470b8     NMS_Engine.obj
 0003:000040cc       ??_R2NMS_SceneRenderer@@8  608470cc     NMS_Engine.obj
 0003:000040dc       ??_R1A@?0A@EA@NMS_SceneRenderer@@8 608470dc     NMS_Engine.obj
 0003:00004100       ??_R13?0A@EA@Thread@@8     60847100     NMS_Engine.obj
 0003:00004124       ??_R4NMS_SceneRenderer@@6BThread@@@ 60847124     NMS_Engine.obj
 0003:0000413c       ??_R4length_error@std@@6B@ 6084713c     NMS_Engine.obj
 0003:00004154       ??_R3length_error@std@@8   60847154     NMS_Engine.obj
 0003:00004168       ??_R2length_error@std@@8   60847168     NMS_Engine.obj
 0003:00004178       ??_R1A@?0A@EA@length_error@std@@8 60847178     NMS_Engine.obj
 0003:0000419c       ??_R1A@?0A@EA@logic_error@std@@8 6084719c     NMS_Engine.obj
 0003:000041c0       ??_R3logic_error@std@@8    608471c0     NMS_Engine.obj
 0003:000041d4       ??_R2logic_error@std@@8    608471d4     NMS_Engine.obj
 0003:000041e0       ??_R4logic_error@std@@6B@  608471e0     NMS_Engine.obj
 0003:000041f8       ??_R4bad_function_call@boost@@6B@ 608471f8     NMS_Event.obj
 0003:00004210       ??_R3bad_function_call@boost@@8 60847210     NMS_Event.obj
 0003:00004224       ??_R2bad_function_call@boost@@8 60847224     NMS_Event.obj
 0003:00004234       ??_R1A@?0A@EA@bad_function_call@boost@@8 60847234     NMS_Event.obj
 0003:00004258       ??_R1A@?0A@EA@runtime_error@std@@8 60847258     NMS_Event.obj
 0003:0000427c       ??_R3runtime_error@std@@8  6084727c     NMS_Event.obj
 0003:00004290       ??_R2runtime_error@std@@8  60847290     NMS_Event.obj
 0003:0000429c       ??_R4runtime_error@std@@6B@ 6084729c     NMS_Event.obj
 0003:000042b4       ??_R4?$clone_impl@U?$error_info_injector@Vbad_function_call@boost@@@exception_detail@boost@@@exception_detail@boost@@6Bbad_function_call@2@@ 608472b4     NMS_Event.obj
 0003:000042cc       ??_R3?$clone_impl@U?$error_info_injector@Vbad_function_call@boost@@@exception_detail@boost@@@exception_detail@boost@@8 608472cc     NMS_Event.obj
 0003:000042e0       ??_R2?$clone_impl@U?$error_info_injector@Vbad_function_call@boost@@@exception_detail@boost@@@exception_detail@boost@@8 608472e0     NMS_Event.obj
 0003:00004304       ??_R1A@?0A@EA@?$clone_impl@U?$error_info_injector@Vbad_function_call@boost@@@exception_detail@boost@@@exception_detail@boost@@8 60847304     NMS_Event.obj
 0003:00004328       ??_R1A@?0A@EA@?$error_info_injector@Vbad_function_call@boost@@@exception_detail@boost@@8 60847328     NMS_Event.obj
 0003:0000434c       ??_R3?$error_info_injector@Vbad_function_call@boost@@@exception_detail@boost@@8 6084734c     NMS_Event.obj
 0003:00004360       ??_R2?$error_info_injector@Vbad_function_call@boost@@@exception_detail@boost@@8 60847360     NMS_Event.obj
 0003:0000437c       ??_R1CM@?0A@EA@exception@boost@@8 6084737c     NMS_Event.obj
 0003:000043a0       ??_R3exception@boost@@8    608473a0     NMS_Event.obj
 0003:000043b4       ??_R2exception@boost@@8    608473b4     NMS_Event.obj
 0003:000043bc       ??_R1A@?0A@EA@exception@boost@@8 608473bc     NMS_Event.obj
 0003:000043e0       ??_R1EA@?0A@EA@clone_base@exception_detail@boost@@8 608473e0     NMS_Event.obj
 0003:00004404       ??_R3clone_base@exception_detail@boost@@8 60847404     NMS_Event.obj
 0003:00004418       ??_R2clone_base@exception_detail@boost@@8 60847418     NMS_Event.obj
 0003:00004420       ??_R1A@?0A@EA@clone_base@exception_detail@boost@@8 60847420     NMS_Event.obj
 0003:00004444       ??_R4?$clone_impl@U?$error_info_injector@Vbad_function_call@boost@@@exception_detail@boost@@@exception_detail@boost@@6Bexception@2@@ 60847444     NMS_Event.obj
 0003:0000445c       ??_R4?$clone_impl@U?$error_info_injector@Vbad_function_call@boost@@@exception_detail@boost@@@exception_detail@boost@@6B@ 6084745c     NMS_Event.obj
 0003:00004474       ??_R4?$error_info_injector@Vbad_function_call@boost@@@exception_detail@boost@@6Bbad_function_call@2@@ 60847474     NMS_Event.obj
 0003:0000448c       ??_R4?$error_info_injector@Vbad_function_call@boost@@@exception_detail@boost@@6Bexception@2@@ 6084748c     NMS_Event.obj
 0003:000044a4       ??_R4exception@boost@@6B@  608474a4     NMS_Event.obj
 0003:000044bc       ??_R4clone_base@exception_detail@boost@@6B@ 608474bc     NMS_Event.obj
 0003:000044d4       ??_R4type_info@@6B@        608474d4     MSVCRTD:ti_inst.obj
 0003:000044ec       ??_R3type_info@@8          608474ec     MSVCRTD:ti_inst.obj
 0003:00004500       ??_R2type_info@@8          60847500     MSVCRTD:ti_inst.obj
 0003:00004508       ??_R1A@?0A@EA@type_info@@8 60847508     MSVCRTD:ti_inst.obj
 0003:00004658       ___rtc_iaa                 60847658     MSVCRTD:_initsect_.obj
 0003:0000486c       ___rtc_izz                 6084786c     MSVCRTD:_initsect_.obj
 0003:00004970       ___rtc_taa                 60847970     MSVCRTD:_initsect_.obj
 0003:00004b84       ___rtc_tzz                 60847b84     MSVCRTD:_initsect_.obj
 0003:00005088       __TI2?AVbad_alloc@std@@    60848088     MD2Model.obj
 0003:0000509c       __CTA2?AVbad_alloc@std@@   6084809c     MD2Model.obj
 0003:000050ac       __CT??_R0?AVbad_alloc@std@@@8??0bad_alloc@std@@QAE@ABV01@@Z12 608480ac     MD2Model.obj
 0003:000050cc       __CT??_R0?AVexception@std@@@8??0exception@std@@QAE@ABV01@@Z12 608480cc     MD2Model.obj
 0003:000058f0       __TI3?AVlength_error@std@@ 608488f0     NMS_Engine.obj
 0003:00005934       __CTA3?AVlength_error@std@@ 60848934     NMS_Engine.obj
 0003:00005948       __CT??_R0?AVlength_error@std@@@8??0length_error@std@@QAE@ABV01@@Z44 60848948     NMS_Engine.obj
 0003:00005968       __CT??_R0?AVlogic_error@std@@@8??0logic_error@std@@QAE@ABV01@@Z44 60848968     NMS_Engine.obj
 0003:00006214       __TI7?AV?$clone_impl@U?$error_info_injector@Vbad_function_call@boost@@@exception_detail@boost@@@exception_detail@boost@@ 60849214     NMS_Event.obj
 0003:00006258       __CTA7?AV?$clone_impl@U?$error_info_injector@Vbad_function_call@boost@@@exception_detail@boost@@@exception_detail@boost@@ 60849258     NMS_Event.obj
 0003:0000627c       __CT??_R0?AV?$clone_impl@U?$error_info_injector@Vbad_function_call@boost@@@exception_detail@boost@@@exception_detail@boost@@@8??0?$clone_impl@U?$error_info_injector@Vbad_function_call@boost@@@exception_detail@boost@@@exception_detail@boost@@QAE@ABV012@@Z68 6084927c     NMS_Event.obj
 0003:0000629c       __CT??_R0?AU?$error_info_injector@Vbad_function_call@boost@@@exception_detail@boost@@@8??0?$error_info_injector@Vbad_function_call@boost@@@exception_detail@boost@@QAE@ABU012@@Z64 6084929c     NMS_Event.obj
 0003:000062bc       __CT??_R0?AVbad_function_call@boost@@@8??0bad_function_call@boost@@QAE@ABV01@@Z44 608492bc     NMS_Event.obj
 0003:000062dc       __CT??_R0?AVruntime_error@std@@@8??0runtime_error@std@@QAE@ABV01@@Z44 608492dc     NMS_Event.obj
 0003:000062fc       __CT??_R0?AVexception@boost@@@8??0exception@boost@@QAE@ABV01@@Z2044 608492fc     NMS_Event.obj
 0003:0000631c       __CT??_R0?AVclone_base@exception_detail@boost@@@8??0clone_base@exception_detail@boost@@QAE@ABV012@@Z464 6084931c     NMS_Event.obj
 0003:0000657c       __TI1H                     6084957c     NMS_LightSystem.obj
 0003:00006624       __CTA1H                    60849624     NMS_LightSystem.obj
 0003:0000662c       __CT??_R0H@84              6084962c     NMS_LightSystem.obj
 0003:00006c80       __TI2?AVruntime_error@std@@ 60849c80     NMS_Thread.obj
 0003:00006cc4       __CTA2?AVruntime_error@std@@ 60849cc4     NMS_Thread.obj
 0004:00000008       ?animlist@MD2Model@@2PAUanim_t@@A 6084e008     MD2Model.obj
 0004:00000108       ?anorms@MD2Model@@0PAY02MA 6084e108     MD2Model.obj
 0004:00000a5c       ??_R0?AVbad_alloc@std@@@8  6084ea5c     MD2Model.obj
 0004:00000a80       ??_R0?AVexception@std@@@8  6084ea80     MD2Model.obj
 0004:00000ab0       ??_R0?AVNMSCameraController@@@8 6084eab0     NMS_Camera.obj
 0004:00000ad8       ??_R0?AVNMSCameraFPS@@@8   6084ead8     NMS_Camera.obj
 0004:00000afc       ??_R0?AVThread@@@8         6084eafc     NMS_Engine.obj
 0004:00000b18       ??_R0?AVSceneGraphVisitor@@@8 6084eb18     NMS_Engine.obj
 0004:00000b40       ??_R0?AVSceneGraphNode@@@8 6084eb40     NMS_Engine.obj
 0004:00000b64       ??_R0?AVTransformationNode@@@8 6084eb64     NMS_Engine.obj
 0004:00000b8c       ??_R0?AVGeometryNode@@@8   6084eb8c     NMS_Engine.obj
 0004:00000bac       ??_R0?AVNMS_SceneRenderer@@@8 6084ebac     NMS_Engine.obj
 0004:00000bd4       ??_R0?AVlength_error@std@@@8 6084ebd4     NMS_Engine.obj
 0004:00000bfc       ??_R0?AVlogic_error@std@@@8 6084ebfc     NMS_Engine.obj
 0004:00000c20       ?stored_vtable@?1???$assign_to@P6AXH@Z@?$function1@XH@boost@@AAEXP6AXH@Z@Z@4U?$basic_vtable1@XH@function@detail@2@A 6084ec20     NMS_Engine.obj
 0004:00000c2c       ?stored_vtable@?1???$assign_to@P6AXW4SDLKey@@@Z@?$function1@XW4SDLKey@@@boost@@AAEXP6AXW4SDLKey@@@Z@Z@4U?$basic_vtable1@XW4SDLKey@@@function@detail@2@A 6084ec2c     NMS_Engine.obj
 0004:00000c38       ??_R0P6AXH@Z@8             6084ec38     NMS_Engine.obj
 0004:00000c4c       ??_R0P6AXW4SDLKey@@@Z@8    6084ec4c     NMS_Engine.obj
 0004:00000c70       ??_R0?AVbad_function_call@boost@@@8 6084ec70     NMS_Event.obj
 0004:00000ca0       ??_R0?AVruntime_error@std@@@8 6084eca0     NMS_Event.obj
 0004:00000cc8       ??_R0?AV?$clone_impl@U?$error_info_injector@Vbad_function_call@boost@@@exception_detail@boost@@@exception_detail@boost@@@8 6084ecc8     NMS_Event.obj
 0004:00000d60       ??_R0?AU?$error_info_injector@Vbad_function_call@boost@@@exception_detail@boost@@@8 6084ed60     NMS_Event.obj
 0004:00000dc8       ??_R0?AVexception@boost@@@8 6084edc8     NMS_Event.obj
 0004:00000dec       ??_R0?AVclone_base@exception_detail@boost@@@8 6084edec     NMS_Event.obj
 0004:00000e34       ?stored_vtable@?1???$assign_to@V?$binder1st@V?$mem_fun1_t@XVNMS_Framework@@H@std@@@std@@@?$function1@XH@boost@@AAEXV?$binder1st@V?$mem_fun1_t@XVNMS_Framework@@H@std@@@std@@@Z@4U?$basic_vtable1@XH@function@detail@2@A 6084ee34     NMS_Framework.obj
 0004:00000e40       ??_R0?AV?$binder1st@V?$mem_fun1_t@XVNMS_Framework@@H@std@@@std@@@8 6084ee40     NMS_Framework.obj
 0004:00000e98       ??_R0H@8                   6084ee98     NMS_LightSystem.obj
 0004:00000eb8       ?__LINE__Var@?1??start@Thread@@QAEXXZ@4JA 6084eeb8     NMS_Thread.obj
 0004:00000ed0       ___security_cookie         6084eed0     MSVCRTD:gs_cookie.obj
 0004:00000ed4       ___security_cookie_complement 6084eed4     MSVCRTD:gs_cookie.obj
 0004:00000ed8       ??_R0?AVtype_info@@@8      6084eed8     MSVCRTD:ti_inst.obj
 0004:00000f00       ?_RTC_ErrorLevels@@3PAHA   6084ef00     MSVCRTD:_error_.obj
 0004:00000f18       ___native_dllmain_reason   6084ef18     MSVCRTD:natstart.obj
 0004:00000f1c       ___native_vcclrit_reason   6084ef1c     MSVCRTD:natstart.obj
 0004:00001058       ?m_Singleton@NMS_AssetManager@@0PAV1@A 6084f058     NMS_AssetManager.obj
 0004:00001060       ?engine@@3VNMS_Framework@@A 6084f060     NMS_Engine.obj
 0004:0000112c       ?singleton@NMS_Event@@0PAV1@A 6084f12c     NMS_Event.obj
 0004:0000119c       ?sceneGraphGuard@@3PAUSDL_mutex@@A 6084f19c     NMS_Mutex.obj
 0004:000011a0       ?m_Singleton@NMS_TextureManager@@0PAV1@A 6084f1a0     NMS_TextureManager.obj
 0004:000011ac       ?wsprintffp@@3P6AHPADPBDZZA 6084f1ac     MSVCRTD:_error_.obj
 0004:00001584       ?__type_info_root_node@@3U__type_info_node@@A 6084f584     MSVCRTD:tncleanup.obj
 0004:0000159c       __adjust_fdiv              6084f59c     <common>
 0004:000015a8       ___native_startup_state    6084f5a8     <common>
 0004:000015b8       ___native_startup_lock     6084f5b8     <common>
 0004:000015bc       ___sse2_available          6084f5bc     <common>
 0004:000015c8       ___dyn_tls_init_callback   6084f5c8     <common>
 0004:000015d4       ___onexitend               6084f5d4     <common>
 0004:000015e4       ___onexitbegin             6084f5e4     <common>
 0005:00000000       __IMPORT_DESCRIPTOR_SDL    60850000     sdl:SDL.dll
 0005:00000014       __IMPORT_DESCRIPTOR_OPENGL32 60850014     opengl32:OPENGL32.dll
 0005:00000028       __IMPORT_DESCRIPTOR_GLU32  60850028     glu32:GLU32.dll
 0005:0000003c       __IMPORT_DESCRIPTOR_DevIL  6085003c     Devil:DevIL.dll
 0005:00000050       __IMPORT_DESCRIPTOR_nms_utilities 60850050     nms_utilities:nms_utilities.dll
 0005:00000064       __IMPORT_DESCRIPTOR_MSVCP90D 60850064     msvcprtd:MSVCP90D.dll
 0005:00000078       __IMPORT_DESCRIPTOR_MSVCR90D 60850078     MSVCRTD:MSVCR90D.dll
 0005:0000008c       __IMPORT_DESCRIPTOR_KERNEL32 6085008c     kernel32:KERNEL32.dll
 0005:000000a0       __NULL_IMPORT_DESCRIPTOR   608500a0     sdl:SDL.dll
 0005:0000055c       __imp__ilInit@0            6085055c     Devil:DevIL.dll
 0005:00000560       __imp__ilGetData@0         60850560     Devil:DevIL.dll
 0005:00000564       __imp__ilDeleteImages@8    60850564     Devil:DevIL.dll
 0005:00000568       __imp__ilConvertImage@8    60850568     Devil:DevIL.dll
 0005:0000056c       __imp__ilLoadL@12          6085056c     Devil:DevIL.dll
 0005:00000570       __imp__ilBindImage@4       60850570     Devil:DevIL.dll
 0005:00000574       __imp__ilGenImages@8       60850574     Devil:DevIL.dll
 0005:00000578       __imp__ilGetInteger@4      60850578     Devil:DevIL.dll
 0005:0000057c       \177DevIL_NULL_THUNK_DATA  6085057c     Devil:DevIL.dll
 0005:000005ac       __imp__gluPerspective@32   608505ac     glu32:GLU32.dll
 0005:000005b0       \177GLU32_NULL_THUNK_DATA  608505b0     glu32:GLU32.dll
 0005:000005dc       __imp__GetTickCount@0      608505dc     kernel32:KERNEL32.dll
 0005:000005e0       __imp__QueryPerformanceCounter@4 608505e0     kernel32:KERNEL32.dll
 0005:000005e4       __imp__SetUnhandledExceptionFilter@4 608505e4     kernel32:KERNEL32.dll
 0005:000005e8       __imp__UnhandledExceptionFilter@4 608505e8     kernel32:KERNEL32.dll
 0005:000005ec       __imp__GetCurrentProcess@0 608505ec     kernel32:KERNEL32.dll
 0005:000005f0       __imp__TerminateProcess@8  608505f0     kernel32:KERNEL32.dll
 0005:000005f4       __imp__LoadLibraryA@4      608505f4     kernel32:KERNEL32.dll
 0005:000005f8       __imp__GetProcAddress@8    608505f8     kernel32:KERNEL32.dll
 0005:000005fc       __imp__GetCurrentThreadId@0 608505fc     kernel32:KERNEL32.dll
 0005:00000600       __imp__MultiByteToWideChar@24 60850600     kernel32:KERNEL32.dll
 0005:00000604       __imp__WideCharToMultiByte@32 60850604     kernel32:KERNEL32.dll
 0005:00000608       __imp__DebugBreak@0        60850608     kernel32:KERNEL32.dll
 0005:0000060c       __imp__RaiseException@16   6085060c     kernel32:KERNEL32.dll
 0005:00000610       __imp__IsDebuggerPresent@0 60850610     kernel32:KERNEL32.dll
 0005:00000614       __imp__InterlockedCompareExchange@12 60850614     kernel32:KERNEL32.dll
 0005:00000618       __imp__Sleep@4             60850618     kernel32:KERNEL32.dll
 0005:0000061c       __imp__InterlockedExchange@8 6085061c     kernel32:KERNEL32.dll
 0005:00000620       __imp__GetCurrentProcessId@0 60850620     kernel32:KERNEL32.dll
 0005:00000624       __imp__GetSystemTimeAsFileTime@4 60850624     kernel32:KERNEL32.dll
 0005:00000628       __imp__DisableThreadLibraryCalls@4 60850628     kernel32:KERNEL32.dll
 0005:0000062c       __imp__HeapFree@12         6085062c     kernel32:KERNEL32.dll
 0005:00000630       __imp__HeapAlloc@12        60850630     kernel32:KERNEL32.dll
 0005:00000634       __imp__GetProcessHeap@0    60850634     kernel32:KERNEL32.dll
 0005:00000638       __imp__GetModuleFileNameW@12 60850638     kernel32:KERNEL32.dll
 0005:0000063c       __imp__VirtualQuery@12     6085063c     kernel32:KERNEL32.dll
 0005:00000640       __imp__FreeLibrary@4       60850640     kernel32:KERNEL32.dll
 0005:00000644       __imp__lstrlenA@4          60850644     kernel32:KERNEL32.dll
 0005:00000648       \177KERNEL32_NULL_THUNK_DATA 60850648     kernel32:KERNEL32.dll
 0005:00000688       __imp_?_Unlock@?$basic_streambuf@DU?$char_traits@D@std@@@std@@QAEXXZ 60850688     msvcprtd:MSVCP90D.dll
 0005:0000068c       __imp_?_Lock@?$basic_streambuf@DU?$char_traits@D@std@@@std@@QAEXXZ 6085068c     msvcprtd:MSVCP90D.dll
 0005:00000690       __imp_?uncaught_exception@std@@YA_NXZ 60850690     msvcprtd:MSVCP90D.dll
 0005:00000694       __imp_?_Osfx@?$basic_ostream@DU?$char_traits@D@std@@@std@@QAEXXZ 60850694     msvcprtd:MSVCP90D.dll
 0005:00000698       __imp_?good@ios_base@std@@QBE_NXZ 60850698     msvcprtd:MSVCP90D.dll
 0005:0000069c       __imp_?tie@?$basic_ios@DU?$char_traits@D@std@@@std@@QBEPAV?$basic_ostream@DU?$char_traits@D@std@@@2@XZ 6085069c     msvcprtd:MSVCP90D.dll
 0005:000006a0       __imp_?flush@?$basic_ostream@DU?$char_traits@D@std@@@std@@QAEAAV12@XZ 608506a0     msvcprtd:MSVCP90D.dll
 0005:000006a4       __imp_?length@?$char_traits@D@std@@SAIPBD@Z 608506a4     msvcprtd:MSVCP90D.dll
 0005:000006a8       __imp_?width@ios_base@std@@QBEHXZ 608506a8     msvcprtd:MSVCP90D.dll
 0005:000006ac       __imp_?flags@ios_base@std@@QBEHXZ 608506ac     msvcprtd:MSVCP90D.dll
 0005:000006b0       __imp_?fill@?$basic_ios@DU?$char_traits@D@std@@@std@@QBEDXZ 608506b0     msvcprtd:MSVCP90D.dll
 0005:000006b4       __imp_?rdbuf@?$basic_ios@DU?$char_traits@D@std@@@std@@QBEPAV?$basic_streambuf@DU?$char_traits@D@std@@@2@XZ 608506b4     msvcprtd:MSVCP90D.dll
 0005:000006b8       __imp_?sputc@?$basic_streambuf@DU?$char_traits@D@std@@@std@@QAEHD@Z 608506b8     msvcprtd:MSVCP90D.dll
 0005:000006bc       __imp_?eof@?$char_traits@D@std@@SAHXZ 608506bc     msvcprtd:MSVCP90D.dll
 0005:000006c0       __imp_?eq_int_type@?$char_traits@D@std@@SA_NABH0@Z 608506c0     msvcprtd:MSVCP90D.dll
 0005:000006c4       __imp_?_Orphan_all@_Container_base_secure@std@@QBEXXZ 608506c4     msvcprtd:MSVCP90D.dll
 0005:000006c8       __imp_??1?$basic_string@DU?$char_traits@D@std@@V?$allocator@D@2@@std@@QAE@XZ 608506c8     msvcprtd:MSVCP90D.dll
 0005:000006cc       __imp_??0?$basic_string@DU?$char_traits@D@std@@V?$allocator@D@2@@std@@QAE@PBD@Z 608506cc     msvcprtd:MSVCP90D.dll
 0005:000006d0       __imp_??0?$basic_string@DU?$char_traits@D@std@@V?$allocator@D@2@@std@@QAE@ABV01@@Z 608506d0     msvcprtd:MSVCP90D.dll
 0005:000006d4       __imp_?c_str@?$basic_string@DU?$char_traits@D@std@@V?$allocator@D@2@@std@@QBEPBDXZ 608506d4     msvcprtd:MSVCP90D.dll
 0005:000006d8       __imp_??6?$basic_ostream@DU?$char_traits@D@std@@@std@@QAEAAV01@P6AAAV01@AAV01@@Z@Z 608506d8     msvcprtd:MSVCP90D.dll
 0005:000006dc       __imp_?endl@std@@YAAAV?$basic_ostream@DU?$char_traits@D@std@@@1@AAV21@@Z 608506dc     msvcprtd:MSVCP90D.dll
 0005:000006e0       __imp_??6?$basic_ostream@DU?$char_traits@D@std@@@std@@QAEAAV01@M@Z 608506e0     msvcprtd:MSVCP90D.dll
 0005:000006e4       __imp_?cout@std@@3V?$basic_ostream@DU?$char_traits@D@std@@@1@A 608506e4     msvcprtd:MSVCP90D.dll
 0005:000006e8       __imp_?cerr@std@@3V?$basic_ostream@DU?$char_traits@D@std@@@1@A 608506e8     msvcprtd:MSVCP90D.dll
 0005:000006ec       __imp_?sputn@?$basic_streambuf@DU?$char_traits@D@std@@@std@@QAEHPBDH@Z 608506ec     msvcprtd:MSVCP90D.dll
 0005:000006f0       __imp_?width@ios_base@std@@QAEHH@Z 608506f0     msvcprtd:MSVCP90D.dll
 0005:000006f4       __imp_?setstate@?$basic_ios@DU?$char_traits@D@std@@@std@@QAEXH_N@Z 608506f4     msvcprtd:MSVCP90D.dll
 0005:000006f8       __imp_??0_Container_base_secure@std@@QAE@XZ 608506f8     msvcprtd:MSVCP90D.dll
 0005:000006fc       __imp_??1_Container_base_secure@std@@QAE@XZ 608506fc     msvcprtd:MSVCP90D.dll
 0005:00000700       __imp_??1_Lockit@std@@QAE@XZ 60850700     msvcprtd:MSVCP90D.dll
 0005:00000704       __imp_??0_Lockit@std@@QAE@H@Z 60850704     msvcprtd:MSVCP90D.dll
 0005:00000708       __imp_?_Debug_message@std@@YAXPB_W0I@Z 60850708     msvcprtd:MSVCP90D.dll
 0005:0000070c       \177MSVCP90D_NULL_THUNK_DATA 6085070c     msvcprtd:MSVCP90D.dll
 0005:00000750       __imp__sqrt                60850750     MSVCRTD:MSVCR90D.dll
 0005:00000754       __imp____clean_type_info_names_internal 60850754     MSVCRTD:MSVCR90D.dll
 0005:00000758       __imp___except_handler4_common 60850758     MSVCRTD:MSVCR90D.dll
 0005:0000075c       __imp_?_type_info_dtor_internal_method@type_info@@QAEXXZ 6085075c     MSVCRTD:MSVCR90D.dll
 0005:00000760       __imp_?terminate@@YAXXZ    60850760     MSVCRTD:MSVCR90D.dll
 0005:00000764       __imp___crt_debugger_hook  60850764     MSVCRTD:MSVCR90D.dll
 0005:00000768       __imp____CppXcptFilter     60850768     MSVCRTD:MSVCR90D.dll
 0005:0000076c       __imp___adjust_fdiv        6085076c     MSVCRTD:MSVCR90D.dll
 0005:00000770       __imp___amsg_exit          60850770     MSVCRTD:MSVCR90D.dll
 0005:00000774       __imp___initterm_e         60850774     MSVCRTD:MSVCR90D.dll
 0005:00000778       __imp___initterm           60850778     MSVCRTD:MSVCR90D.dll
 0005:0000077c       __imp___CrtSetCheckCount   6085077c     MSVCRTD:MSVCR90D.dll
 0005:00000780       __imp___encoded_null       60850780     MSVCRTD:MSVCR90D.dll
 0005:00000784       __imp___free_dbg           60850784     MSVCRTD:MSVCR90D.dll
 0005:00000788       __imp___malloc_dbg         60850788     MSVCRTD:MSVCR90D.dll
 0005:0000078c       __imp___decode_pointer     6085078c     MSVCRTD:MSVCR90D.dll
 0005:00000790       __imp___onexit             60850790     MSVCRTD:MSVCR90D.dll
 0005:00000794       __imp___lock               60850794     MSVCRTD:MSVCR90D.dll
 0005:00000798       __imp___encode_pointer     60850798     MSVCRTD:MSVCR90D.dll
 0005:0000079c       __imp____dllonexit         6085079c     MSVCRTD:MSVCR90D.dll
 0005:000007a0       __imp___unlock             608507a0     MSVCRTD:MSVCR90D.dll
 0005:000007a4       __imp___CRT_RTC_INITW      608507a4     MSVCRTD:MSVCR90D.dll
 0005:000007a8       __imp__strlen              608507a8     MSVCRTD:MSVCR90D.dll
 0005:000007ac       __imp__fwrite              608507ac     MSVCRTD:MSVCR90D.dll
 0005:000007b0       __imp__fabs                608507b0     MSVCRTD:MSVCR90D.dll
 0005:000007b4       __imp_??_V@YAXPAX@Z        608507b4     MSVCRTD:MSVCR90D.dll
 0005:000007b8       __imp__sin                 608507b8     MSVCRTD:MSVCR90D.dll
 0005:000007bc       __imp__cos                 608507bc     MSVCRTD:MSVCR90D.dll
 0005:000007c0       __imp___wassert            608507c0     MSVCRTD:MSVCR90D.dll
 0005:000007c4       __imp__strcmp              608507c4     MSVCRTD:MSVCR90D.dll
 0005:000007c8       __imp__memset              608507c8     MSVCRTD:MSVCR90D.dll
 0005:000007cc       __imp__malloc              608507cc     MSVCRTD:MSVCR90D.dll
 0005:000007d0       __imp__free                608507d0     MSVCRTD:MSVCR90D.dll
 0005:000007d4       __imp__fclose              608507d4     MSVCRTD:MSVCR90D.dll
 0005:000007d8       __imp__fread               608507d8     MSVCRTD:MSVCR90D.dll
 0005:000007dc       __imp__fopen_s             608507dc     MSVCRTD:MSVCR90D.dll
 0005:000007e0       __imp__memcpy              608507e0     MSVCRTD:MSVCR90D.dll
 0005:000007e4       __imp____CxxFrameHandler3  608507e4     MSVCRTD:MSVCR90D.dll
 0005:000007e8       __imp___CxxThrowException@8 608507e8     MSVCRTD:MSVCR90D.dll
 0005:000007ec       __imp_??3@YAXPAX@Z         608507ec     MSVCRTD:MSVCR90D.dll
 0005:000007f0       __imp___invalid_parameter  608507f0     MSVCRTD:MSVCR90D.dll
 0005:000007f4       __imp___CrtDbgReportW      608507f4     MSVCRTD:MSVCR90D.dll
 0005:000007f8       __imp_??2@YAPAXI@Z         608507f8     MSVCRTD:MSVCR90D.dll
 0005:000007fc       __imp_??0exception@std@@QAE@ABV01@@Z 608507fc     MSVCRTD:MSVCR90D.dll
 0005:00000800       __imp_??0exception@std@@QAE@ABQBD@Z 60850800     MSVCRTD:MSVCR90D.dll
 0005:00000804       __imp_?what@exception@std@@UBEPBDXZ 60850804     MSVCRTD:MSVCR90D.dll
 0005:00000808       __imp_??1exception@std@@UAE@XZ 60850808     MSVCRTD:MSVCR90D.dll
 0005:0000080c       __imp__sprintf_s           6085080c     MSVCRTD:MSVCR90D.dll
 0005:00000810       __imp___purecall           60850810     MSVCRTD:MSVCR90D.dll
 0005:00000814       __imp_??0exception@std@@QAE@XZ 60850814     MSVCRTD:MSVCR90D.dll
 0005:00000818       __imp__memmove_s           60850818     MSVCRTD:MSVCR90D.dll
 0005:0000081c       __imp_??8type_info@@QBE_NABV0@@Z 6085081c     MSVCRTD:MSVCR90D.dll
 0005:00000820       __imp__fseek               60850820     MSVCRTD:MSVCR90D.dll
 0005:00000824       \177MSVCR90D_NULL_THUNK_DATA 60850824     MSVCRTD:MSVCR90D.dll
 0005:00000878       __imp__glBindTexture@8     60850878     opengl32:OPENGL32.dll
 0005:0000087c       __imp__glCullFace@4        6085087c     opengl32:OPENGL32.dll
 0005:00000880       __imp__glRotatef@16        60850880     opengl32:OPENGL32.dll
 0005:00000884       __imp__glEnable@4          60850884     opengl32:OPENGL32.dll
 0005:00000888       __imp__glFrontFace@4       60850888     opengl32:OPENGL32.dll
 0005:0000088c       __imp__glPushAttrib@4      6085088c     opengl32:OPENGL32.dll
 0005:00000890       __imp__glLoadIdentity@0    60850890     opengl32:OPENGL32.dll
 0005:00000894       __imp__glMatrixMode@4      60850894     opengl32:OPENGL32.dll
 0005:00000898       __imp__glClear@4           60850898     opengl32:OPENGL32.dll
 0005:0000089c       __imp__glPolygonMode@8     6085089c     opengl32:OPENGL32.dll
 0005:000008a0       __imp__glShadeModel@4      608508a0     opengl32:OPENGL32.dll
 0005:000008a4       __imp__glLightModelfv@8    608508a4     opengl32:OPENGL32.dll
 0005:000008a8       __imp__glLightfv@12        608508a8     opengl32:OPENGL32.dll
 0005:000008ac       __imp__glVertex3f@12       608508ac     opengl32:OPENGL32.dll
 0005:000008b0       __imp__glColor3f@12        608508b0     opengl32:OPENGL32.dll
 0005:000008b4       __imp__glHint@8            608508b4     opengl32:OPENGL32.dll
 0005:000008b8       __imp__glDepthFunc@4       608508b8     opengl32:OPENGL32.dll
 0005:000008bc       __imp__glClearDepth@8      608508bc     opengl32:OPENGL32.dll
 0005:000008c0       __imp__glColorMaterial@8   608508c0     opengl32:OPENGL32.dll
 0005:000008c4       __imp__glViewport@16       608508c4     opengl32:OPENGL32.dll
 0005:000008c8       __imp__glClearColor@16     608508c8     opengl32:OPENGL32.dll
 0005:000008cc       __imp__glMultMatrixf@4     608508cc     opengl32:OPENGL32.dll
 0005:000008d0       __imp__glTexImage2D@36     608508d0     opengl32:OPENGL32.dll
 0005:000008d4       __imp__glTexParameteri@12  608508d4     opengl32:OPENGL32.dll
 0005:000008d8       __imp__glGenTextures@8     608508d8     opengl32:OPENGL32.dll
 0005:000008dc       __imp__glDeleteTextures@8  608508dc     opengl32:OPENGL32.dll
 0005:000008e0       __imp__glPushMatrix@0      608508e0     opengl32:OPENGL32.dll
 0005:000008e4       __imp__glPopAttrib@0       608508e4     opengl32:OPENGL32.dll
 0005:000008e8       __imp__glDisable@4         608508e8     opengl32:OPENGL32.dll
 0005:000008ec       __imp__glEnd@0             608508ec     opengl32:OPENGL32.dll
 0005:000008f0       __imp__glBegin@4           608508f0     opengl32:OPENGL32.dll
 0005:000008f4       __imp__glTexCoord2f@8      608508f4     opengl32:OPENGL32.dll
 0005:000008f8       __imp__glNormal3fv@4       608508f8     opengl32:OPENGL32.dll
 0005:000008fc       __imp__glVertex3fv@4       608508fc     opengl32:OPENGL32.dll
 0005:00000900       __imp__glPopMatrix@0       60850900     opengl32:OPENGL32.dll
 0005:00000904       \177OPENGL32_NULL_THUNK_DATA 60850904     opengl32:OPENGL32.dll
 0005:0000094c       __imp__SDL_PollEvent       6085094c     sdl:SDL.dll
 0005:00000950       __imp__SDL_mutexP          60850950     sdl:SDL.dll
 0005:00000954       __imp__SDL_GL_SwapBuffers  60850954     sdl:SDL.dll
 0005:00000958       __imp__SDL_mutexV          60850958     sdl:SDL.dll
 0005:0000095c       __imp__SDL_CreateMutex     6085095c     sdl:SDL.dll
 0005:00000960       __imp__SDL_CreateThread    60850960     sdl:SDL.dll
 0005:00000964       __imp__SDL_GetError        60850964     sdl:SDL.dll
 0005:00000968       __imp__SDL_WaitThread      60850968     sdl:SDL.dll
 0005:0000096c       __imp__SDL_Init            6085096c     sdl:SDL.dll
 0005:00000970       __imp__SDL_ShowCursor      60850970     sdl:SDL.dll
 0005:00000974       __imp__SDL_WM_GrabInput    60850974     sdl:SDL.dll
 0005:00000978       __imp__SDL_SetVideoMode    60850978     sdl:SDL.dll
 0005:0000097c       __imp__SDL_DestroyMutex    6085097c     sdl:SDL.dll
 0005:00000980       __imp__SDL_Quit            60850980     sdl:SDL.dll
 0005:00000984       __imp__SDL_Delay           60850984     sdl:SDL.dll
 0005:00000988       __imp__SDL_GetTicks        60850988     sdl:SDL.dll
 0005:0000098c       __imp__SDL_WM_SetCaption   6085098c     sdl:SDL.dll
 0005:00000990       \177SDL_NULL_THUNK_DATA    60850990     sdl:SDL.dll
 0005:000009c8       __imp_?write@NMS_LogFunctions@@SAXPADW4logLevel@@@Z 608509c8     nms_utilities:nms_utilities.dll
 0005:000009cc       __imp_?GetSingleton@NMS_LogFunctions@@SAAAV1@XZ 608509cc     nms_utilities:nms_utilities.dll
 0005:000009d0       __imp_?returnSha1@nmsSha1@@SAPADPBXH@Z 608509d0     nms_utilities:nms_utilities.dll
 0005:000009d4       __imp_?FileSize@nmsFileManagement@@SAJPAU_iobuf@@@Z 608509d4     nms_utilities:nms_utilities.dll
 0005:000009d8       \177nms_utilities_NULL_THUNK_DATA 608509d8     nms_utilities:nms_utilities.dll

 entry point at        0002:00000a14


 Exports

  ordinal    name

        1    ??0GeometryNode@@QAE@ABV0@@Z (public: __thiscall GeometryNode::GeometryNode(class GeometryNode const &))
        2    ??0GeometryNode@@QAE@PAVMesh@@@Z (public: __thiscall GeometryNode::GeometryNode(class Mesh *))
        3    ??0GeometryNode@@QAE@PAVMesh@@VMatrix@@@Z (public: __thiscall GeometryNode::GeometryNode(class Mesh *,class Matrix))
        4    ??0GeometryNode@@QAE@XZ (public: __thiscall GeometryNode::GeometryNode(void))
        5    ??0LightSource@@QAE@XZ (public: __thiscall LightSource::LightSource(void))
        6    ??0MD2Model@@QAE@XZ (public: __thiscall MD2Model::MD2Model(void))
        7    ??0Matrix@@QAE@ABV0@@Z (public: __thiscall Matrix::Matrix(class Matrix const &))
        8    ??0Matrix@@QAE@II@Z (public: __thiscall Matrix::Matrix(unsigned int,unsigned int))
        9    ??0Matrix@@QAE@XZ (public: __thiscall Matrix::Matrix(void))
       10    ??0NMSCameraController@@QAE@ABV0@@Z (public: __thiscall NMSCameraController::NMSCameraController(class NMSCameraController const &))
       11    ??0NMSCameraController@@QAE@XZ (public: __thiscall NMSCameraController::NMSCameraController(void))
       12    ??0NMSCameraFPS@@QAE@ABV0@@Z (public: __thiscall NMSCameraFPS::NMSCameraFPS(class NMSCameraFPS const &))
       13    ??0NMSCameraFPS@@QAE@XZ (public: __thiscall NMSCameraFPS::NMSCameraFPS(void))
       14    ??0NMS_3DObject@@QAE@PBVVector@@0@Z (public: __thiscall NMS_3DObject::NMS_3DObject(class Vector const *,class Vector const *))
       15    ??0NMS_3DObject@@QAE@XZ (public: __thiscall NMS_3DObject::NMS_3DObject(void))
       16    ??0NMS_AssetManager@@QAE@XZ (public: __thiscall NMS_AssetManager::NMS_AssetManager(void))
       17    ??0NMS_Event@@AAE@XZ (private: __thiscall NMS_Event::NMS_Event(void))
       18    ??0NMS_Event@@QAE@ABV0@@Z (public: __thiscall NMS_Event::NMS_Event(class NMS_Event const &))
       19    ??0NMS_Framework@@QAE@ABV0@@Z (public: __thiscall NMS_Framework::NMS_Framework(class NMS_Framework const &))
       20    ??0NMS_Framework@@QAE@XZ (public: __thiscall NMS_Framework::NMS_Framework(void))
       21    ??0NMS_LightSystem@@QAE@XZ (public: __thiscall NMS_LightSystem::NMS_LightSystem(void))
       22    ??0NMS_SceneRenderer@@QAE@ABV0@@Z (public: __thiscall NMS_SceneRenderer::NMS_SceneRenderer(class NMS_SceneRenderer const &))
       23    ??0NMS_SceneRenderer@@QAE@XZ (public: __thiscall NMS_SceneRenderer::NMS_SceneRenderer(void))
       24    ??0NMS_TextureManager@@QAE@ABV0@@Z (public: __thiscall NMS_TextureManager::NMS_TextureManager(class NMS_TextureManager const &))
       25    ??0NMS_TextureManager@@QAE@XZ (public: __thiscall NMS_TextureManager::NMS_TextureManager(void))
       26    ??0Point@@QAE@MMM@Z (public: __thiscall Point::Point(float,float,float))
       27    ??0Point@@QAE@XZ (public: __thiscall Point::Point(void))
       28    ??0Quaternion@@QAE@MMMM@Z (public: __thiscall Quaternion::Quaternion(float,float,float,float))
       29    ??0Quaternion@@QAE@XZ (public: __thiscall Quaternion::Quaternion(void))
       30    ??0SceneGraphNode@@QAE@ABV0@@Z (public: __thiscall SceneGraphNode::SceneGraphNode(class SceneGraphNode const &))
       31    ??0SceneGraphNode@@QAE@XZ (public: __thiscall SceneGraphNode::SceneGraphNode(void))
       32    ??0SceneGraphVisitor@@QAE@ABV0@@Z (public: __thiscall SceneGraphVisitor::SceneGraphVisitor(class SceneGraphVisitor const &))
       33    ??0SceneGraphVisitor@@QAE@XZ (public: __thiscall SceneGraphVisitor::SceneGraphVisitor(void))
       34    ??0Thread@@QAE@ABV0@@Z (public: __thiscall Thread::Thread(class Thread const &))
       35    ??0Thread@@QAE@XZ (public: __thiscall Thread::Thread(void))
       36    ??0TransformationNode@@QAE@ABV0@@Z (public: __thiscall TransformationNode::TransformationNode(class TransformationNode const &))
       37    ??0TransformationNode@@QAE@VMatrix@@@Z (public: __thiscall TransformationNode::TransformationNode(class Matrix))
       38    ??0TransformationNode@@QAE@XZ (public: __thiscall TransformationNode::TransformationNode(void))
       39    ??0Vector@@QAE@MMM@Z (public: __thiscall Vector::Vector(float,float,float))
       40    ??0Vector@@QAE@MMMM@Z (public: __thiscall Vector::Vector(float,float,float,float))
       41    ??0Vector@@QAE@XZ (public: __thiscall Vector::Vector(void))
       42    ??1GeometryNode@@QAE@XZ (public: __thiscall GeometryNode::~GeometryNode(void))
       43    ??1LightSource@@QAE@XZ (public: __thiscall LightSource::~LightSource(void))
       44    ??1MD2Model@@QAE@XZ (public: __thiscall MD2Model::~MD2Model(void))
       45    ??1Matrix@@QAE@XZ (public: __thiscall Matrix::~Matrix(void))
       46    ??1NMSCameraController@@QAE@XZ (public: __thiscall NMSCameraController::~NMSCameraController(void))
       47    ??1NMSCameraFPS@@QAE@XZ (public: __thiscall NMSCameraFPS::~NMSCameraFPS(void))
       48    ??1NMS_3DObject@@QAE@XZ (public: __thiscall NMS_3DObject::~NMS_3DObject(void))
       49    ??1NMS_AssetManager@@QAE@XZ (public: __thiscall NMS_AssetManager::~NMS_AssetManager(void))
       50    ??1NMS_Event@@QAE@XZ (public: __thiscall NMS_Event::~NMS_Event(void))
       51    ??1NMS_Framework@@QAE@XZ (public: __thiscall NMS_Framework::~NMS_Framework(void))
       52    ??1NMS_TextureManager@@QAE@XZ (public: __thiscall NMS_TextureManager::~NMS_TextureManager(void))
       53    ??1Point@@QAE@XZ (public: __thiscall Point::~Point(void))
       54    ??1Quaternion@@QAE@XZ (public: __thiscall Quaternion::~Quaternion(void))
       55    ??1SceneGraphNode@@QAE@XZ (public: __thiscall SceneGraphNode::~SceneGraphNode(void))
       56    ??1TransformationNode@@QAE@XZ (public: __thiscall TransformationNode::~TransformationNode(void))
       57    ??1Vector@@QAE@XZ (public: __thiscall Vector::~Vector(void))
       58    ??4GeometryNode@@QAEAAV0@ABV0@@Z (public: class GeometryNode & __thiscall GeometryNode::operator=(class GeometryNode const &))
       59    ??4LightSource@@QAEAAV0@ABV0@@Z (public: class LightSource & __thiscall LightSource::operator=(class LightSource const &))
       60    ??4MD2Model@@QAEAAV0@ABV0@@Z (public: class MD2Model & __thiscall MD2Model::operator=(class MD2Model const &))
       61    ??4Matrix@@QAEABV0@ABV0@@Z (public: class Matrix const & __thiscall Matrix::operator=(class Matrix const &))
       62    ??4Mesh@@QAEAAV0@ABV0@@Z (public: class Mesh & __thiscall Mesh::operator=(class Mesh const &))
       63    ??4NMSCameraController@@QAEAAV0@ABV0@@Z (public: class NMSCameraController & __thiscall NMSCameraController::operator=(class NMSCameraController const &))
       64    ??4NMSCameraFPS@@QAEAAV0@ABV0@@Z (public: class NMSCameraFPS & __thiscall NMSCameraFPS::operator=(class NMSCameraFPS const &))
       65    ??4NMS_3DObject@@QAEAAV0@ABV0@@Z (public: class NMS_3DObject & __thiscall NMS_3DObject::operator=(class NMS_3DObject const &))
       66    ??4NMS_AssetManager@@QAEAAV0@ABV0@@Z (public: class NMS_AssetManager & __thiscall NMS_AssetManager::operator=(class NMS_AssetManager const &))
       67    ??4NMS_Event@@QAEAAV0@ABV0@@Z (public: class NMS_Event & __thiscall NMS_Event::operator=(class NMS_Event const &))
       68    ??4NMS_Framework@@QAEAAV0@ABV0@@Z (public: class NMS_Framework & __thiscall NMS_Framework::operator=(class NMS_Framework const &))
       69    ??4NMS_LightSystem@@QAEAAV0@ABV0@@Z (public: class NMS_LightSystem & __thiscall NMS_LightSystem::operator=(class NMS_LightSystem const &))
       70    ??4NMS_SceneRenderer@@QAEAAV0@ABV0@@Z (public: class NMS_SceneRenderer & __thiscall NMS_SceneRenderer::operator=(class NMS_SceneRenderer const &))
       71    ??4NMS_TextureManager@@QAEAAV0@ABV0@@Z (public: class NMS_TextureManager & __thiscall NMS_TextureManager::operator=(class NMS_TextureManager const &))
       72    ??4Point@@QAEAAV0@ABV0@@Z (public: class Point & __thiscall Point::operator=(class Point const &))
       73    ??4Quaternion@@QAEAAV0@ABV0@@Z (public: class Quaternion & __thiscall Quaternion::operator=(class Quaternion const &))
       74    ??4SceneGraphNode@@QAEAAV0@ABV0@@Z (public: class SceneGraphNode & __thiscall SceneGraphNode::operator=(class SceneGraphNode const &))
       75    ??4SceneGraphVisitor@@QAEAAV0@ABV0@@Z (public: class SceneGraphVisitor & __thiscall SceneGraphVisitor::operator=(class SceneGraphVisitor const &))
       76    ??4Thread@@QAEAAV0@ABV0@@Z (public: class Thread & __thiscall Thread::operator=(class Thread const &))
       77    ??4TransformationNode@@QAEAAV0@ABV0@@Z (public: class TransformationNode & __thiscall TransformationNode::operator=(class TransformationNode const &))
       78    ??4Vector@@QAEAAV0@ABV0@@Z (public: class Vector & __thiscall Vector::operator=(class Vector const &))
       79    ??4nmsTrig@@QAEAAV0@ABV0@@Z (public: class nmsTrig & __thiscall nmsTrig::operator=(class nmsTrig const &))
       80    ??APoint@@QAEAAMH@Z (public: float & __thiscall Point::operator[](int))
       81    ??APoint@@QBEABMH@Z (public: float const & __thiscall Point::operator[](int)const )
       82    ??DQuaternion@@QBE?AV0@ABV0@@Z (public: class Quaternion __thiscall Quaternion::operator*(class Quaternion const &)const )
       83    ??DVector@@QAEMABV0@@Z (public: float __thiscall Vector::operator*(class Vector const &))
       84    ??GPoint@@QAE?AV0@ABVVector@@@Z (public: class Point __thiscall Point::operator-(class Vector const &))
       85    ??GPoint@@QAE?AVVector@@ABV0@@Z (public: class Vector __thiscall Point::operator-(class Point const &))
       86    ??HPoint@@QAE?AV0@ABVVector@@@Z (public: class Point __thiscall Point::operator+(class Vector const &))
       87    ??LVector@@QAE?AV0@ABV0@@Z (public: class Vector __thiscall Vector::operator%(class Vector const &))
       88    ??RMatrix@@QAEAAMII@Z (public: float & __thiscall Matrix::operator()(unsigned int,unsigned int))
       89    ??RMatrix@@QBE?BMII@Z (public: float const __thiscall Matrix::operator()(unsigned int,unsigned int)const )
       90    ??XMatrix@@QAEAAV0@ABM@Z (public: class Matrix & __thiscall Matrix::operator*=(float const &))
       91    ??XMatrix@@QAEAAV0@ABV0@@Z (public: class Matrix & __thiscall Matrix::operator*=(class Matrix const &))
       92    ??XPoint@@QAEAAV0@ABVMatrix@@@Z (public: class Point & __thiscall Point::operator*=(class Matrix const &))
       93    ??XQuaternion@@QAEXABV0@@Z (public: void __thiscall Quaternion::operator*=(class Quaternion const &))
       94    ??XVector@@QAEAAV0@ABVMatrix@@@Z (public: class Vector & __thiscall Vector::operator*=(class Matrix const &))
       95    ??XVector@@QAEAAV0@M@Z (public: class Vector & __thiscall Vector::operator*=(float))
       96    ??YVector@@QAEAAV0@ABV0@@Z (public: class Vector & __thiscall Vector::operator+=(class Vector const &))
       97    ??ZVector@@QAEAAV0@ABV0@@Z (public: class Vector & __thiscall Vector::operator-=(class Vector const &))
       98    ??_0Vector@@QAEAAV0@M@Z (public: class Vector & __thiscall Vector::operator/=(float))
       99    ??_7GeometryNode@@6B@ (const GeometryNode::`vftable')
      100    ??_7NMSCameraController@@6B@ (const NMSCameraController::`vftable')
      101    ??_7NMSCameraFPS@@6B@ (const NMSCameraFPS::`vftable')
      102    ??_7NMS_SceneRenderer@@6BSceneGraphVisitor@@@ (const NMS_SceneRenderer::`vftable'{for `SceneGraphVisitor'})
      103    ??_7NMS_SceneRenderer@@6BThread@@@ (const NMS_SceneRenderer::`vftable'{for `Thread'})
      104    ??_7SceneGraphNode@@6B@ (const SceneGraphNode::`vftable')
      105    ??_7SceneGraphVisitor@@6B@ (const SceneGraphVisitor::`vftable')
      106    ??_7Thread@@6B@ (const Thread::`vftable')
      107    ??_7TransformationNode@@6B@ (const TransformationNode::`vftable')
      108    ?Animate@MD2Model@@AAEXM@Z (private: void __thiscall MD2Model::Animate(float))
      109    ?CalculateFrameRate@NMS_Framework@@QAEXXZ (public: void __thiscall NMS_Framework::CalculateFrameRate(void))
      110    ?Destroy@NMS_AssetManager@@SAXXZ (public: static void __cdecl NMS_AssetManager::Destroy(void))
      111    ?Destroy@NMS_TextureManager@@SAXXZ (public: static void __cdecl NMS_TextureManager::Destroy(void))
      112    ?Disable@NMS_LightSystem@@QAEXXZ (public: void __thiscall NMS_LightSystem::Disable(void))
      113    ?DrawFrame@MD2Model@@QAEXHH@Z (public: void __thiscall MD2Model::DrawFrame(int,int))
      114    ?DrawModel@MD2Model@@QAEXM@Z (public: void __thiscall MD2Model::DrawModel(float))
      115    ?Enable@NMS_LightSystem@@QAEXH@Z (public: void __thiscall NMS_LightSystem::Enable(int))
      116    ?Free@MD2Model@@AAEXPAPAX@Z (private: void __thiscall MD2Model::Free(void * *))
      117    ?FreeAll@NMS_AssetManager@@QAEXXZ (public: void __thiscall NMS_AssetManager::FreeAll(void))
      118    ?FreeAll@NMS_TextureManager@@QAEXXZ (public: void __thiscall NMS_TextureManager::FreeAll(void))
      119    ?FreeTexture@NMS_AssetManager@@QAEXPAD@Z (public: void __thiscall NMS_AssetManager::FreeTexture(char *))
      120    ?FreeTexture@NMS_TextureManager@@QAEXPAD@Z (public: void __thiscall NMS_TextureManager::FreeTexture(char *))
      121    ?GetErrorMessage@NMS_AssetManager@@QAEPADXZ (public: char * __thiscall NMS_AssetManager::GetErrorMessage(void))
      122    ?GetSingleton@NMS_AssetManager@@SAAAV1@XZ (public: static class NMS_AssetManager & __cdecl NMS_AssetManager::GetSingleton(void))
      123    ?GetSingleton@NMS_TextureManager@@SAAAV1@XZ (public: static class NMS_TextureManager & __cdecl NMS_TextureManager::GetSingleton(void))
      124    ?InitData@MD2Model@@AAEXXZ (private: void __thiscall MD2Model::InitData(void))
      125    ?InitEngine@@YA_NHHHPAD_N@Z (bool __cdecl InitEngine(int,int,int,char *,bool))
      126    ?Initialize@NMS_AssetManager@@CAXXZ (private: static void __cdecl NMS_AssetManager::Initialize(void))
      127    ?Initialize@NMS_TextureManager@@CAXXZ (private: static void __cdecl NMS_TextureManager::Initialize(void))
      128    ?Interpolate@MD2Model@@AAEXPAY02M@Z (private: void __thiscall MD2Model::Interpolate(float (*)[3]))
      129    ?LoadData@MD2Model@@AAEXXZ (private: void __thiscall MD2Model::LoadData(void))
      130    ?LoadFrames@MD2Model@@AAEXXZ (private: void __thiscall MD2Model::LoadFrames(void))
      131    ?LoadGLCommands@MD2Model@@AAEXXZ (private: void __thiscall MD2Model::LoadGLCommands(void))
      132    ?LoadModel@MD2Model@@QAEHPBD@Z (public: int __thiscall MD2Model::LoadModel(char const *))
      133    ?LoadSkin@MD2Model@@QAEHPAD@Z (public: int __thiscall MD2Model::LoadSkin(char *))
      134    ?LoadTexture@NMS_AssetManager@@QAEHPBDPAD@Z (public: int __thiscall NMS_AssetManager::LoadTexture(char const *,char *))
      135    ?LoadTexture@NMS_TextureManager@@QAEHPBDPAD@Z (public: int __thiscall NMS_TextureManager::LoadTexture(char const *,char *))
      136    ?Malloc@MD2Model@@AAEPAXI@Z (private: void * __thiscall MD2Model::Malloc(unsigned int))
      137    ?NMSInit@NMS_Framework@@QAE_NHHHPAD_N@Z (public: bool __thiscall NMS_Framework::NMSInit(int,int,int,char *,bool))
      138    ?NMSQuit@NMS_Framework@@QAEXH@Z (public: void __thiscall NMS_Framework::NMSQuit(int))
      139    ?QuitEngine@@YAXXZ (void __cdecl QuitEngine(void))
      140    ?ReadFile@MD2Model@@AAEHPBD@Z (private: int __thiscall MD2Model::ReadFile(char const *))
      141    ?ReadHeader@MD2Model@@AAEHPAEPAUHeader@@@Z (private: int __thiscall MD2Model::ReadHeader(unsigned char *,struct Header *))
      142    ?RenderFrame@MD2Model@@AAEXXZ (private: void __thiscall MD2Model::RenderFrame(void))
      143    ?SetAnim@MD2Model@@QAEXH@Z (public: void __thiscall MD2Model::SetAnim(int))
      144    ?StartEngine@@YAXXZ (void __cdecl StartEngine(void))
      145    ?UpdateCamera@NMSCameraFPS@@QAEXM@Z (public: void __thiscall NMSCameraFPS::UpdateCamera(float))
      146    ?addChild@SceneGraphNode@@QAEXPAV1@@Z (public: void __thiscall SceneGraphNode::addChild(class SceneGraphNode *))
      147    ?after@GeometryNode@@UAEXPAVSceneGraphVisitor@@PAVMatrix@@@Z (public: virtual void __thiscall GeometryNode::after(class SceneGraphVisitor *,class Matrix *))
      148    ?after@TransformationNode@@UAEXPAVSceneGraphVisitor@@PAVMatrix@@@Z (public: virtual void __thiscall TransformationNode::after(class SceneGraphVisitor *,class Matrix *))
      149    ?animlist@MD2Model@@2PAUanim_t@@A (public: static struct anim_t * MD2Model::animlist)
      150    ?anorms@MD2Model@@0PAY02MA (private: static float (* MD2Model::anorms)[3])
      151    ?before@GeometryNode@@UAEXPAVSceneGraphVisitor@@PAVMatrix@@@Z (public: virtual void __thiscall GeometryNode::before(class SceneGraphVisitor *,class Matrix *))
      152    ?before@TransformationNode@@UAEXPAVSceneGraphVisitor@@PAVMatrix@@@Z (public: virtual void __thiscall TransformationNode::before(class SceneGraphVisitor *,class Matrix *))
      153    ?checkForHash@NMS_TextureManager@@AAE?AUtextStruct@@PAD0@Z (private: struct textStruct __thiscall NMS_TextureManager::checkForHash(char *,char *))
      154    ?cleanup@NMS_Framework@@QAEXXZ (public: void __thiscall NMS_Framework::cleanup(void))
      155    ?cos@nmsTrig@@SAMN@Z (public: static float __cdecl nmsTrig::cos(double))
      156    ?createFromAngles@Quaternion@@QAEXMMM@Z (public: void __thiscall Quaternion::createFromAngles(float,float,float))
      157    ?debugPrint@Matrix@@QAEXXZ (public: void __thiscall Matrix::debugPrint(void))
      158    ?defineLight@NMS_LightSystem@@QAEXVLightSource@@@Z (public: void __thiscall NMS_LightSystem::defineLight(class LightSource))
      159    ?degToRad@nmsTrig@@SAMM@Z (public: static float __cdecl nmsTrig::degToRad(float))
      160    ?degToRad@nmsTrig@@SANN@Z (public: static double __cdecl nmsTrig::degToRad(double))
      161    ?destroy@NMS_Event@@SAXXZ (public: static void __cdecl NMS_Event::destroy(void))
      162    ?down@NMS_SceneRenderer@@QAEXXZ (public: void __thiscall NMS_SceneRenderer::down(void))
      163    ?enableWireframe@NMS_Framework@@QAEX_N@Z (public: void __thiscall NMS_Framework::enableWireframe(bool))
      164    ?engine@@3VNMS_Framework@@A (class NMS_Framework engine)
      165    ?getAttFact@LightSource@@QAEMXZ (public: float __thiscall LightSource::getAttFact(void))
      166    ?getAttType@LightSource@@QAEIXZ (public: unsigned int __thiscall LightSource::getAttType(void))
      167    ?getCol@Matrix@@QAE?AVVector@@I@Z (public: class Vector __thiscall Matrix::getCol(unsigned int))
      168    ?getColL@Matrix@@QBEIXZ (public: unsigned int __thiscall Matrix::getColL(void)const )
      169    ?getDir@NMSCameraController@@QAE?AVVector@@XZ (public: class Vector __thiscall NMSCameraController::getDir(void))
      170    ?getDirVector@NMS_3DObject@@QAE?AVVector@@XZ (public: class Vector __thiscall NMS_3DObject::getDirVector(void))
      171    ?getInstance@NMS_Event@@SAAAV1@XZ (public: static class NMS_Event & __cdecl NMS_Event::getInstance(void))
      172    ?getIntDis@LightSource@@QAEMXZ (public: float __thiscall LightSource::getIntDis(void))
      173    ?getLightNumber@LightSource@@QAEIXZ (public: unsigned int __thiscall LightSource::getLightNumber(void))
      174    ?getLightValue@LightSource@@QAE?AVVector@@XZ (public: class Vector __thiscall LightSource::getLightValue(void))
      175    ?getMatrix@Quaternion@@QAE?AVMatrix@@XZ (public: class Matrix __thiscall Quaternion::getMatrix(void))
      176    ?getPos@NMSCameraController@@QAE?AVVector@@XZ (public: class Vector __thiscall NMSCameraController::getPos(void))
      177    ?getPosVector@NMS_3DObject@@QAE?AVVector@@XZ (public: class Vector __thiscall NMS_3DObject::getPosVector(void))
      178    ?getRSpeedX@NMSCameraFPS@@QAEMXZ (public: float __thiscall NMSCameraFPS::getRSpeedX(void))
      179    ?getRSpeedY@NMSCameraFPS@@QAEMXZ (public: float __thiscall NMSCameraFPS::getRSpeedY(void))
      180    ?getRight@NMSCameraController@@QAE?AVVector@@XZ (public: class Vector __thiscall NMSCameraController::getRight(void))
      181    ?getRotation@NMSCameraFPS@@QAE?AVVector@@XZ (public: class Vector __thiscall NMSCameraFPS::getRotation(void))
      182    ?getRow@Matrix@@QAE?AVVector@@I@Z (public: class Vector __thiscall Matrix::getRow(unsigned int))
      183    ?getRowL@Matrix@@QBEIXZ (public: unsigned int __thiscall Matrix::getRowL(void)const )
      184    ?getScene@NMS_Framework@@QAEPAVSceneGraphNode@@XZ (public: class SceneGraphNode * __thiscall NMS_Framework::getScene(void))
      185    ?getSlideSpeed@NMSCameraFPS@@QAEMXZ (public: float __thiscall NMSCameraFPS::getSlideSpeed(void))
      186    ?getSpeed@NMSCameraFPS@@QAEMXZ (public: float __thiscall NMSCameraFPS::getSpeed(void))
      187    ?getThread@Thread@@QAEPAUSDL_Thread@@XZ (public: struct SDL_Thread * __thiscall Thread::getThread(void))
      188    ?getUp@NMSCameraController@@QAE?AVVector@@XZ (public: class Vector __thiscall NMSCameraController::getUp(void))
      189    ?getVelocity@NMSCameraController@@QAE?AVVector@@XZ (public: class Vector __thiscall NMSCameraController::getVelocity(void))
      190    ?handleEvent@NMS_Event@@QAEXTSDL_Event@@@Z (public: void __thiscall NMS_Event::handleEvent(union SDL_Event))
      191    ?init@NMSCameraFPS@@MAEXXZ (protected: virtual void __thiscall NMSCameraFPS::init(void))
      192    ?initMutexes@@YAXXZ (void __cdecl initMutexes(void))
      193    ?initRendering@NMS_SceneRenderer@@QAE_NXZ (public: bool __thiscall NMS_SceneRenderer::initRendering(void))
      194    ?m_Singleton@NMS_AssetManager@@0PAV1@A (private: static class NMS_AssetManager * NMS_AssetManager::m_Singleton)
      195    ?m_Singleton@NMS_TextureManager@@0PAV1@A (private: static class NMS_TextureManager * NMS_TextureManager::m_Singleton)
      196    ?m_iMessageSize@NMS_TextureManager@@0IB (private: static unsigned int const NMS_TextureManager::m_iMessageSize)
      197    ?magnitude@Vector@@QAEMXZ (public: float __thiscall Vector::magnitude(void))
      198    ?memoryRealloc@Matrix@@AAEXIIII@Z (private: void __thiscall Matrix::memoryRealloc(unsigned int,unsigned int,unsigned int,unsigned int))
      199    ?multiply@TransformationNode@@QAEXVMatrix@@@Z (public: void __thiscall TransformationNode::multiply(class Matrix))
      200    ?normal@Vector@@QAE?AV1@XZ (public: class Vector __thiscall Vector::normal(void))
      201    ?onIdle@NMS_Event@@QAEXP6AXH@Z@Z (public: void __thiscall NMS_Event::onIdle(void (__cdecl*)(int)))
      202    ?onKeyPressed@NMS_Event@@QAEXP6AXW4SDLKey@@@Z@Z (public: void __thiscall NMS_Event::onKeyPressed(void (__cdecl*)(enum SDLKey)))
      203    ?pollEvents@NMS_Event@@QAEXXZ (public: void __thiscall NMS_Event::pollEvents(void))
      204    ?processEvents@NMS_Event@@QAEXXZ (public: void __thiscall NMS_Event::processEvents(void))
      205    ?radToDeg@nmsTrig@@SAMM@Z (public: static float __cdecl nmsTrig::radToDeg(float))
      206    ?radToDeg@nmsTrig@@SANN@Z (public: static double __cdecl nmsTrig::radToDeg(double))
      207    ?recalcAxes@NMSCameraFPS@@MAEXXZ (protected: virtual void __thiscall NMSCameraFPS::recalcAxes(void))
      208    ?render@Mesh@@QAEXXZ (public: void __thiscall Mesh::render(void))
      209    ?render@NMS_Framework@@QAEXXZ (public: void __thiscall NMS_Framework::render(void))
      210    ?render@NMS_SceneRenderer@@QAEXXZ (public: void __thiscall NMS_SceneRenderer::render(void))
      211    ?renderingLoop@NMS_SceneRenderer@@QAEHXZ (public: int __thiscall NMS_SceneRenderer::renderingLoop(void))
      212    ?resize@Matrix@@QAEXIIII@Z (public: void __thiscall Matrix::resize(unsigned int,unsigned int,unsigned int,unsigned int))
      213    ?returnPointer@Matrix@@QAEPAMXZ (public: float * __thiscall Matrix::returnPointer(void))
      214    ?returnViewMatrix@NMSCameraController@@QAE?AVMatrix@@XZ (public: class Matrix __thiscall NMSCameraController::returnViewMatrix(void))
      215    ?rotV@Matrix@@QAEXABNABVVector@@@Z (public: void __thiscall Matrix::rotV(double const &,class Vector const &))
      216    ?rotX@Matrix@@QAEXABN@Z (public: void __thiscall Matrix::rotX(double const &))
      217    ?rotY@Matrix@@QAEXABN@Z (public: void __thiscall Matrix::rotY(double const &))
      218    ?rotZ@Matrix@@QAEXABN@Z (public: void __thiscall Matrix::rotZ(double const &))
      219    ?run@NMS_Framework@@QAEXXZ (public: void __thiscall NMS_Framework::run(void))
      220    ?run@NMS_SceneRenderer@@UAEHXZ (public: virtual int __thiscall NMS_SceneRenderer::run(void))
      221    ?run@Thread@@UAEHXZ (public: virtual int __thiscall Thread::run(void))
      222    ?sceneGraphGuard@@3PAUSDL_mutex@@A (struct SDL_mutex * sceneGraphGuard)
      223    ?setAttFact@LightSource@@QAEXM@Z (public: void __thiscall LightSource::setAttFact(float))
      224    ?setAttType@LightSource@@QAEXI@Z (public: void __thiscall LightSource::setAttType(unsigned int))
      225    ?setCol@Matrix@@QAEXIABVVector@@@Z (public: void __thiscall Matrix::setCol(unsigned int,class Vector const &))
      226    ?setDir@NMSCameraFPS@@QAEXAAVVector@@@Z (public: void __thiscall NMSCameraFPS::setDir(class Vector &))
      227    ?setDirVector@NMS_3DObject@@QAEXPBVVector@@@Z (public: void __thiscall NMS_3DObject::setDirVector(class Vector const *))
      228    ?setGlobalAmbient@NMS_LightSystem@@QAEXPBVVector@@@Z (public: void __thiscall NMS_LightSystem::setGlobalAmbient(class Vector const *))
      229    ?setIntDis@LightSource@@QAEXM@Z (public: void __thiscall LightSource::setIntDis(float))
      230    ?setLightNumber@LightSource@@QAEXI@Z (public: void __thiscall LightSource::setLightNumber(unsigned int))
      231    ?setLightValue@LightSource@@QAEXPBVVector@@@Z (public: void __thiscall LightSource::setLightValue(class Vector const *))
      232    ?setPos@NMSCameraFPS@@QAEXAAVVector@@@Z (public: void __thiscall NMSCameraFPS::setPos(class Vector &))
      233    ?setPosVector@NMS_3DObject@@QAEXPBVVector@@@Z (public: void __thiscall NMS_3DObject::setPosVector(class Vector const *))
      234    ?setRSpeedX@NMSCameraFPS@@QAEXM@Z (public: void __thiscall NMSCameraFPS::setRSpeedX(float))
      235    ?setRSpeedY@NMSCameraFPS@@QAEXM@Z (public: void __thiscall NMSCameraFPS::setRSpeedY(float))
      236    ?setRight@NMSCameraFPS@@QAEXAAVVector@@@Z (public: void __thiscall NMSCameraFPS::setRight(class Vector &))
      237    ?setRotation@NMSCameraFPS@@QAEXMMM@Z (public: void __thiscall NMSCameraFPS::setRotation(float,float,float))
      238    ?setRow@Matrix@@QAEXIABVVector@@@Z (public: void __thiscall Matrix::setRow(unsigned int,class Vector const &))
      239    ?setScene@NMS_SceneRenderer@@QAEXPAVSceneGraphNode@@@Z (public: void __thiscall NMS_SceneRenderer::setScene(class SceneGraphNode *))
      240    ?setSlideSpeed@NMSCameraFPS@@QAEXM@Z (public: void __thiscall NMSCameraFPS::setSlideSpeed(float))
      241    ?setSpeed@NMSCameraFPS@@QAEXM@Z (public: void __thiscall NMSCameraFPS::setSpeed(float))
      242    ?setUp@NMSCameraFPS@@QAEXAAVVector@@@Z (public: void __thiscall NMSCameraFPS::setUp(class Vector &))
      243    ?sg_after@NMS_SceneRenderer@@UAEXVMatrix@@VMesh@@@Z (public: virtual void __thiscall NMS_SceneRenderer::sg_after(class Matrix,class Mesh))
      244    ?sg_before@NMS_SceneRenderer@@UAEXVMatrix@@VMesh@@@Z (public: virtual void __thiscall NMS_SceneRenderer::sg_before(class Matrix,class Mesh))
      245    ?shear@Matrix@@QAEXABMABI1@Z (public: void __thiscall Matrix::shear(float const &,unsigned int const &,unsigned int const &))
      246    ?sin@nmsTrig@@SAMN@Z (public: static float __cdecl nmsTrig::sin(double))
      247    ?singleton@NMS_Event@@0PAV1@A (private: static class NMS_Event * NMS_Event::singleton)
      248    ?sqmagnitude@Vector@@QAEMXZ (public: float __thiscall Vector::sqmagnitude(void))
      249    ?start@Thread@@QAEXXZ (public: void __thiscall Thread::start(void))
      250    ?swapRows@Matrix@@QAEXII@Z (public: void __thiscall Matrix::swapRows(unsigned int,unsigned int))
      251    ?szErrorMessageSize@NMS_AssetManager@@0IB (private: static unsigned int const NMS_AssetManager::szErrorMessageSize)
      252    ?threadProxy@@YAHPAX@Z (int __cdecl threadProxy(void *))
      253    ?translate@Matrix@@QAEXABVVector@@@Z (public: void __thiscall Matrix::translate(class Vector const &))
      254    ?traverse_df@SceneGraphNode@@QAEXPAVSceneGraphVisitor@@@Z (public: void __thiscall SceneGraphNode::traverse_df(class SceneGraphVisitor *))
      255    ?traverse_df@SceneGraphNode@@QAEXPAVSceneGraphVisitor@@PAVMatrix@@@Z (public: void __thiscall SceneGraphNode::traverse_df(class SceneGraphVisitor *,class Matrix *))
      256    ?uScale@Matrix@@QAEXABM@Z (public: void __thiscall Matrix::uScale(float const &))
      257    ?up@NMS_SceneRenderer@@QAEXXZ (public: void __thiscall NMS_SceneRenderer::up(void))
